
build/app_ax45043_driver.elf:     file format elf32-littlearm


Disassembly of section .vectors:

08000000 <_vectors>:
 8000000:	20000400 	.word	0x20000400
 8000004:	080002b9 	.word	0x080002b9
 8000008:	080002bb 	.word	0x080002bb
 800000c:	080002bb 	.word	0x080002bb
 8000010:	080002bb 	.word	0x080002bb
 8000014:	080002bb 	.word	0x080002bb
 8000018:	080002bb 	.word	0x080002bb
 800001c:	080002bb 	.word	0x080002bb
 8000020:	080002bb 	.word	0x080002bb
 8000024:	080002bb 	.word	0x080002bb
 8000028:	080002bb 	.word	0x080002bb
 800002c:	08005bd1 	.word	0x08005bd1
 8000030:	080002bb 	.word	0x080002bb
 8000034:	080002bb 	.word	0x080002bb
 8000038:	080002bb 	.word	0x080002bb
 800003c:	080002bb 	.word	0x080002bb
 8000040:	080002bb 	.word	0x080002bb
 8000044:	080002bb 	.word	0x080002bb
 8000048:	080002bb 	.word	0x080002bb
 800004c:	080002bb 	.word	0x080002bb
 8000050:	080002bb 	.word	0x080002bb
 8000054:	080002bb 	.word	0x080002bb
 8000058:	0800acf1 	.word	0x0800acf1
 800005c:	0800acb1 	.word	0x0800acb1
 8000060:	0800ac71 	.word	0x0800ac71
 8000064:	0800ac31 	.word	0x0800ac31
 8000068:	0800abf1 	.word	0x0800abf1
 800006c:	0800aa21 	.word	0x0800aa21
 8000070:	0800a9f1 	.word	0x0800a9f1
 8000074:	0800a9c1 	.word	0x0800a9c1
 8000078:	0800a991 	.word	0x0800a991
 800007c:	0800a961 	.word	0x0800a961
 8000080:	0800a931 	.word	0x0800a931
 8000084:	0800a901 	.word	0x0800a901
 8000088:	080002bb 	.word	0x080002bb
 800008c:	080002bb 	.word	0x080002bb
 8000090:	080002bb 	.word	0x080002bb
 8000094:	080002bb 	.word	0x080002bb
 8000098:	080002bb 	.word	0x080002bb
 800009c:	0800ab31 	.word	0x0800ab31
 80000a0:	080002bb 	.word	0x080002bb
 80000a4:	080002bb 	.word	0x080002bb
 80000a8:	080002bb 	.word	0x080002bb
 80000ac:	080002bb 	.word	0x080002bb
 80000b0:	0800b021 	.word	0x0800b021
 80000b4:	080002bb 	.word	0x080002bb
 80000b8:	080002bb 	.word	0x080002bb
 80000bc:	080002bb 	.word	0x080002bb
 80000c0:	080002bb 	.word	0x080002bb
 80000c4:	080002bb 	.word	0x080002bb
 80000c8:	080002bb 	.word	0x080002bb
 80000cc:	080002bb 	.word	0x080002bb
 80000d0:	080002bb 	.word	0x080002bb
 80000d4:	080002bb 	.word	0x080002bb
 80000d8:	0800a731 	.word	0x0800a731
 80000dc:	080002bb 	.word	0x080002bb
 80000e0:	0800aa51 	.word	0x0800aa51
 80000e4:	080002bb 	.word	0x080002bb
 80000e8:	080002bb 	.word	0x080002bb
 80000ec:	080002bb 	.word	0x080002bb
 80000f0:	080002bb 	.word	0x080002bb
 80000f4:	080002bb 	.word	0x080002bb
 80000f8:	080002bb 	.word	0x080002bb
 80000fc:	0800a8d1 	.word	0x0800a8d1
 8000100:	080002bb 	.word	0x080002bb
 8000104:	080002bb 	.word	0x080002bb
 8000108:	080002bb 	.word	0x080002bb
 800010c:	080002bb 	.word	0x080002bb
 8000110:	080002bb 	.word	0x080002bb
 8000114:	080002bb 	.word	0x080002bb
 8000118:	080002bb 	.word	0x080002bb
 800011c:	080002bb 	.word	0x080002bb
 8000120:	0800a8a1 	.word	0x0800a8a1
 8000124:	0800a871 	.word	0x0800a871
 8000128:	0800a841 	.word	0x0800a841
 800012c:	0800a811 	.word	0x0800a811
 8000130:	0800a7e1 	.word	0x0800a7e1
 8000134:	080002bb 	.word	0x080002bb
 8000138:	080002bb 	.word	0x080002bb
 800013c:	080002bb 	.word	0x080002bb
 8000140:	080002bb 	.word	0x080002bb
 8000144:	080002bb 	.word	0x080002bb
 8000148:	080002bb 	.word	0x080002bb
 800014c:	080002bb 	.word	0x080002bb
 8000150:	0800a7b1 	.word	0x0800a7b1
 8000154:	0800a781 	.word	0x0800a781
 8000158:	0800a751 	.word	0x0800a751
 800015c:	080002bb 	.word	0x080002bb
 8000160:	080002bb 	.word	0x080002bb
 8000164:	080002bb 	.word	0x080002bb
 8000168:	080002bb 	.word	0x080002bb
 800016c:	080002bb 	.word	0x080002bb
 8000170:	080002bb 	.word	0x080002bb
 8000174:	080002bb 	.word	0x080002bb
 8000178:	080002bb 	.word	0x080002bb
 800017c:	080002bb 	.word	0x080002bb
 8000180:	080002bb 	.word	0x080002bb
 8000184:	080002bb 	.word	0x080002bb
 8000188:	080002bb 	.word	0x080002bb
 800018c:	080002bb 	.word	0x080002bb
 8000190:	080002bb 	.word	0x080002bb
 8000194:	080002bb 	.word	0x080002bb
 8000198:	080002bb 	.word	0x080002bb
 800019c:	080002bb 	.word	0x080002bb
 80001a0:	080002bb 	.word	0x080002bb
 80001a4:	080002bb 	.word	0x080002bb
 80001a8:	080002bb 	.word	0x080002bb
 80001ac:	080002bb 	.word	0x080002bb
 80001b0:	080002bb 	.word	0x080002bb
 80001b4:	080002bb 	.word	0x080002bb
 80001b8:	080002bb 	.word	0x080002bb
 80001bc:	080002bb 	.word	0x080002bb
 80001c0:	080002bb 	.word	0x080002bb
 80001c4:	080002bb 	.word	0x080002bb
 80001c8:	080002bb 	.word	0x080002bb
 80001cc:	080002bb 	.word	0x080002bb
 80001d0:	080002bb 	.word	0x080002bb
 80001d4:	080002bb 	.word	0x080002bb
 80001d8:	080002bb 	.word	0x080002bb
 80001dc:	080002bb 	.word	0x080002bb

Disassembly of section .text:

080001e0 <_crt0_entry>:
                .align  2
                .thumb_func
                .global _crt0_entry
_crt0_entry:
                /* Interrupts are globally masked initially.*/
                cpsid   i
 80001e0:	b672      	cpsid	i

#if CRT0_FORCE_MSP_INIT == TRUE
                /* MSP stack pointers initialization.*/
                ldr     r0, =__main_stack_end__
 80001e2:	4827      	ldr	r0, [pc, #156]	; (8000280 <endfiniloop+0x4>)
                msr     MSP, r0
 80001e4:	f380 8808 	msr	MSP, r0
#endif

                /* PSP stack pointers initialization.*/
                ldr     r0, =__process_stack_end__
 80001e8:	4826      	ldr	r0, [pc, #152]	; (8000284 <endfiniloop+0x8>)
                msr     PSP, r0
 80001ea:	f380 8809 	msr	PSP, r0

#if CRT0_VTOR_INIT == TRUE
                ldr     r0, =_vectors
 80001ee:	4826      	ldr	r0, [pc, #152]	; (8000288 <endfiniloop+0xc>)
                movw    r1, #SCB_VTOR & 0xFFFF
 80001f0:	f64e 5108 	movw	r1, #60680	; 0xed08
                movt    r1, #SCB_VTOR >> 16
 80001f4:	f2ce 0100 	movt	r1, #57344	; 0xe000
                str     r0, [r1]
 80001f8:	6008      	str	r0, [r1, #0]

                /* Enforcing FPCA bit in the CONTROL register.*/
                movs    r0, #CRT0_CONTROL_INIT | CONTROL_FPCA

#else
                movs    r0, #CRT0_CONTROL_INIT
 80001fa:	2002      	movs	r0, #2
#endif

                /* CONTROL register initialization as configured.*/
                msr     CONTROL, r0
 80001fc:	f380 8814 	msr	CONTROL, r0
                isb
 8000200:	f3bf 8f6f 	isb	sy

#if CRT0_INIT_CORE == TRUE
                /* Core initialization.*/
                bl      __core_init
 8000204:	f00a ff54 	bl	800b0b0 <__core_init>
#endif

                /* Early initialization.*/
                bl      __early_init
 8000208:	f00a fa8a 	bl	800a720 <__early_init>

#if CRT0_INIT_STACKS == TRUE
                ldr     r0, =CRT0_STACKS_FILL_PATTERN
 800020c:	f04f 3055 	mov.w	r0, #1431655765	; 0x55555555
                /* Main Stack initialization. Note, it assumes that the
                   stack size is a multiple of 4 so the linker file must
                   ensure this.*/
                ldr     r1, =__main_stack_base__
 8000210:	491e      	ldr	r1, [pc, #120]	; (800028c <endfiniloop+0x10>)
                ldr     r2, =__main_stack_end__
 8000212:	4a1b      	ldr	r2, [pc, #108]	; (8000280 <endfiniloop+0x4>)

08000214 <msloop>:
msloop:
                cmp     r1, r2
 8000214:	4291      	cmp	r1, r2
                itt     lo
 8000216:	bf3c      	itt	cc
                strlo   r0, [r1], #4
 8000218:	f841 0b04 	strcc.w	r0, [r1], #4
                blo     msloop
 800021c:	e7fa      	bcc.n	8000214 <msloop>

                /* Process Stack initialization. Note, it assumes that the
                   stack size is a multiple of 4 so the linker file must
                   ensure this.*/
                ldr     r1, =__process_stack_base__
 800021e:	491c      	ldr	r1, [pc, #112]	; (8000290 <endfiniloop+0x14>)
                ldr     r2, =__process_stack_end__
 8000220:	4a18      	ldr	r2, [pc, #96]	; (8000284 <endfiniloop+0x8>)

08000222 <psloop>:
psloop:
                cmp     r1, r2
 8000222:	4291      	cmp	r1, r2
                itt     lo
 8000224:	bf3c      	itt	cc
                strlo   r0, [r1], #4
 8000226:	f841 0b04 	strcc.w	r0, [r1], #4
                blo     psloop
 800022a:	e7fa      	bcc.n	8000222 <psloop>
#endif

#if CRT0_INIT_DATA == TRUE
                /* Data initialization. Note, it assumes that the DATA size
                  is a multiple of 4 so the linker file must ensure this.*/
                ldr     r1, =__textdata_base__
 800022c:	4919      	ldr	r1, [pc, #100]	; (8000294 <endfiniloop+0x18>)
                ldr     r2, =__data_base__
 800022e:	4a1a      	ldr	r2, [pc, #104]	; (8000298 <endfiniloop+0x1c>)
                ldr     r3, =__data_end__
 8000230:	4b1a      	ldr	r3, [pc, #104]	; (800029c <endfiniloop+0x20>)

08000232 <dloop>:
dloop:
                cmp     r2, r3
 8000232:	429a      	cmp	r2, r3
                ittt    lo
 8000234:	bf3e      	ittt	cc
                ldrlo   r0, [r1], #4
 8000236:	f851 0b04 	ldrcc.w	r0, [r1], #4
                strlo   r0, [r2], #4
 800023a:	f842 0b04 	strcc.w	r0, [r2], #4
                blo     dloop
 800023e:	e7f8      	bcc.n	8000232 <dloop>
#endif

#if CRT0_INIT_BSS == TRUE
                /* BSS initialization. Note, it assumes that the DATA size
                  is a multiple of 4 so the linker file must ensure this.*/
                movs    r0, #0
 8000240:	2000      	movs	r0, #0
                ldr     r1, =__bss_base__
 8000242:	4917      	ldr	r1, [pc, #92]	; (80002a0 <endfiniloop+0x24>)
                ldr     r2, =__bss_end__
 8000244:	4a17      	ldr	r2, [pc, #92]	; (80002a4 <endfiniloop+0x28>)

08000246 <bloop>:
bloop:
                cmp     r1, r2
 8000246:	4291      	cmp	r1, r2
                itt     lo
 8000248:	bf3c      	itt	cc
                strlo   r0, [r1], #4
 800024a:	f841 0b04 	strcc.w	r0, [r1], #4
                blo     bloop
 800024e:	e7fa      	bcc.n	8000246 <bloop>
#endif

#if CRT0_INIT_RAM_AREAS == TRUE
                /* RAM areas initialization.*/
                bl      __init_ram_areas
 8000250:	f00a fefe 	bl	800b050 <__init_ram_areas>
#endif

                /* Late initialization..*/
                bl      __late_init
 8000254:	f00a ff24 	bl	800b0a0 <__late_init>

#if CRT0_CALL_CONSTRUCTORS == TRUE
                /* Constructors invocation.*/
                ldr     r4, =__init_array_base__
 8000258:	4c13      	ldr	r4, [pc, #76]	; (80002a8 <endfiniloop+0x2c>)
                ldr     r5, =__init_array_end__
 800025a:	4d14      	ldr	r5, [pc, #80]	; (80002ac <endfiniloop+0x30>)

0800025c <initloop>:
initloop:
                cmp     r4, r5
 800025c:	42ac      	cmp	r4, r5
                bge     endinitloop
 800025e:	da03      	bge.n	8000268 <endinitloop>
                ldr     r1, [r4], #4
 8000260:	f854 1b04 	ldr.w	r1, [r4], #4
                blx     r1
 8000264:	4788      	blx	r1
                b       initloop
 8000266:	e7f9      	b.n	800025c <initloop>

08000268 <endinitloop>:
endinitloop:
#endif

                /* Main program invocation, r0 contains the returned value.*/
                bl      main
 8000268:	f008 fe82 	bl	8008f70 <main>

#if CRT0_CALL_DESTRUCTORS == TRUE
                /* Destructors invocation.*/
                ldr     r4, =__fini_array_base__
 800026c:	4c10      	ldr	r4, [pc, #64]	; (80002b0 <endfiniloop+0x34>)
                ldr     r5, =__fini_array_end__
 800026e:	4d11      	ldr	r5, [pc, #68]	; (80002b4 <endfiniloop+0x38>)

08000270 <finiloop>:
finiloop:
                cmp     r4, r5
 8000270:	42ac      	cmp	r4, r5
                bge     endfiniloop
 8000272:	da03      	bge.n	800027c <endfiniloop>
                ldr     r1, [r4], #4
 8000274:	f854 1b04 	ldr.w	r1, [r4], #4
                blx     r1
 8000278:	4788      	blx	r1
                b       finiloop
 800027a:	e7f9      	b.n	8000270 <finiloop>

0800027c <endfiniloop>:
endfiniloop:
#endif

                /* Branching to the defined exit handler.*/
                b       __default_exit
 800027c:	f00a bf08 	b.w	800b090 <__default_exit>
                ldr     r0, =__main_stack_end__
 8000280:	20000400 	.word	0x20000400
                ldr     r0, =__process_stack_end__
 8000284:	20000800 	.word	0x20000800
                ldr     r0, =_vectors
 8000288:	08000000 	.word	0x08000000
                ldr     r1, =__main_stack_base__
 800028c:	20000000 	.word	0x20000000
                ldr     r1, =__process_stack_base__
 8000290:	20000400 	.word	0x20000400
                ldr     r1, =__textdata_base__
 8000294:	0800e3e4 	.word	0x0800e3e4
                ldr     r2, =__data_base__
 8000298:	20000800 	.word	0x20000800
                ldr     r3, =__data_end__
 800029c:	20000f10 	.word	0x20000f10
                ldr     r1, =__bss_base__
 80002a0:	20000f10 	.word	0x20000f10
                ldr     r2, =__bss_end__
 80002a4:	20002210 	.word	0x20002210
                ldr     r4, =__init_array_base__
 80002a8:	080001e0 	.word	0x080001e0
                ldr     r5, =__init_array_end__
 80002ac:	080001e0 	.word	0x080001e0
                ldr     r4, =__fini_array_base__
 80002b0:	080001e0 	.word	0x080001e0
                ldr     r5, =__fini_array_end__
 80002b4:	080001e0 	.word	0x080001e0

080002b8 <Reset_Handler>:

        .align      2
        .thumb_func
        .weak       Reset_Handler
Reset_Handler:
         b          _crt0_entry
 80002b8:	e792      	b.n	80001e0 <_crt0_entry>

080002ba <BusFault_Handler>:
        .thumb_func
Vector3F8:
        .thumb_func
Vector3FC:
#endif
        bl          _unhandled_exception
 80002ba:	f000 f800 	bl	80002be <_unhandled_exception>

080002be <_unhandled_exception>:

        .thumb_func
        .weak       _unhandled_exception
_unhandled_exception:
.stay:
        b           .stay
 80002be:	e7fe      	b.n	80002be <_unhandled_exception>

080002c0 <_port_switch>:
 * Performs a context switch between two threads.
 *--------------------------------------------------------------------------*/
                .thumb_func
                .globl  _port_switch
_port_switch:
                push    {r4, r5, r6, r7, r8, r9, r10, r11, lr}
 80002c0:	e92d 4ff0 	stmdb	sp!, {r4, r5, r6, r7, r8, r9, sl, fp, lr}
#if PORT_SWITCHED_REGIONS_NUMBER == 4
                push    {r4, r5, r6, r7, r8, r9, r10, r11}
#endif
#endif

                str     sp, [r1, #CONTEXT_OFFSET]
 80002c4:	f8c1 d00c 	str.w	sp, [r1, #12]
#if (CORTEX_SIMPLIFIED_PRIORITY == FALSE) &&                                \
    ((CORTEX_MODEL == 3) || (CORTEX_MODEL == 4))
                /* Workaround for ARM errata 752419, only applied if
                   condition exists for it to be triggered.*/
                ldr     r3, [r0, #CONTEXT_OFFSET]
 80002c8:	68c3      	ldr	r3, [r0, #12]
                mov     sp, r3
 80002ca:	469d      	mov	sp, r3

#if CORTEX_USE_FPU
                /* Restoring FPU context.*/
                vpop    {s16-s31}
#endif
                pop     {r4, r5, r6, r7, r8, r9, r10, r11, pc}
 80002cc:	e8bd 8ff0 	ldmia.w	sp!, {r4, r5, r6, r7, r8, r9, sl, fp, pc}

080002d0 <_port_thread_start>:
                bl      _stats_stop_measure_crit_thd
#endif
#if CORTEX_SIMPLIFIED_PRIORITY
                cpsie   i
#else
                movs    r3, #0              /* CORTEX_BASEPRI_DISABLED */
 80002d0:	2300      	movs	r3, #0
                msr     BASEPRI, r3
 80002d2:	f383 8811 	msr	BASEPRI, r3
#endif
                mov     r0, r5
 80002d6:	4628      	mov	r0, r5
                blx     r4
 80002d8:	47a0      	blx	r4
                movs    r0, #0              /* MSG_OK */
 80002da:	2000      	movs	r0, #0
                bl      chThdExit
 80002dc:	f007 f888 	bl	80073f0 <chThdExit>

080002e0 <_zombies>:
_zombies:       b       _zombies
 80002e0:	e7fe      	b.n	80002e0 <_zombies>

080002e2 <_port_switch_from_isr>:
                bl      _stats_start_measure_crit_thd
#endif
#if CH_DBG_SYSTEM_STATE_CHECK
                bl      _dbg_check_lock
#endif
                bl      chSchDoReschedule
 80002e2:	f00a f8ad 	bl	800a440 <chSchDoReschedule>

080002e6 <_port_exit_from_isr>:
                movt    r3, #:upper16:SCB_ICSR
                mov     r2, ICSR_PENDSVSET
                str     r2, [r3, #0]
                cpsie   i
#else /* !CORTEX_SIMPLIFIED_PRIORITY */
                svc     #0
 80002e6:	df00      	svc	0
#endif /* !CORTEX_SIMPLIFIED_PRIORITY */
.L1:            b       .L1
 80002e8:	e7fe      	b.n	80002e8 <_port_exit_from_isr+0x2>
	...

080002ec <memcpy>:
 80002ec:	4684      	mov	ip, r0
 80002ee:	ea41 0300 	orr.w	r3, r1, r0
 80002f2:	f013 0303 	ands.w	r3, r3, #3
 80002f6:	d16d      	bne.n	80003d4 <memcpy+0xe8>
 80002f8:	3a40      	subs	r2, #64	; 0x40
 80002fa:	d341      	bcc.n	8000380 <memcpy+0x94>
 80002fc:	f851 3b04 	ldr.w	r3, [r1], #4
 8000300:	f840 3b04 	str.w	r3, [r0], #4
 8000304:	f851 3b04 	ldr.w	r3, [r1], #4
 8000308:	f840 3b04 	str.w	r3, [r0], #4
 800030c:	f851 3b04 	ldr.w	r3, [r1], #4
 8000310:	f840 3b04 	str.w	r3, [r0], #4
 8000314:	f851 3b04 	ldr.w	r3, [r1], #4
 8000318:	f840 3b04 	str.w	r3, [r0], #4
 800031c:	f851 3b04 	ldr.w	r3, [r1], #4
 8000320:	f840 3b04 	str.w	r3, [r0], #4
 8000324:	f851 3b04 	ldr.w	r3, [r1], #4
 8000328:	f840 3b04 	str.w	r3, [r0], #4
 800032c:	f851 3b04 	ldr.w	r3, [r1], #4
 8000330:	f840 3b04 	str.w	r3, [r0], #4
 8000334:	f851 3b04 	ldr.w	r3, [r1], #4
 8000338:	f840 3b04 	str.w	r3, [r0], #4
 800033c:	f851 3b04 	ldr.w	r3, [r1], #4
 8000340:	f840 3b04 	str.w	r3, [r0], #4
 8000344:	f851 3b04 	ldr.w	r3, [r1], #4
 8000348:	f840 3b04 	str.w	r3, [r0], #4
 800034c:	f851 3b04 	ldr.w	r3, [r1], #4
 8000350:	f840 3b04 	str.w	r3, [r0], #4
 8000354:	f851 3b04 	ldr.w	r3, [r1], #4
 8000358:	f840 3b04 	str.w	r3, [r0], #4
 800035c:	f851 3b04 	ldr.w	r3, [r1], #4
 8000360:	f840 3b04 	str.w	r3, [r0], #4
 8000364:	f851 3b04 	ldr.w	r3, [r1], #4
 8000368:	f840 3b04 	str.w	r3, [r0], #4
 800036c:	f851 3b04 	ldr.w	r3, [r1], #4
 8000370:	f840 3b04 	str.w	r3, [r0], #4
 8000374:	f851 3b04 	ldr.w	r3, [r1], #4
 8000378:	f840 3b04 	str.w	r3, [r0], #4
 800037c:	3a40      	subs	r2, #64	; 0x40
 800037e:	d2bd      	bcs.n	80002fc <memcpy+0x10>
 8000380:	3230      	adds	r2, #48	; 0x30
 8000382:	d311      	bcc.n	80003a8 <memcpy+0xbc>
 8000384:	f851 3b04 	ldr.w	r3, [r1], #4
 8000388:	f840 3b04 	str.w	r3, [r0], #4
 800038c:	f851 3b04 	ldr.w	r3, [r1], #4
 8000390:	f840 3b04 	str.w	r3, [r0], #4
 8000394:	f851 3b04 	ldr.w	r3, [r1], #4
 8000398:	f840 3b04 	str.w	r3, [r0], #4
 800039c:	f851 3b04 	ldr.w	r3, [r1], #4
 80003a0:	f840 3b04 	str.w	r3, [r0], #4
 80003a4:	3a10      	subs	r2, #16
 80003a6:	d2ed      	bcs.n	8000384 <memcpy+0x98>
 80003a8:	320c      	adds	r2, #12
 80003aa:	d305      	bcc.n	80003b8 <memcpy+0xcc>
 80003ac:	f851 3b04 	ldr.w	r3, [r1], #4
 80003b0:	f840 3b04 	str.w	r3, [r0], #4
 80003b4:	3a04      	subs	r2, #4
 80003b6:	d2f9      	bcs.n	80003ac <memcpy+0xc0>
 80003b8:	3204      	adds	r2, #4
 80003ba:	d008      	beq.n	80003ce <memcpy+0xe2>
 80003bc:	07d2      	lsls	r2, r2, #31
 80003be:	bf1c      	itt	ne
 80003c0:	f811 3b01 	ldrbne.w	r3, [r1], #1
 80003c4:	f800 3b01 	strbne.w	r3, [r0], #1
 80003c8:	d301      	bcc.n	80003ce <memcpy+0xe2>
 80003ca:	880b      	ldrh	r3, [r1, #0]
 80003cc:	8003      	strh	r3, [r0, #0]
 80003ce:	4660      	mov	r0, ip
 80003d0:	4770      	bx	lr
 80003d2:	bf00      	nop
 80003d4:	2a08      	cmp	r2, #8
 80003d6:	d313      	bcc.n	8000400 <memcpy+0x114>
 80003d8:	078b      	lsls	r3, r1, #30
 80003da:	d08d      	beq.n	80002f8 <memcpy+0xc>
 80003dc:	f010 0303 	ands.w	r3, r0, #3
 80003e0:	d08a      	beq.n	80002f8 <memcpy+0xc>
 80003e2:	f1c3 0304 	rsb	r3, r3, #4
 80003e6:	1ad2      	subs	r2, r2, r3
 80003e8:	07db      	lsls	r3, r3, #31
 80003ea:	bf1c      	itt	ne
 80003ec:	f811 3b01 	ldrbne.w	r3, [r1], #1
 80003f0:	f800 3b01 	strbne.w	r3, [r0], #1
 80003f4:	d380      	bcc.n	80002f8 <memcpy+0xc>
 80003f6:	f831 3b02 	ldrh.w	r3, [r1], #2
 80003fa:	f820 3b02 	strh.w	r3, [r0], #2
 80003fe:	e77b      	b.n	80002f8 <memcpy+0xc>
 8000400:	3a04      	subs	r2, #4
 8000402:	d3d9      	bcc.n	80003b8 <memcpy+0xcc>
 8000404:	3a01      	subs	r2, #1
 8000406:	f811 3b01 	ldrb.w	r3, [r1], #1
 800040a:	f800 3b01 	strb.w	r3, [r0], #1
 800040e:	d2f9      	bcs.n	8000404 <memcpy+0x118>
 8000410:	780b      	ldrb	r3, [r1, #0]
 8000412:	7003      	strb	r3, [r0, #0]
 8000414:	784b      	ldrb	r3, [r1, #1]
 8000416:	7043      	strb	r3, [r0, #1]
 8000418:	788b      	ldrb	r3, [r1, #2]
 800041a:	7083      	strb	r3, [r0, #2]
 800041c:	4660      	mov	r0, ip
 800041e:	4770      	bx	lr
 8000420:	eba2 0003 	sub.w	r0, r2, r3
 8000424:	4770      	bx	lr
 8000426:	bf00      	nop

08000428 <strcmp>:
 8000428:	7802      	ldrb	r2, [r0, #0]
 800042a:	780b      	ldrb	r3, [r1, #0]
 800042c:	2a01      	cmp	r2, #1
 800042e:	bf28      	it	cs
 8000430:	429a      	cmpcs	r2, r3
 8000432:	d1f5      	bne.n	8000420 <memcpy+0x134>
 8000434:	e96d 4504 	strd	r4, r5, [sp, #-16]!
 8000438:	ea40 0401 	orr.w	r4, r0, r1
 800043c:	e9cd 6702 	strd	r6, r7, [sp, #8]
 8000440:	f06f 0c00 	mvn.w	ip, #0
 8000444:	ea4f 7244 	mov.w	r2, r4, lsl #29
 8000448:	b312      	cbz	r2, 8000490 <strcmp+0x68>
 800044a:	ea80 0401 	eor.w	r4, r0, r1
 800044e:	f014 0f07 	tst.w	r4, #7
 8000452:	d16a      	bne.n	800052a <strcmp+0x102>
 8000454:	f000 0407 	and.w	r4, r0, #7
 8000458:	f020 0007 	bic.w	r0, r0, #7
 800045c:	f004 0503 	and.w	r5, r4, #3
 8000460:	f021 0107 	bic.w	r1, r1, #7
 8000464:	ea4f 05c5 	mov.w	r5, r5, lsl #3
 8000468:	e8f0 2304 	ldrd	r2, r3, [r0], #16
 800046c:	f014 0f04 	tst.w	r4, #4
 8000470:	e8f1 6704 	ldrd	r6, r7, [r1], #16
 8000474:	fa0c f405 	lsl.w	r4, ip, r5
 8000478:	ea62 0204 	orn	r2, r2, r4
 800047c:	ea66 0604 	orn	r6, r6, r4
 8000480:	d00a      	beq.n	8000498 <strcmp+0x70>
 8000482:	ea63 0304 	orn	r3, r3, r4
 8000486:	4662      	mov	r2, ip
 8000488:	ea67 0704 	orn	r7, r7, r4
 800048c:	4666      	mov	r6, ip
 800048e:	e003      	b.n	8000498 <strcmp+0x70>
 8000490:	e8f0 2304 	ldrd	r2, r3, [r0], #16
 8000494:	e8f1 6704 	ldrd	r6, r7, [r1], #16
 8000498:	fa82 f54c 	uadd8	r5, r2, ip
 800049c:	ea82 0406 	eor.w	r4, r2, r6
 80004a0:	faa4 f48c 	sel	r4, r4, ip
 80004a4:	bb6c      	cbnz	r4, 8000502 <strcmp+0xda>
 80004a6:	fa83 f54c 	uadd8	r5, r3, ip
 80004aa:	ea83 0507 	eor.w	r5, r3, r7
 80004ae:	faa5 f58c 	sel	r5, r5, ip
 80004b2:	b995      	cbnz	r5, 80004da <strcmp+0xb2>
 80004b4:	e950 2302 	ldrd	r2, r3, [r0, #-8]
 80004b8:	e951 6702 	ldrd	r6, r7, [r1, #-8]
 80004bc:	fa82 f54c 	uadd8	r5, r2, ip
 80004c0:	ea82 0406 	eor.w	r4, r2, r6
 80004c4:	faa4 f48c 	sel	r4, r4, ip
 80004c8:	fa83 f54c 	uadd8	r5, r3, ip
 80004cc:	ea83 0507 	eor.w	r5, r3, r7
 80004d0:	faa5 f58c 	sel	r5, r5, ip
 80004d4:	4325      	orrs	r5, r4
 80004d6:	d0db      	beq.n	8000490 <strcmp+0x68>
 80004d8:	b99c      	cbnz	r4, 8000502 <strcmp+0xda>
 80004da:	ba2d      	rev	r5, r5
 80004dc:	fab5 f485 	clz	r4, r5
 80004e0:	f024 0407 	bic.w	r4, r4, #7
 80004e4:	fa27 f104 	lsr.w	r1, r7, r4
 80004e8:	e9dd 6702 	ldrd	r6, r7, [sp, #8]
 80004ec:	fa23 f304 	lsr.w	r3, r3, r4
 80004f0:	f003 00ff 	and.w	r0, r3, #255	; 0xff
 80004f4:	f001 01ff 	and.w	r1, r1, #255	; 0xff
 80004f8:	e8fd 4504 	ldrd	r4, r5, [sp], #16
 80004fc:	eba0 0001 	sub.w	r0, r0, r1
 8000500:	4770      	bx	lr
 8000502:	ba24      	rev	r4, r4
 8000504:	fab4 f484 	clz	r4, r4
 8000508:	f024 0407 	bic.w	r4, r4, #7
 800050c:	fa26 f104 	lsr.w	r1, r6, r4
 8000510:	e9dd 6702 	ldrd	r6, r7, [sp, #8]
 8000514:	fa22 f204 	lsr.w	r2, r2, r4
 8000518:	f002 00ff 	and.w	r0, r2, #255	; 0xff
 800051c:	f001 01ff 	and.w	r1, r1, #255	; 0xff
 8000520:	e8fd 4504 	ldrd	r4, r5, [sp], #16
 8000524:	eba0 0001 	sub.w	r0, r0, r1
 8000528:	4770      	bx	lr
 800052a:	f014 0f03 	tst.w	r4, #3
 800052e:	d13c      	bne.n	80005aa <strcmp+0x182>
 8000530:	f010 0403 	ands.w	r4, r0, #3
 8000534:	d128      	bne.n	8000588 <strcmp+0x160>
 8000536:	f850 2b08 	ldr.w	r2, [r0], #8
 800053a:	f851 3b08 	ldr.w	r3, [r1], #8
 800053e:	fa82 f54c 	uadd8	r5, r2, ip
 8000542:	ea82 0503 	eor.w	r5, r2, r3
 8000546:	faa5 f58c 	sel	r5, r5, ip
 800054a:	b95d      	cbnz	r5, 8000564 <strcmp+0x13c>
 800054c:	f850 2c04 	ldr.w	r2, [r0, #-4]
 8000550:	f851 3c04 	ldr.w	r3, [r1, #-4]
 8000554:	fa82 f54c 	uadd8	r5, r2, ip
 8000558:	ea82 0503 	eor.w	r5, r2, r3
 800055c:	faa5 f58c 	sel	r5, r5, ip
 8000560:	2d00      	cmp	r5, #0
 8000562:	d0e8      	beq.n	8000536 <strcmp+0x10e>
 8000564:	ba2d      	rev	r5, r5
 8000566:	fab5 f485 	clz	r4, r5
 800056a:	f024 0407 	bic.w	r4, r4, #7
 800056e:	fa23 f104 	lsr.w	r1, r3, r4
 8000572:	fa22 f204 	lsr.w	r2, r2, r4
 8000576:	f002 00ff 	and.w	r0, r2, #255	; 0xff
 800057a:	f001 01ff 	and.w	r1, r1, #255	; 0xff
 800057e:	e8fd 4504 	ldrd	r4, r5, [sp], #16
 8000582:	eba0 0001 	sub.w	r0, r0, r1
 8000586:	4770      	bx	lr
 8000588:	ea4f 04c4 	mov.w	r4, r4, lsl #3
 800058c:	f020 0003 	bic.w	r0, r0, #3
 8000590:	f850 2b08 	ldr.w	r2, [r0], #8
 8000594:	f021 0103 	bic.w	r1, r1, #3
 8000598:	f851 3b08 	ldr.w	r3, [r1], #8
 800059c:	fa0c f404 	lsl.w	r4, ip, r4
 80005a0:	ea62 0204 	orn	r2, r2, r4
 80005a4:	ea63 0304 	orn	r3, r3, r4
 80005a8:	e7c9      	b.n	800053e <strcmp+0x116>
 80005aa:	f010 0403 	ands.w	r4, r0, #3
 80005ae:	d01a      	beq.n	80005e6 <strcmp+0x1be>
 80005b0:	eba1 0104 	sub.w	r1, r1, r4
 80005b4:	f020 0003 	bic.w	r0, r0, #3
 80005b8:	07e4      	lsls	r4, r4, #31
 80005ba:	f850 2b04 	ldr.w	r2, [r0], #4
 80005be:	d006      	beq.n	80005ce <strcmp+0x1a6>
 80005c0:	d20f      	bcs.n	80005e2 <strcmp+0x1ba>
 80005c2:	788b      	ldrb	r3, [r1, #2]
 80005c4:	fa5f f4a2 	uxtb.w	r4, r2, ror #16
 80005c8:	1ae4      	subs	r4, r4, r3
 80005ca:	d106      	bne.n	80005da <strcmp+0x1b2>
 80005cc:	b12b      	cbz	r3, 80005da <strcmp+0x1b2>
 80005ce:	78cb      	ldrb	r3, [r1, #3]
 80005d0:	fa5f f4b2 	uxtb.w	r4, r2, ror #24
 80005d4:	1ae4      	subs	r4, r4, r3
 80005d6:	d100      	bne.n	80005da <strcmp+0x1b2>
 80005d8:	b91b      	cbnz	r3, 80005e2 <strcmp+0x1ba>
 80005da:	4620      	mov	r0, r4
 80005dc:	f85d 4b10 	ldr.w	r4, [sp], #16
 80005e0:	4770      	bx	lr
 80005e2:	f101 0104 	add.w	r1, r1, #4
 80005e6:	f850 2b04 	ldr.w	r2, [r0], #4
 80005ea:	07cc      	lsls	r4, r1, #31
 80005ec:	f021 0103 	bic.w	r1, r1, #3
 80005f0:	f851 3b04 	ldr.w	r3, [r1], #4
 80005f4:	d848      	bhi.n	8000688 <strcmp+0x260>
 80005f6:	d224      	bcs.n	8000642 <strcmp+0x21a>
 80005f8:	f022 447f 	bic.w	r4, r2, #4278190080	; 0xff000000
 80005fc:	fa82 f54c 	uadd8	r5, r2, ip
 8000600:	ea94 2513 	eors.w	r5, r4, r3, lsr #8
 8000604:	faa5 f58c 	sel	r5, r5, ip
 8000608:	d10a      	bne.n	8000620 <strcmp+0x1f8>
 800060a:	b965      	cbnz	r5, 8000626 <strcmp+0x1fe>
 800060c:	f851 3b04 	ldr.w	r3, [r1], #4
 8000610:	ea84 0402 	eor.w	r4, r4, r2
 8000614:	ebb4 6f03 	cmp.w	r4, r3, lsl #24
 8000618:	d10e      	bne.n	8000638 <strcmp+0x210>
 800061a:	f850 2b04 	ldr.w	r2, [r0], #4
 800061e:	e7eb      	b.n	80005f8 <strcmp+0x1d0>
 8000620:	ea4f 2313 	mov.w	r3, r3, lsr #8
 8000624:	e055      	b.n	80006d2 <strcmp+0x2aa>
 8000626:	f035 457f 	bics.w	r5, r5, #4278190080	; 0xff000000
 800062a:	d14d      	bne.n	80006c8 <strcmp+0x2a0>
 800062c:	7808      	ldrb	r0, [r1, #0]
 800062e:	e8fd 4504 	ldrd	r4, r5, [sp], #16
 8000632:	f1c0 0000 	rsb	r0, r0, #0
 8000636:	4770      	bx	lr
 8000638:	ea4f 6212 	mov.w	r2, r2, lsr #24
 800063c:	f003 03ff 	and.w	r3, r3, #255	; 0xff
 8000640:	e047      	b.n	80006d2 <strcmp+0x2aa>
 8000642:	ea02 441c 	and.w	r4, r2, ip, lsr #16
 8000646:	fa82 f54c 	uadd8	r5, r2, ip
 800064a:	ea94 4513 	eors.w	r5, r4, r3, lsr #16
 800064e:	faa5 f58c 	sel	r5, r5, ip
 8000652:	d10a      	bne.n	800066a <strcmp+0x242>
 8000654:	b965      	cbnz	r5, 8000670 <strcmp+0x248>
 8000656:	f851 3b04 	ldr.w	r3, [r1], #4
 800065a:	ea84 0402 	eor.w	r4, r4, r2
 800065e:	ebb4 4f03 	cmp.w	r4, r3, lsl #16
 8000662:	d10c      	bne.n	800067e <strcmp+0x256>
 8000664:	f850 2b04 	ldr.w	r2, [r0], #4
 8000668:	e7eb      	b.n	8000642 <strcmp+0x21a>
 800066a:	ea4f 4313 	mov.w	r3, r3, lsr #16
 800066e:	e030      	b.n	80006d2 <strcmp+0x2aa>
 8000670:	ea15 451c 	ands.w	r5, r5, ip, lsr #16
 8000674:	d128      	bne.n	80006c8 <strcmp+0x2a0>
 8000676:	880b      	ldrh	r3, [r1, #0]
 8000678:	ea4f 4212 	mov.w	r2, r2, lsr #16
 800067c:	e029      	b.n	80006d2 <strcmp+0x2aa>
 800067e:	ea4f 4212 	mov.w	r2, r2, lsr #16
 8000682:	ea03 431c 	and.w	r3, r3, ip, lsr #16
 8000686:	e024      	b.n	80006d2 <strcmp+0x2aa>
 8000688:	f002 04ff 	and.w	r4, r2, #255	; 0xff
 800068c:	fa82 f54c 	uadd8	r5, r2, ip
 8000690:	ea94 6513 	eors.w	r5, r4, r3, lsr #24
 8000694:	faa5 f58c 	sel	r5, r5, ip
 8000698:	d10a      	bne.n	80006b0 <strcmp+0x288>
 800069a:	b965      	cbnz	r5, 80006b6 <strcmp+0x28e>
 800069c:	f851 3b04 	ldr.w	r3, [r1], #4
 80006a0:	ea84 0402 	eor.w	r4, r4, r2
 80006a4:	ebb4 2f03 	cmp.w	r4, r3, lsl #8
 80006a8:	d109      	bne.n	80006be <strcmp+0x296>
 80006aa:	f850 2b04 	ldr.w	r2, [r0], #4
 80006ae:	e7eb      	b.n	8000688 <strcmp+0x260>
 80006b0:	ea4f 6313 	mov.w	r3, r3, lsr #24
 80006b4:	e00d      	b.n	80006d2 <strcmp+0x2aa>
 80006b6:	f015 0fff 	tst.w	r5, #255	; 0xff
 80006ba:	d105      	bne.n	80006c8 <strcmp+0x2a0>
 80006bc:	680b      	ldr	r3, [r1, #0]
 80006be:	ea4f 2212 	mov.w	r2, r2, lsr #8
 80006c2:	f023 437f 	bic.w	r3, r3, #4278190080	; 0xff000000
 80006c6:	e004      	b.n	80006d2 <strcmp+0x2aa>
 80006c8:	f04f 0000 	mov.w	r0, #0
 80006cc:	e8fd 4504 	ldrd	r4, r5, [sp], #16
 80006d0:	4770      	bx	lr
 80006d2:	ba12      	rev	r2, r2
 80006d4:	ba1b      	rev	r3, r3
 80006d6:	fa82 f44c 	uadd8	r4, r2, ip
 80006da:	ea82 0403 	eor.w	r4, r2, r3
 80006de:	faa4 f58c 	sel	r5, r4, ip
 80006e2:	fab5 f485 	clz	r4, r5
 80006e6:	fa02 f204 	lsl.w	r2, r2, r4
 80006ea:	fa03 f304 	lsl.w	r3, r3, r4
 80006ee:	ea4f 6012 	mov.w	r0, r2, lsr #24
 80006f2:	e8fd 4504 	ldrd	r4, r5, [sp], #16
 80006f6:	eba0 6013 	sub.w	r0, r0, r3, lsr #24
 80006fa:	4770      	bx	lr
 80006fc:	0000      	movs	r0, r0
	...

08000700 <null_provider>:

  (void)size;
  (void)align;

  return NULL;
}
 8000700:	2000      	movs	r0, #0
 8000702:	4770      	bx	lr
	...

08000710 <__ch_delegate_fn0>:
 * @brief   Veneer for functions with no parameters.
 *
 * @param[in] argsp     the list of arguments
 * @return              The function return value.
 */
msg_t __ch_delegate_fn0(va_list *argsp) {
 8000710:	b508      	push	{r3, lr}
  delegate_fn0_t fn0 = va_arg(*argsp, delegate_fn0_t);
 8000712:	6803      	ldr	r3, [r0, #0]
 8000714:	1d1a      	adds	r2, r3, #4
 8000716:	6002      	str	r2, [r0, #0]
 8000718:	681b      	ldr	r3, [r3, #0]
  return fn0();
 800071a:	4798      	blx	r3
}
 800071c:	bd08      	pop	{r3, pc}
 800071e:	bf00      	nop

08000720 <__ch_delegate_fn1>:
 * @brief   Veneer for functions with one parameter.
 *
 * @param[in] argsp     the list of arguments
 * @return              The function return value.
 */
msg_t __ch_delegate_fn1(va_list *argsp) {
 8000720:	b508      	push	{r3, lr}
  delegate_fn1_t fn1 = va_arg(*argsp, delegate_fn1_t);
 8000722:	6802      	ldr	r2, [r0, #0]
 8000724:	1d13      	adds	r3, r2, #4
 8000726:	6003      	str	r3, [r0, #0]
 8000728:	6811      	ldr	r1, [r2, #0]
  msg_t p1 = va_arg(*argsp, msg_t);
 800072a:	f102 0308 	add.w	r3, r2, #8
 800072e:	6003      	str	r3, [r0, #0]
  return fn1(p1);
 8000730:	6850      	ldr	r0, [r2, #4]
 8000732:	4788      	blx	r1
}
 8000734:	bd08      	pop	{r3, pc}
 8000736:	bf00      	nop
	...

08000740 <__ch_delegate_fn2>:
 * @brief   Veneer for functions with two parameters.
 *
 * @param[in] argsp     the list of arguments
 * @return              The function return value.
 */
msg_t __ch_delegate_fn2(va_list *argsp) {
 8000740:	b510      	push	{r4, lr}
 8000742:	4603      	mov	r3, r0
  delegate_fn2_t fn2 = va_arg(*argsp, delegate_fn2_t);
 8000744:	6800      	ldr	r0, [r0, #0]
 8000746:	1d01      	adds	r1, r0, #4
 8000748:	6019      	str	r1, [r3, #0]
 800074a:	6804      	ldr	r4, [r0, #0]
  msg_t p1 = va_arg(*argsp, msg_t);
 800074c:	f100 0208 	add.w	r2, r0, #8
 8000750:	601a      	str	r2, [r3, #0]
 8000752:	6840      	ldr	r0, [r0, #4]
  msg_t p2 = va_arg(*argsp, msg_t);
 8000754:	f101 0208 	add.w	r2, r1, #8
 8000758:	601a      	str	r2, [r3, #0]
  return fn2(p1, p2);
 800075a:	6849      	ldr	r1, [r1, #4]
 800075c:	47a0      	blx	r4
}
 800075e:	bd10      	pop	{r4, pc}

08000760 <__ch_delegate_fn3>:
 * @brief   Veneer for functions with three parameters.
 *
 * @param[in] argsp     the list of arguments
 * @return              The function return value.
 */
msg_t __ch_delegate_fn3(va_list *argsp) {
 8000760:	b538      	push	{r3, r4, r5, lr}
 8000762:	4603      	mov	r3, r0
  delegate_fn3_t fn3 = va_arg(*argsp, delegate_fn3_t);
 8000764:	6802      	ldr	r2, [r0, #0]
 8000766:	1d11      	adds	r1, r2, #4
 8000768:	6001      	str	r1, [r0, #0]
 800076a:	6815      	ldr	r5, [r2, #0]
  msg_t p1 = va_arg(*argsp, msg_t);
 800076c:	f102 0408 	add.w	r4, r2, #8
 8000770:	6004      	str	r4, [r0, #0]
 8000772:	6850      	ldr	r0, [r2, #4]
  msg_t p2 = va_arg(*argsp, msg_t);
 8000774:	320c      	adds	r2, #12
 8000776:	601a      	str	r2, [r3, #0]
 8000778:	6849      	ldr	r1, [r1, #4]
  msg_t p3 = va_arg(*argsp, msg_t);
 800077a:	f104 0208 	add.w	r2, r4, #8
 800077e:	601a      	str	r2, [r3, #0]
  return fn3(p1, p2, p3);
 8000780:	6862      	ldr	r2, [r4, #4]
 8000782:	47a8      	blx	r5
}
 8000784:	bd38      	pop	{r3, r4, r5, pc}
 8000786:	bf00      	nop
	...

08000790 <__ch_delegate_fn4>:
 * @brief   Veneer for functions with four parameters.
 *
 * @param[in] argsp     the list of arguments
 * @return              The function return value.
 */
msg_t __ch_delegate_fn4(va_list *argsp) {
 8000790:	b570      	push	{r4, r5, r6, lr}
 8000792:	4603      	mov	r3, r0
  delegate_fn4_t fn4 = va_arg(*argsp, delegate_fn4_t);
 8000794:	6800      	ldr	r0, [r0, #0]
 8000796:	1d01      	adds	r1, r0, #4
 8000798:	6019      	str	r1, [r3, #0]
 800079a:	6806      	ldr	r6, [r0, #0]
  msg_t p1 = va_arg(*argsp, msg_t);
 800079c:	f100 0208 	add.w	r2, r0, #8
 80007a0:	601a      	str	r2, [r3, #0]
 80007a2:	6840      	ldr	r0, [r0, #4]
  msg_t p2 = va_arg(*argsp, msg_t);
 80007a4:	f101 0508 	add.w	r5, r1, #8
 80007a8:	601d      	str	r5, [r3, #0]
 80007aa:	6849      	ldr	r1, [r1, #4]
  msg_t p3 = va_arg(*argsp, msg_t);
 80007ac:	f102 0408 	add.w	r4, r2, #8
 80007b0:	601c      	str	r4, [r3, #0]
 80007b2:	6852      	ldr	r2, [r2, #4]
  msg_t p4 = va_arg(*argsp, msg_t);
 80007b4:	f105 0408 	add.w	r4, r5, #8
 80007b8:	601c      	str	r4, [r3, #0]
  return fn4(p1, p2, p3, p4);
 80007ba:	686b      	ldr	r3, [r5, #4]
 80007bc:	47b0      	blx	r6
}
 80007be:	bd70      	pop	{r4, r5, r6, pc}

080007c0 <tmo>:
#endif
#if CH_CFG_USE_MUTEXES || defined(__DOXYGEN__)
static mutex_t mtx1;
#endif

static void tmo(void *param) {(void)param;}
 80007c0:	4770      	bx	lr
 80007c2:	bf00      	nop
	...

080007d0 <rt_test_005_001_setup>:
 *   the state of the reference are tested.
 * .
 */

static void rt_test_005_001_setup(void) {
  tr1 = NULL;
 80007d0:	4b01      	ldr	r3, [pc, #4]	; (80007d8 <rt_test_005_001_setup+0x8>)
 80007d2:	2200      	movs	r2, #0
 80007d4:	601a      	str	r2, [r3, #0]
}
 80007d6:	4770      	bx	lr
 80007d8:	20001aa8 	.word	0x20001aa8
 80007dc:	00000000 	.word	0x00000000

080007e0 <rt_test_002_003_execute>:

static void rt_test_002_003_execute(void) {

  /* [2.3.1] Testing chSysSuspend(), chSysDisable() and
     chSysEnable().*/
  test_set_step(1);
 80007e0:	4b07      	ldr	r3, [pc, #28]	; (8000800 <rt_test_002_003_execute+0x20>)
 80007e2:	2201      	movs	r2, #1
 80007e4:	601a      	str	r2, [r3, #0]
  \details Assigns the given value to the Base Priority register.
  \param [in]    basePri  Base Priority value to set
 */
__STATIC_FORCEINLINE void __set_BASEPRI(uint32_t basePri)
{
  __ASM volatile ("MSR basepri, %0" : : "r" (basePri) : "memory");
 80007e6:	2320      	movs	r3, #32
 80007e8:	f383 8811 	msr	BASEPRI, r3
  __ASM volatile ("cpsie i" : : : "memory");
 80007ec:	b662      	cpsie	i
  __ASM volatile ("cpsid i" : : : "memory");
 80007ee:	b672      	cpsid	i
  __ASM volatile ("MSR basepri, %0" : : "r" (basePri) : "memory");
 80007f0:	f383 8811 	msr	BASEPRI, r3
  __ASM volatile ("cpsie i" : : : "memory");
 80007f4:	b662      	cpsie	i
  __ASM volatile ("MSR basepri, %0" : : "r" (basePri) : "memory");
 80007f6:	2300      	movs	r3, #0
 80007f8:	f383 8811 	msr	BASEPRI, r3
  __ASM volatile ("cpsie i" : : : "memory");
 80007fc:	b662      	cpsie	i
    chSysDisable();
    chSysSuspend();
    chSysEnable();
  }
  test_end_step(1);
}
 80007fe:	4770      	bx	lr
 8000800:	20001a7c 	.word	0x20001a7c
	...

08000810 <test_emit_token>:
  __ASM volatile ("MSR basepri, %0" : : "r" (basePri) : "memory");
 8000810:	2320      	movs	r3, #32
 8000812:	f383 8811 	msr	BASEPRI, r3
 * @api
 */
void test_emit_token(char token) {

  osalSysLock();
  if (test_tokp < &test_tokens_buffer[TEST_CFG_MAX_TOKENS])
 8000816:	4b06      	ldr	r3, [pc, #24]	; (8000830 <test_emit_token+0x20>)
 8000818:	681b      	ldr	r3, [r3, #0]
 800081a:	4a06      	ldr	r2, [pc, #24]	; (8000834 <test_emit_token+0x24>)
 800081c:	4293      	cmp	r3, r2
 800081e:	d203      	bcs.n	8000828 <test_emit_token+0x18>
    *test_tokp++ = token;
 8000820:	1c59      	adds	r1, r3, #1
 8000822:	4a03      	ldr	r2, [pc, #12]	; (8000830 <test_emit_token+0x20>)
 8000824:	6011      	str	r1, [r2, #0]
 8000826:	7018      	strb	r0, [r3, #0]
 8000828:	2300      	movs	r3, #0
 800082a:	f383 8811 	msr	BASEPRI, r3
  osalSysUnlock();
}
 800082e:	4770      	bx	lr
 8000830:	20001a90 	.word	0x20001a90
 8000834:	20001a90 	.word	0x20001a90
	...

08000840 <obj_write>:
  return false;
}

static bool obj_write(objects_cache_t *ocp,
                      oc_object_t *objp,
                      bool async) {
 8000840:	b508      	push	{r3, lr}
  (void)ocp;
  (void)async;

  test_emit_token('A' + objp->obj_key);
 8000842:	6948      	ldr	r0, [r1, #20]
 8000844:	3041      	adds	r0, #65	; 0x41
 8000846:	b2c0      	uxtb	r0, r0
 8000848:	f7ff ffe2 	bl	8000810 <test_emit_token>

  return false;
}
 800084c:	2000      	movs	r0, #0
 800084e:	bd08      	pop	{r3, pc}

08000850 <dis_func0>:
 * Shared code.
 ****************************************************************************/

static bool exit_flag;

static int dis_func0(void) {
 8000850:	b508      	push	{r3, lr}

  test_emit_token('0');
 8000852:	2030      	movs	r0, #48	; 0x30
 8000854:	f7ff ffdc 	bl	8000810 <test_emit_token>

  return (msg_t)0x55AA;
}
 8000858:	f245 50aa 	movw	r0, #21930	; 0x55aa
 800085c:	bd08      	pop	{r3, pc}
 800085e:	bf00      	nop

08000860 <dis_func1>:

static msg_t dis_func1(msg_t a) {
 8000860:	b510      	push	{r4, lr}
 8000862:	4604      	mov	r4, r0

  test_emit_token((char)a);
 8000864:	b2c0      	uxtb	r0, r0
 8000866:	f7ff ffd3 	bl	8000810 <test_emit_token>

  return (msg_t)a;
}
 800086a:	4620      	mov	r0, r4
 800086c:	bd10      	pop	{r4, pc}
 800086e:	bf00      	nop

08000870 <dis_func2>:

static msg_t dis_func2(msg_t a, msg_t b) {
 8000870:	b538      	push	{r3, r4, r5, lr}
 8000872:	4604      	mov	r4, r0
 8000874:	460d      	mov	r5, r1

  test_emit_token((char)a);
 8000876:	b2c0      	uxtb	r0, r0
 8000878:	f7ff ffca 	bl	8000810 <test_emit_token>
  test_emit_token((char)b);
 800087c:	b2e8      	uxtb	r0, r5
 800087e:	f7ff ffc7 	bl	8000810 <test_emit_token>

  return (msg_t)a;
}
 8000882:	4620      	mov	r0, r4
 8000884:	bd38      	pop	{r3, r4, r5, pc}
 8000886:	bf00      	nop
	...

08000890 <dis_func3>:

static msg_t dis_func3(msg_t a, msg_t b, msg_t c) {
 8000890:	b570      	push	{r4, r5, r6, lr}
 8000892:	4604      	mov	r4, r0
 8000894:	460e      	mov	r6, r1
 8000896:	4615      	mov	r5, r2

  test_emit_token((char)a);
 8000898:	b2c0      	uxtb	r0, r0
 800089a:	f7ff ffb9 	bl	8000810 <test_emit_token>
  test_emit_token((char)b);
 800089e:	b2f0      	uxtb	r0, r6
 80008a0:	f7ff ffb6 	bl	8000810 <test_emit_token>
  test_emit_token((char)c);
 80008a4:	b2e8      	uxtb	r0, r5
 80008a6:	f7ff ffb3 	bl	8000810 <test_emit_token>

  return (msg_t)a;
}
 80008aa:	4620      	mov	r0, r4
 80008ac:	bd70      	pop	{r4, r5, r6, pc}
 80008ae:	bf00      	nop

080008b0 <dis_func4>:

static msg_t dis_func4(msg_t a, msg_t b, msg_t c, msg_t d) {
 80008b0:	b5f8      	push	{r3, r4, r5, r6, r7, lr}
 80008b2:	4604      	mov	r4, r0
 80008b4:	460f      	mov	r7, r1
 80008b6:	4616      	mov	r6, r2
 80008b8:	461d      	mov	r5, r3

  test_emit_token((char)a);
 80008ba:	b2c0      	uxtb	r0, r0
 80008bc:	f7ff ffa8 	bl	8000810 <test_emit_token>
  test_emit_token((char)b);
 80008c0:	b2f8      	uxtb	r0, r7
 80008c2:	f7ff ffa5 	bl	8000810 <test_emit_token>
  test_emit_token((char)c);
 80008c6:	b2f0      	uxtb	r0, r6
 80008c8:	f7ff ffa2 	bl	8000810 <test_emit_token>
  test_emit_token((char)d);
 80008cc:	b2e8      	uxtb	r0, r5
 80008ce:	f7ff ff9f 	bl	8000810 <test_emit_token>

  return (msg_t)a;
}
 80008d2:	4620      	mov	r0, r4
 80008d4:	bdf8      	pop	{r3, r4, r5, r6, r7, pc}
 80008d6:	bf00      	nop
	...

080008e0 <dis_func_end>:

static int dis_func_end(void) {
 80008e0:	b508      	push	{r3, lr}

  test_emit_token('Z');
 80008e2:	205a      	movs	r0, #90	; 0x5a
 80008e4:	f7ff ff94 	bl	8000810 <test_emit_token>
  exit_flag = true;
 80008e8:	4b02      	ldr	r3, [pc, #8]	; (80008f4 <dis_func_end+0x14>)
 80008ea:	2201      	movs	r2, #1
 80008ec:	701a      	strb	r2, [r3, #0]

  return (msg_t)0xAA55;
}
 80008ee:	f64a 2055 	movw	r0, #43605	; 0xaa55
 80008f2:	bd08      	pop	{r3, pc}
 80008f4:	20001124 	.word	0x20001124
	...

08000900 <dyn_thread1>:
#endif
#if CH_CFG_USE_MEMPOOLS
static memory_pool_t mp1;
#endif

static THD_FUNCTION(dyn_thread1, p) {
 8000900:	b508      	push	{r3, lr}

  test_emit_token(*(char *)p);
 8000902:	7800      	ldrb	r0, [r0, #0]
 8000904:	f7ff ff84 	bl	8000810 <test_emit_token>
}
 8000908:	bd08      	pop	{r3, pc}
 800090a:	bf00      	nop
 800090c:	0000      	movs	r0, r0
	...

08000910 <h3>:
static EVENTSOURCE_DECL(es1);
static EVENTSOURCE_DECL(es2);

static void h1(eventid_t id) {(void)id;test_emit_token('A');}
static void h2(eventid_t id) {(void)id;test_emit_token('B');}
static void h3(eventid_t id) {(void)id;test_emit_token('C');}
 8000910:	b508      	push	{r3, lr}
 8000912:	2043      	movs	r0, #67	; 0x43
 8000914:	f7ff ff7c 	bl	8000810 <test_emit_token>
 8000918:	bd08      	pop	{r3, pc}
 800091a:	bf00      	nop
 800091c:	0000      	movs	r0, r0
	...

08000920 <h2>:
static void h2(eventid_t id) {(void)id;test_emit_token('B');}
 8000920:	b508      	push	{r3, lr}
 8000922:	2042      	movs	r0, #66	; 0x42
 8000924:	f7ff ff74 	bl	8000810 <test_emit_token>
 8000928:	bd08      	pop	{r3, pc}
 800092a:	bf00      	nop
 800092c:	0000      	movs	r0, r0
	...

08000930 <h1>:
static void h1(eventid_t id) {(void)id;test_emit_token('A');}
 8000930:	b508      	push	{r3, lr}
 8000932:	2041      	movs	r0, #65	; 0x41
 8000934:	f7ff ff6c 	bl	8000810 <test_emit_token>
 8000938:	bd08      	pop	{r3, pc}
 800093a:	bf00      	nop
 800093c:	0000      	movs	r0, r0
	...

08000940 <thread>:

/****************************************************************************
 * Shared code.
 ****************************************************************************/

static THD_FUNCTION(thread, p) {
 8000940:	b508      	push	{r3, lr}

  test_emit_token(*(char *)p);
 8000942:	7800      	ldrb	r0, [r0, #0]
 8000944:	f7ff ff64 	bl	8000810 <test_emit_token>
}
 8000948:	bd08      	pop	{r3, pc}
 800094a:	bf00      	nop
 800094c:	0000      	movs	r0, r0
	...

08000950 <test_print>:
void test_print(const char *msgp) {
 8000950:	b510      	push	{r4, lr}
 8000952:	4604      	mov	r4, r0
  while (*msgp)
 8000954:	7821      	ldrb	r1, [r4, #0]
 8000956:	b131      	cbz	r1, 8000966 <test_print+0x16>
    streamPut(test_chp, *msgp++);
 8000958:	4b03      	ldr	r3, [pc, #12]	; (8000968 <test_print+0x18>)
 800095a:	6818      	ldr	r0, [r3, #0]
 800095c:	3401      	adds	r4, #1
 800095e:	6803      	ldr	r3, [r0, #0]
 8000960:	68db      	ldr	r3, [r3, #12]
 8000962:	4798      	blx	r3
 8000964:	e7f6      	b.n	8000954 <test_print+0x4>
}
 8000966:	bd10      	pop	{r4, pc}
 8000968:	200019d0 	.word	0x200019d0
 800096c:	00000000 	.word	0x00000000

08000970 <test_println>:
void test_println(const char *msgp) {
 8000970:	b508      	push	{r3, lr}
  test_print(msgp);
 8000972:	f7ff ffed 	bl	8000950 <test_print>
  streamWrite(test_chp, (const uint8_t *)"\r\n", 2);
 8000976:	4b04      	ldr	r3, [pc, #16]	; (8000988 <test_println+0x18>)
 8000978:	6818      	ldr	r0, [r3, #0]
 800097a:	6803      	ldr	r3, [r0, #0]
 800097c:	685b      	ldr	r3, [r3, #4]
 800097e:	2202      	movs	r2, #2
 8000980:	4902      	ldr	r1, [pc, #8]	; (800098c <test_println+0x1c>)
 8000982:	4798      	blx	r3
}
 8000984:	bd08      	pop	{r3, pc}
 8000986:	bf00      	nop
 8000988:	200019d0 	.word	0x200019d0
 800098c:	0800c2dc 	.word	0x0800c2dc

08000990 <test_printn>:
void test_printn(uint32_t n) {
 8000990:	b510      	push	{r4, lr}
 8000992:	b084      	sub	sp, #16
  if (!n)
 8000994:	b938      	cbnz	r0, 80009a6 <test_printn+0x16>
    streamPut(test_chp, '0');
 8000996:	4b12      	ldr	r3, [pc, #72]	; (80009e0 <test_printn+0x50>)
 8000998:	6818      	ldr	r0, [r3, #0]
 800099a:	6803      	ldr	r3, [r0, #0]
 800099c:	68db      	ldr	r3, [r3, #12]
 800099e:	2130      	movs	r1, #48	; 0x30
 80009a0:	4798      	blx	r3
}
 80009a2:	b004      	add	sp, #16
 80009a4:	bd10      	pop	{r4, pc}
 80009a6:	4602      	mov	r2, r0
    p = buf;
 80009a8:	466c      	mov	r4, sp
    while (n)
 80009aa:	b1a2      	cbz	r2, 80009d6 <test_printn+0x46>
      *p++ = (n % 10) + '0', n /= 10;
 80009ac:	4b0d      	ldr	r3, [pc, #52]	; (80009e4 <test_printn+0x54>)
 80009ae:	fba3 1302 	umull	r1, r3, r3, r2
 80009b2:	08db      	lsrs	r3, r3, #3
 80009b4:	4619      	mov	r1, r3
 80009b6:	eb03 0383 	add.w	r3, r3, r3, lsl #2
 80009ba:	eba2 0343 	sub.w	r3, r2, r3, lsl #1
 80009be:	3330      	adds	r3, #48	; 0x30
 80009c0:	f804 3b01 	strb.w	r3, [r4], #1
 80009c4:	460a      	mov	r2, r1
 80009c6:	e7f0      	b.n	80009aa <test_printn+0x1a>
      streamPut(test_chp, *--p);
 80009c8:	4b05      	ldr	r3, [pc, #20]	; (80009e0 <test_printn+0x50>)
 80009ca:	6818      	ldr	r0, [r3, #0]
 80009cc:	6803      	ldr	r3, [r0, #0]
 80009ce:	68db      	ldr	r3, [r3, #12]
 80009d0:	f814 1d01 	ldrb.w	r1, [r4, #-1]!
 80009d4:	4798      	blx	r3
    while (p > buf)
 80009d6:	466b      	mov	r3, sp
 80009d8:	429c      	cmp	r4, r3
 80009da:	d8f5      	bhi.n	80009c8 <test_printn+0x38>
 80009dc:	e7e1      	b.n	80009a2 <test_printn+0x12>
 80009de:	bf00      	nop
 80009e0:	200019d0 	.word	0x200019d0
 80009e4:	cccccccd 	.word	0xcccccccd
	...

080009f0 <oslib_test_001_003_execute>:
 * <h2>Test Steps</h2>
 * - [1.3.1] Prints the configuration options settings.
 * .
 */

static void oslib_test_001_003_execute(void) {
 80009f0:	b538      	push	{r3, r4, r5, lr}

  /* [1.3.1] Prints the configuration options settings.*/
  test_set_step(1);
 80009f2:	2501      	movs	r5, #1
 80009f4:	4b49      	ldr	r3, [pc, #292]	; (8000b1c <oslib_test_001_003_execute+0x12c>)
 80009f6:	601d      	str	r5, [r3, #0]
  {
    test_print("--- CH_CFG_USE_MAILBOXES:               ");
 80009f8:	4849      	ldr	r0, [pc, #292]	; (8000b20 <oslib_test_001_003_execute+0x130>)
 80009fa:	f7ff ffa9 	bl	8000950 <test_print>
    test_printn(CH_CFG_USE_MAILBOXES);
 80009fe:	4628      	mov	r0, r5
 8000a00:	f7ff ffc6 	bl	8000990 <test_printn>
    test_println("");
 8000a04:	4c47      	ldr	r4, [pc, #284]	; (8000b24 <oslib_test_001_003_execute+0x134>)
 8000a06:	4620      	mov	r0, r4
 8000a08:	f7ff ffb2 	bl	8000970 <test_println>
    test_print("--- CH_CFG_USE_MEMCORE:                 ");
 8000a0c:	4846      	ldr	r0, [pc, #280]	; (8000b28 <oslib_test_001_003_execute+0x138>)
 8000a0e:	f7ff ff9f 	bl	8000950 <test_print>
    test_printn(CH_CFG_USE_MEMCORE);
 8000a12:	4628      	mov	r0, r5
 8000a14:	f7ff ffbc 	bl	8000990 <test_printn>
    test_println("");
 8000a18:	4620      	mov	r0, r4
 8000a1a:	f7ff ffa9 	bl	8000970 <test_println>
    test_print("--- CH_CFG_USE_HEAP:                    ");
 8000a1e:	4843      	ldr	r0, [pc, #268]	; (8000b2c <oslib_test_001_003_execute+0x13c>)
 8000a20:	f7ff ff96 	bl	8000950 <test_print>
    test_printn(CH_CFG_USE_HEAP);
 8000a24:	4628      	mov	r0, r5
 8000a26:	f7ff ffb3 	bl	8000990 <test_printn>
    test_println("");
 8000a2a:	4620      	mov	r0, r4
 8000a2c:	f7ff ffa0 	bl	8000970 <test_println>
    test_print("--- CH_CFG_USE_MEMPOOLS:                ");
 8000a30:	483f      	ldr	r0, [pc, #252]	; (8000b30 <oslib_test_001_003_execute+0x140>)
 8000a32:	f7ff ff8d 	bl	8000950 <test_print>
    test_printn(CH_CFG_USE_MEMPOOLS);
 8000a36:	4628      	mov	r0, r5
 8000a38:	f7ff ffaa 	bl	8000990 <test_printn>
    test_println("");
 8000a3c:	4620      	mov	r0, r4
 8000a3e:	f7ff ff97 	bl	8000970 <test_println>
    test_print("--- CH_CFG_USE_OBJ_FIFOS:               ");
 8000a42:	483c      	ldr	r0, [pc, #240]	; (8000b34 <oslib_test_001_003_execute+0x144>)
 8000a44:	f7ff ff84 	bl	8000950 <test_print>
    test_printn(CH_CFG_USE_OBJ_FIFOS);
 8000a48:	4628      	mov	r0, r5
 8000a4a:	f7ff ffa1 	bl	8000990 <test_printn>
    test_println("");
 8000a4e:	4620      	mov	r0, r4
 8000a50:	f7ff ff8e 	bl	8000970 <test_println>
    test_print("--- CH_CFG_USE_PIPES:                   ");
 8000a54:	4838      	ldr	r0, [pc, #224]	; (8000b38 <oslib_test_001_003_execute+0x148>)
 8000a56:	f7ff ff7b 	bl	8000950 <test_print>
    test_printn(CH_CFG_USE_PIPES);
 8000a5a:	4628      	mov	r0, r5
 8000a5c:	f7ff ff98 	bl	8000990 <test_printn>
    test_println("");
 8000a60:	4620      	mov	r0, r4
 8000a62:	f7ff ff85 	bl	8000970 <test_println>
    test_print("--- CH_CFG_USE_OBJ_CACHES:              ");
 8000a66:	4835      	ldr	r0, [pc, #212]	; (8000b3c <oslib_test_001_003_execute+0x14c>)
 8000a68:	f7ff ff72 	bl	8000950 <test_print>
    test_printn(CH_CFG_USE_OBJ_CACHES);
 8000a6c:	4628      	mov	r0, r5
 8000a6e:	f7ff ff8f 	bl	8000990 <test_printn>
    test_println("");
 8000a72:	4620      	mov	r0, r4
 8000a74:	f7ff ff7c 	bl	8000970 <test_println>
    test_print("--- CH_CFG_USE_DELEGATES:               ");
 8000a78:	4831      	ldr	r0, [pc, #196]	; (8000b40 <oslib_test_001_003_execute+0x150>)
 8000a7a:	f7ff ff69 	bl	8000950 <test_print>
    test_printn(CH_CFG_USE_DELEGATES);
 8000a7e:	4628      	mov	r0, r5
 8000a80:	f7ff ff86 	bl	8000990 <test_printn>
    test_println("");
 8000a84:	4620      	mov	r0, r4
 8000a86:	f7ff ff73 	bl	8000970 <test_println>
    test_print("--- CH_CFG_USE_FACTORY:                 ");
 8000a8a:	482e      	ldr	r0, [pc, #184]	; (8000b44 <oslib_test_001_003_execute+0x154>)
 8000a8c:	f7ff ff60 	bl	8000950 <test_print>
    test_printn(CH_CFG_USE_FACTORY);
 8000a90:	4628      	mov	r0, r5
 8000a92:	f7ff ff7d 	bl	8000990 <test_printn>
    test_println("");
 8000a96:	4620      	mov	r0, r4
 8000a98:	f7ff ff6a 	bl	8000970 <test_println>
    test_print("--- CH_CFG_FACTORY_MAX_NAMES_LENGTH:    ");
 8000a9c:	482a      	ldr	r0, [pc, #168]	; (8000b48 <oslib_test_001_003_execute+0x158>)
 8000a9e:	f7ff ff57 	bl	8000950 <test_print>
    test_printn(CH_CFG_FACTORY_MAX_NAMES_LENGTH);
 8000aa2:	2008      	movs	r0, #8
 8000aa4:	f7ff ff74 	bl	8000990 <test_printn>
    test_println("");
 8000aa8:	4620      	mov	r0, r4
 8000aaa:	f7ff ff61 	bl	8000970 <test_println>
    test_print("--- CH_CFG_FACTORY_OBJECTS_REGISTRY:    ");
 8000aae:	4827      	ldr	r0, [pc, #156]	; (8000b4c <oslib_test_001_003_execute+0x15c>)
 8000ab0:	f7ff ff4e 	bl	8000950 <test_print>
    test_printn(CH_CFG_FACTORY_OBJECTS_REGISTRY);
 8000ab4:	4628      	mov	r0, r5
 8000ab6:	f7ff ff6b 	bl	8000990 <test_printn>
    test_println("");
 8000aba:	4620      	mov	r0, r4
 8000abc:	f7ff ff58 	bl	8000970 <test_println>
    test_print("--- CH_CFG_FACTORY_GENERIC_BUFFERS:     ");
 8000ac0:	4823      	ldr	r0, [pc, #140]	; (8000b50 <oslib_test_001_003_execute+0x160>)
 8000ac2:	f7ff ff45 	bl	8000950 <test_print>
    test_printn(CH_CFG_FACTORY_GENERIC_BUFFERS);
 8000ac6:	4628      	mov	r0, r5
 8000ac8:	f7ff ff62 	bl	8000990 <test_printn>
    test_println("");
 8000acc:	4620      	mov	r0, r4
 8000ace:	f7ff ff4f 	bl	8000970 <test_println>
    test_print("--- CH_CFG_FACTORY_SEMAPHORES:          ");
 8000ad2:	4820      	ldr	r0, [pc, #128]	; (8000b54 <oslib_test_001_003_execute+0x164>)
 8000ad4:	f7ff ff3c 	bl	8000950 <test_print>
    test_printn(CH_CFG_FACTORY_SEMAPHORES);
 8000ad8:	4628      	mov	r0, r5
 8000ada:	f7ff ff59 	bl	8000990 <test_printn>
    test_println("");
 8000ade:	4620      	mov	r0, r4
 8000ae0:	f7ff ff46 	bl	8000970 <test_println>
    test_print("--- CH_CFG_FACTORY_MAILBOXES:           ");
 8000ae4:	481c      	ldr	r0, [pc, #112]	; (8000b58 <oslib_test_001_003_execute+0x168>)
 8000ae6:	f7ff ff33 	bl	8000950 <test_print>
    test_printn(CH_CFG_FACTORY_MAILBOXES);
 8000aea:	4628      	mov	r0, r5
 8000aec:	f7ff ff50 	bl	8000990 <test_printn>
    test_println("");
 8000af0:	4620      	mov	r0, r4
 8000af2:	f7ff ff3d 	bl	8000970 <test_println>
    test_print("--- CH_CFG_FACTORY_OBJ_FIFOS:           ");
 8000af6:	4819      	ldr	r0, [pc, #100]	; (8000b5c <oslib_test_001_003_execute+0x16c>)
 8000af8:	f7ff ff2a 	bl	8000950 <test_print>
    test_printn(CH_CFG_FACTORY_OBJ_FIFOS);
 8000afc:	4628      	mov	r0, r5
 8000afe:	f7ff ff47 	bl	8000990 <test_printn>
    test_println("");
 8000b02:	4620      	mov	r0, r4
 8000b04:	f7ff ff34 	bl	8000970 <test_println>
    test_print("--- CH_CFG_FACTORY_PIPES:               ");
 8000b08:	4815      	ldr	r0, [pc, #84]	; (8000b60 <oslib_test_001_003_execute+0x170>)
 8000b0a:	f7ff ff21 	bl	8000950 <test_print>
    test_printn(CH_CFG_FACTORY_PIPES);
 8000b0e:	4628      	mov	r0, r5
 8000b10:	f7ff ff3e 	bl	8000990 <test_printn>
    test_println("");
 8000b14:	4620      	mov	r0, r4
 8000b16:	f7ff ff2b 	bl	8000970 <test_println>
  }
  test_end_step(1);
}
 8000b1a:	bd38      	pop	{r3, r4, r5, pc}
 8000b1c:	20001a7c 	.word	0x20001a7c
 8000b20:	0800b528 	.word	0x0800b528
 8000b24:	0800c894 	.word	0x0800c894
 8000b28:	0800b554 	.word	0x0800b554
 8000b2c:	0800b580 	.word	0x0800b580
 8000b30:	0800b5ac 	.word	0x0800b5ac
 8000b34:	0800b5d8 	.word	0x0800b5d8
 8000b38:	0800b604 	.word	0x0800b604
 8000b3c:	0800b630 	.word	0x0800b630
 8000b40:	0800b65c 	.word	0x0800b65c
 8000b44:	0800b688 	.word	0x0800b688
 8000b48:	0800b6b4 	.word	0x0800b6b4
 8000b4c:	0800b6e0 	.word	0x0800b6e0
 8000b50:	0800b70c 	.word	0x0800b70c
 8000b54:	0800b738 	.word	0x0800b738
 8000b58:	0800b764 	.word	0x0800b764
 8000b5c:	0800b790 	.word	0x0800b790
 8000b60:	0800b7bc 	.word	0x0800b7bc
	...

08000b70 <oslib_test_001_002_execute>:
static void oslib_test_001_002_execute(void) {
 8000b70:	b538      	push	{r3, r4, r5, lr}
  test_set_step(1);
 8000b72:	2501      	movs	r5, #1
 8000b74:	4b18      	ldr	r3, [pc, #96]	; (8000bd8 <oslib_test_001_002_execute+0x68>)
 8000b76:	601d      	str	r5, [r3, #0]
    test_println("--- Product:                            ChibiOS/LIB");
 8000b78:	4818      	ldr	r0, [pc, #96]	; (8000bdc <oslib_test_001_002_execute+0x6c>)
 8000b7a:	f7ff fef9 	bl	8000970 <test_println>
    test_print("--- Stable Flag:                        ");
 8000b7e:	4818      	ldr	r0, [pc, #96]	; (8000be0 <oslib_test_001_002_execute+0x70>)
 8000b80:	f7ff fee6 	bl	8000950 <test_print>
    test_printn(CH_OSLIB_STABLE);
 8000b84:	2000      	movs	r0, #0
 8000b86:	f7ff ff03 	bl	8000990 <test_printn>
    test_println("");
 8000b8a:	4c16      	ldr	r4, [pc, #88]	; (8000be4 <oslib_test_001_002_execute+0x74>)
 8000b8c:	4620      	mov	r0, r4
 8000b8e:	f7ff feef 	bl	8000970 <test_println>
    test_print("--- Version String:                     ");
 8000b92:	4815      	ldr	r0, [pc, #84]	; (8000be8 <oslib_test_001_002_execute+0x78>)
 8000b94:	f7ff fedc 	bl	8000950 <test_print>
    test_println(CH_OSLIB_VERSION);
 8000b98:	4814      	ldr	r0, [pc, #80]	; (8000bec <oslib_test_001_002_execute+0x7c>)
 8000b9a:	f7ff fee9 	bl	8000970 <test_println>
    test_print("--- Major Number:                       ");
 8000b9e:	4814      	ldr	r0, [pc, #80]	; (8000bf0 <oslib_test_001_002_execute+0x80>)
 8000ba0:	f7ff fed6 	bl	8000950 <test_print>
    test_printn(CH_OSLIB_MAJOR);
 8000ba4:	4628      	mov	r0, r5
 8000ba6:	f7ff fef3 	bl	8000990 <test_printn>
    test_println("");
 8000baa:	4620      	mov	r0, r4
 8000bac:	f7ff fee0 	bl	8000970 <test_println>
    test_print("--- Minor Number:                       ");
 8000bb0:	4810      	ldr	r0, [pc, #64]	; (8000bf4 <oslib_test_001_002_execute+0x84>)
 8000bb2:	f7ff fecd 	bl	8000950 <test_print>
    test_printn(CH_OSLIB_MINOR);
 8000bb6:	2002      	movs	r0, #2
 8000bb8:	f7ff feea 	bl	8000990 <test_printn>
    test_println("");
 8000bbc:	4620      	mov	r0, r4
 8000bbe:	f7ff fed7 	bl	8000970 <test_println>
    test_print("--- Patch Number:                       ");
 8000bc2:	480d      	ldr	r0, [pc, #52]	; (8000bf8 <oslib_test_001_002_execute+0x88>)
 8000bc4:	f7ff fec4 	bl	8000950 <test_print>
    test_printn(CH_OSLIB_PATCH);
 8000bc8:	2000      	movs	r0, #0
 8000bca:	f7ff fee1 	bl	8000990 <test_printn>
    test_println("");
 8000bce:	4620      	mov	r0, r4
 8000bd0:	f7ff fece 	bl	8000970 <test_println>
}
 8000bd4:	bd38      	pop	{r3, r4, r5, pc}
 8000bd6:	bf00      	nop
 8000bd8:	20001a7c 	.word	0x20001a7c
 8000bdc:	0800b7e8 	.word	0x0800b7e8
 8000be0:	0800b81c 	.word	0x0800b81c
 8000be4:	0800c894 	.word	0x0800c894
 8000be8:	0800b848 	.word	0x0800b848
 8000bec:	0800b874 	.word	0x0800b874
 8000bf0:	0800b87c 	.word	0x0800b87c
 8000bf4:	0800b8a8 	.word	0x0800b8a8
 8000bf8:	0800b8d4 	.word	0x0800b8d4
 8000bfc:	00000000 	.word	0x00000000

08000c00 <oslib_test_001_001_execute>:
static void oslib_test_001_001_execute(void) {
 8000c00:	b510      	push	{r4, lr}
  test_set_step(1);
 8000c02:	4b1c      	ldr	r3, [pc, #112]	; (8000c74 <oslib_test_001_001_execute+0x74>)
 8000c04:	2201      	movs	r2, #1
 8000c06:	601a      	str	r2, [r3, #0]
    test_print("--- Architecture:                       ");
 8000c08:	481b      	ldr	r0, [pc, #108]	; (8000c78 <oslib_test_001_001_execute+0x78>)
 8000c0a:	f7ff fea1 	bl	8000950 <test_print>
    test_println(PORT_ARCHITECTURE_NAME);
 8000c0e:	481b      	ldr	r0, [pc, #108]	; (8000c7c <oslib_test_001_001_execute+0x7c>)
 8000c10:	f7ff feae 	bl	8000970 <test_println>
    test_print("--- Core Variant:                       ");
 8000c14:	481a      	ldr	r0, [pc, #104]	; (8000c80 <oslib_test_001_001_execute+0x80>)
 8000c16:	f7ff fe9b 	bl	8000950 <test_print>
    test_println(PORT_CORE_VARIANT_NAME);
 8000c1a:	481a      	ldr	r0, [pc, #104]	; (8000c84 <oslib_test_001_001_execute+0x84>)
 8000c1c:	f7ff fea8 	bl	8000970 <test_println>
    test_print("--- Compiler:                           ");
 8000c20:	4819      	ldr	r0, [pc, #100]	; (8000c88 <oslib_test_001_001_execute+0x88>)
 8000c22:	f7ff fe95 	bl	8000950 <test_print>
    test_println(PORT_COMPILER_NAME);
 8000c26:	4819      	ldr	r0, [pc, #100]	; (8000c8c <oslib_test_001_001_execute+0x8c>)
 8000c28:	f7ff fea2 	bl	8000970 <test_println>
    test_print("--- Port Info:                          ");
 8000c2c:	4818      	ldr	r0, [pc, #96]	; (8000c90 <oslib_test_001_001_execute+0x90>)
 8000c2e:	f7ff fe8f 	bl	8000950 <test_print>
    test_println(PORT_INFO);
 8000c32:	4818      	ldr	r0, [pc, #96]	; (8000c94 <oslib_test_001_001_execute+0x94>)
 8000c34:	f7ff fe9c 	bl	8000970 <test_println>
    test_print("--- Natural alignment:                  ");
 8000c38:	4817      	ldr	r0, [pc, #92]	; (8000c98 <oslib_test_001_001_execute+0x98>)
 8000c3a:	f7ff fe89 	bl	8000950 <test_print>
    test_printn(PORT_NATURAL_ALIGN);
 8000c3e:	2004      	movs	r0, #4
 8000c40:	f7ff fea6 	bl	8000990 <test_printn>
    test_println("");
 8000c44:	4c15      	ldr	r4, [pc, #84]	; (8000c9c <oslib_test_001_001_execute+0x9c>)
 8000c46:	4620      	mov	r0, r4
 8000c48:	f7ff fe92 	bl	8000970 <test_println>
    test_print("--- Stack alignment:                    ");
 8000c4c:	4814      	ldr	r0, [pc, #80]	; (8000ca0 <oslib_test_001_001_execute+0xa0>)
 8000c4e:	f7ff fe7f 	bl	8000950 <test_print>
    test_printn(PORT_STACK_ALIGN);
 8000c52:	2008      	movs	r0, #8
 8000c54:	f7ff fe9c 	bl	8000990 <test_printn>
    test_println("");
 8000c58:	4620      	mov	r0, r4
 8000c5a:	f7ff fe89 	bl	8000970 <test_println>
    test_print("--- Working area alignment:             ");
 8000c5e:	4811      	ldr	r0, [pc, #68]	; (8000ca4 <oslib_test_001_001_execute+0xa4>)
 8000c60:	f7ff fe76 	bl	8000950 <test_print>
    test_printn(PORT_WORKING_AREA_ALIGN);
 8000c64:	2008      	movs	r0, #8
 8000c66:	f7ff fe93 	bl	8000990 <test_printn>
    test_println("");
 8000c6a:	4620      	mov	r0, r4
 8000c6c:	f7ff fe80 	bl	8000970 <test_println>
}
 8000c70:	bd10      	pop	{r4, pc}
 8000c72:	bf00      	nop
 8000c74:	20001a7c 	.word	0x20001a7c
 8000c78:	0800b900 	.word	0x0800b900
 8000c7c:	0800b92c 	.word	0x0800b92c
 8000c80:	0800b938 	.word	0x0800b938
 8000c84:	0800b964 	.word	0x0800b964
 8000c88:	0800b970 	.word	0x0800b970
 8000c8c:	0800b99c 	.word	0x0800b99c
 8000c90:	0800b9a8 	.word	0x0800b9a8
 8000c94:	0800b9d4 	.word	0x0800b9d4
 8000c98:	0800b9ec 	.word	0x0800b9ec
 8000c9c:	0800c894 	.word	0x0800c894
 8000ca0:	0800ba18 	.word	0x0800ba18
 8000ca4:	0800ba44 	.word	0x0800ba44
	...

08000cb0 <rt_test_011_012_execute>:
 * - [11.12.8] The size of an event listener is printed.
 * - [11.12.9] The size of a mailbox is printed.
 * .
 */

static void rt_test_011_012_execute(void) {
 8000cb0:	b570      	push	{r4, r5, r6, lr}

  /* [11.12.1] The size of the system area is printed.*/
  test_set_step(1);
 8000cb2:	4d33      	ldr	r5, [pc, #204]	; (8000d80 <rt_test_011_012_execute+0xd0>)
 8000cb4:	2301      	movs	r3, #1
 8000cb6:	602b      	str	r3, [r5, #0]
  {
    test_print("--- System: ");
 8000cb8:	4832      	ldr	r0, [pc, #200]	; (8000d84 <rt_test_011_012_execute+0xd4>)
 8000cba:	f7ff fe49 	bl	8000950 <test_print>
    test_printn(sizeof(ch_system_t));
 8000cbe:	2078      	movs	r0, #120	; 0x78
 8000cc0:	f7ff fe66 	bl	8000990 <test_printn>
    test_println(" bytes");
 8000cc4:	4c30      	ldr	r4, [pc, #192]	; (8000d88 <rt_test_011_012_execute+0xd8>)
 8000cc6:	4620      	mov	r0, r4
 8000cc8:	f7ff fe52 	bl	8000970 <test_println>
  }
  test_end_step(1);

  /* [11.12.2] The size of a thread structure is printed.*/
  test_set_step(2);
 8000ccc:	2302      	movs	r3, #2
 8000cce:	602b      	str	r3, [r5, #0]
  {
    test_print("--- Thread: ");
 8000cd0:	482e      	ldr	r0, [pc, #184]	; (8000d8c <rt_test_011_012_execute+0xdc>)
 8000cd2:	f7ff fe3d 	bl	8000950 <test_print>
    test_printn(sizeof(thread_t));
 8000cd6:	2044      	movs	r0, #68	; 0x44
 8000cd8:	f7ff fe5a 	bl	8000990 <test_printn>
    test_println(" bytes");
 8000cdc:	4620      	mov	r0, r4
 8000cde:	f7ff fe47 	bl	8000970 <test_println>
  }
  test_end_step(2);

  /* [11.12.3] The size of a virtual timer structure is printed.*/
  test_set_step(3);
 8000ce2:	2303      	movs	r3, #3
 8000ce4:	602b      	str	r3, [r5, #0]
  {
    test_print("--- Timer : ");
 8000ce6:	482a      	ldr	r0, [pc, #168]	; (8000d90 <rt_test_011_012_execute+0xe0>)
 8000ce8:	f7ff fe32 	bl	8000950 <test_print>
    test_printn(sizeof(virtual_timer_t));
 8000cec:	2014      	movs	r0, #20
 8000cee:	f7ff fe4f 	bl	8000990 <test_printn>
    test_println(" bytes");
 8000cf2:	4620      	mov	r0, r4
 8000cf4:	f7ff fe3c 	bl	8000970 <test_println>
  }
  test_end_step(3);

  /* [11.12.4] The size of a semaphore structure is printed.*/
  test_set_step(4);
 8000cf8:	2604      	movs	r6, #4
 8000cfa:	602e      	str	r6, [r5, #0]
  {
#if CH_CFG_USE_SEMAPHORES || defined(__DOXYGEN__)
    test_print("--- Semaph: ");
 8000cfc:	4825      	ldr	r0, [pc, #148]	; (8000d94 <rt_test_011_012_execute+0xe4>)
 8000cfe:	f7ff fe27 	bl	8000950 <test_print>
    test_printn(sizeof(semaphore_t));
 8000d02:	200c      	movs	r0, #12
 8000d04:	f7ff fe44 	bl	8000990 <test_printn>
    test_println(" bytes");
 8000d08:	4620      	mov	r0, r4
 8000d0a:	f7ff fe31 	bl	8000970 <test_println>
#endif
  }
  test_end_step(4);

  /* [11.12.5] The size of a mutex is printed.*/
  test_set_step(5);
 8000d0e:	2305      	movs	r3, #5
 8000d10:	602b      	str	r3, [r5, #0]
  {
#if CH_CFG_USE_MUTEXES || defined(__DOXYGEN__)
    test_print("--- Mutex : ");
 8000d12:	4821      	ldr	r0, [pc, #132]	; (8000d98 <rt_test_011_012_execute+0xe8>)
 8000d14:	f7ff fe1c 	bl	8000950 <test_print>
    test_printn(sizeof(mutex_t));
 8000d18:	2010      	movs	r0, #16
 8000d1a:	f7ff fe39 	bl	8000990 <test_printn>
    test_println(" bytes");
 8000d1e:	4620      	mov	r0, r4
 8000d20:	f7ff fe26 	bl	8000970 <test_println>
#endif
  }
  test_end_step(5);

  /* [11.12.6] The size of a condition variable is printed.*/
  test_set_step(6);
 8000d24:	2306      	movs	r3, #6
 8000d26:	602b      	str	r3, [r5, #0]
  {
#if CH_CFG_USE_CONDVARS || defined(__DOXYGEN__)
    test_print("--- CondV.: ");
 8000d28:	481c      	ldr	r0, [pc, #112]	; (8000d9c <rt_test_011_012_execute+0xec>)
 8000d2a:	f7ff fe11 	bl	8000950 <test_print>
    test_printn(sizeof(condition_variable_t));
 8000d2e:	2008      	movs	r0, #8
 8000d30:	f7ff fe2e 	bl	8000990 <test_printn>
    test_println(" bytes");
 8000d34:	4620      	mov	r0, r4
 8000d36:	f7ff fe1b 	bl	8000970 <test_println>
#endif
  }
  test_end_step(6);

  /* [11.12.7] The size of an event source is printed.*/
  test_set_step(7);
 8000d3a:	2307      	movs	r3, #7
 8000d3c:	602b      	str	r3, [r5, #0]
  {
#if CH_CFG_USE_EVENTS || defined(__DOXYGEN__)
    test_print("--- EventS: ");
 8000d3e:	4818      	ldr	r0, [pc, #96]	; (8000da0 <rt_test_011_012_execute+0xf0>)
 8000d40:	f7ff fe06 	bl	8000950 <test_print>
    test_printn(sizeof(event_source_t));
 8000d44:	4630      	mov	r0, r6
 8000d46:	f7ff fe23 	bl	8000990 <test_printn>
    test_println(" bytes");
 8000d4a:	4620      	mov	r0, r4
 8000d4c:	f7ff fe10 	bl	8000970 <test_println>
#endif
  }
  test_end_step(7);

  /* [11.12.8] The size of an event listener is printed.*/
  test_set_step(8);
 8000d50:	2308      	movs	r3, #8
 8000d52:	602b      	str	r3, [r5, #0]
  {
#if CH_CFG_USE_EVENTS || defined(__DOXYGEN__)
    test_print("--- EventL: ");
 8000d54:	4813      	ldr	r0, [pc, #76]	; (8000da4 <rt_test_011_012_execute+0xf4>)
 8000d56:	f7ff fdfb 	bl	8000950 <test_print>
    test_printn(sizeof(event_listener_t));
 8000d5a:	2014      	movs	r0, #20
 8000d5c:	f7ff fe18 	bl	8000990 <test_printn>
    test_println(" bytes");
 8000d60:	4620      	mov	r0, r4
 8000d62:	f7ff fe05 	bl	8000970 <test_println>
#endif
  }
  test_end_step(8);

  /* [11.12.9] The size of a mailbox is printed.*/
  test_set_step(9);
 8000d66:	2309      	movs	r3, #9
 8000d68:	602b      	str	r3, [r5, #0]
  {
#if CH_CFG_USE_MAILBOXES || defined(__DOXYGEN__)
    test_print("--- MailB.: ");
 8000d6a:	480f      	ldr	r0, [pc, #60]	; (8000da8 <rt_test_011_012_execute+0xf8>)
 8000d6c:	f7ff fdf0 	bl	8000950 <test_print>
    test_printn(sizeof(mailbox_t));
 8000d70:	2028      	movs	r0, #40	; 0x28
 8000d72:	f7ff fe0d 	bl	8000990 <test_printn>
    test_println(" bytes");
 8000d76:	4620      	mov	r0, r4
 8000d78:	f7ff fdfa 	bl	8000970 <test_println>
#endif
  }
  test_end_step(9);
}
 8000d7c:	bd70      	pop	{r4, r5, r6, pc}
 8000d7e:	bf00      	nop
 8000d80:	20001a7c 	.word	0x20001a7c
 8000d84:	0800ba70 	.word	0x0800ba70
 8000d88:	0800ba80 	.word	0x0800ba80
 8000d8c:	0800ba88 	.word	0x0800ba88
 8000d90:	0800ba98 	.word	0x0800ba98
 8000d94:	0800baa8 	.word	0x0800baa8
 8000d98:	0800bab8 	.word	0x0800bab8
 8000d9c:	0800bac8 	.word	0x0800bac8
 8000da0:	0800bad8 	.word	0x0800bad8
 8000da4:	0800bae8 	.word	0x0800bae8
 8000da8:	0800baf8 	.word	0x0800baf8
 8000dac:	00000000 	.word	0x00000000

08000db0 <rt_test_001_003_execute>:
 * <h2>Test Steps</h2>
 * - [1.3.1] Prints the configuration options settings.
 * .
 */

static void rt_test_001_003_execute(void) {
 8000db0:	b538      	push	{r3, r4, r5, lr}

  /* [1.3.1] Prints the configuration options settings.*/
  test_set_step(1);
 8000db2:	2501      	movs	r5, #1
 8000db4:	4b92      	ldr	r3, [pc, #584]	; (8001000 <rt_test_001_003_execute+0x250>)
 8000db6:	601d      	str	r5, [r3, #0]
  {
    test_print("--- CH_CFG_ST_RESOLUTION:               ");
 8000db8:	4892      	ldr	r0, [pc, #584]	; (8001004 <rt_test_001_003_execute+0x254>)
 8000dba:	f7ff fdc9 	bl	8000950 <test_print>
    test_printn(CH_CFG_ST_RESOLUTION);
 8000dbe:	2020      	movs	r0, #32
 8000dc0:	f7ff fde6 	bl	8000990 <test_printn>
    test_println("");
 8000dc4:	4c90      	ldr	r4, [pc, #576]	; (8001008 <rt_test_001_003_execute+0x258>)
 8000dc6:	4620      	mov	r0, r4
 8000dc8:	f7ff fdd2 	bl	8000970 <test_println>
    test_print("--- CH_CFG_ST_FREQUENCY:                ");
 8000dcc:	488f      	ldr	r0, [pc, #572]	; (800100c <rt_test_001_003_execute+0x25c>)
 8000dce:	f7ff fdbf 	bl	8000950 <test_print>
    test_printn(CH_CFG_ST_FREQUENCY);
 8000dd2:	f242 7010 	movw	r0, #10000	; 0x2710
 8000dd6:	f7ff fddb 	bl	8000990 <test_printn>
    test_println("");
 8000dda:	4620      	mov	r0, r4
 8000ddc:	f7ff fdc8 	bl	8000970 <test_println>
    test_print("--- CH_CFG_INTERVALS_SIZE:              ");
 8000de0:	488b      	ldr	r0, [pc, #556]	; (8001010 <rt_test_001_003_execute+0x260>)
 8000de2:	f7ff fdb5 	bl	8000950 <test_print>
    test_printn(CH_CFG_INTERVALS_SIZE);
 8000de6:	2020      	movs	r0, #32
 8000de8:	f7ff fdd2 	bl	8000990 <test_printn>
    test_println("");
 8000dec:	4620      	mov	r0, r4
 8000dee:	f7ff fdbf 	bl	8000970 <test_println>
    test_print("--- CH_CFG_TIME_TYPES_SIZE:             ");
 8000df2:	4888      	ldr	r0, [pc, #544]	; (8001014 <rt_test_001_003_execute+0x264>)
 8000df4:	f7ff fdac 	bl	8000950 <test_print>
    test_printn(CH_CFG_TIME_TYPES_SIZE);
 8000df8:	2020      	movs	r0, #32
 8000dfa:	f7ff fdc9 	bl	8000990 <test_printn>
    test_println("");
 8000dfe:	4620      	mov	r0, r4
 8000e00:	f7ff fdb6 	bl	8000970 <test_println>
    test_print("--- CH_CFG_ST_TIMEDELTA:                ");
 8000e04:	4884      	ldr	r0, [pc, #528]	; (8001018 <rt_test_001_003_execute+0x268>)
 8000e06:	f7ff fda3 	bl	8000950 <test_print>
    test_printn(CH_CFG_ST_TIMEDELTA);
 8000e0a:	2002      	movs	r0, #2
 8000e0c:	f7ff fdc0 	bl	8000990 <test_printn>
    test_println("");
 8000e10:	4620      	mov	r0, r4
 8000e12:	f7ff fdad 	bl	8000970 <test_println>
    test_print("--- CH_CFG_TIME_QUANTUM:                ");
 8000e16:	4881      	ldr	r0, [pc, #516]	; (800101c <rt_test_001_003_execute+0x26c>)
 8000e18:	f7ff fd9a 	bl	8000950 <test_print>
    test_printn(CH_CFG_TIME_QUANTUM);
 8000e1c:	2000      	movs	r0, #0
 8000e1e:	f7ff fdb7 	bl	8000990 <test_printn>
    test_println("");
 8000e22:	4620      	mov	r0, r4
 8000e24:	f7ff fda4 	bl	8000970 <test_println>
    test_print("--- CH_CFG_MEMCORE_SIZE:                ");
 8000e28:	487d      	ldr	r0, [pc, #500]	; (8001020 <rt_test_001_003_execute+0x270>)
 8000e2a:	f7ff fd91 	bl	8000950 <test_print>
    test_printn(CH_CFG_MEMCORE_SIZE);
 8000e2e:	2000      	movs	r0, #0
 8000e30:	f7ff fdae 	bl	8000990 <test_printn>
    test_println("");
 8000e34:	4620      	mov	r0, r4
 8000e36:	f7ff fd9b 	bl	8000970 <test_println>
    test_print("--- CH_CFG_NO_IDLE_THREAD:              ");
 8000e3a:	487a      	ldr	r0, [pc, #488]	; (8001024 <rt_test_001_003_execute+0x274>)
 8000e3c:	f7ff fd88 	bl	8000950 <test_print>
    test_printn(CH_CFG_NO_IDLE_THREAD);
 8000e40:	2000      	movs	r0, #0
 8000e42:	f7ff fda5 	bl	8000990 <test_printn>
    test_println("");
 8000e46:	4620      	mov	r0, r4
 8000e48:	f7ff fd92 	bl	8000970 <test_println>
    test_print("--- CH_CFG_OPTIMIZE_SPEED:              ");
 8000e4c:	4876      	ldr	r0, [pc, #472]	; (8001028 <rt_test_001_003_execute+0x278>)
 8000e4e:	f7ff fd7f 	bl	8000950 <test_print>
    test_printn(CH_CFG_OPTIMIZE_SPEED);
 8000e52:	4628      	mov	r0, r5
 8000e54:	f7ff fd9c 	bl	8000990 <test_printn>
    test_println("");
 8000e58:	4620      	mov	r0, r4
 8000e5a:	f7ff fd89 	bl	8000970 <test_println>
    test_print("--- CH_CFG_USE_TM:                      ");
 8000e5e:	4873      	ldr	r0, [pc, #460]	; (800102c <rt_test_001_003_execute+0x27c>)
 8000e60:	f7ff fd76 	bl	8000950 <test_print>
    test_printn(CH_CFG_USE_TM);
 8000e64:	4628      	mov	r0, r5
 8000e66:	f7ff fd93 	bl	8000990 <test_printn>
    test_println("");
 8000e6a:	4620      	mov	r0, r4
 8000e6c:	f7ff fd80 	bl	8000970 <test_println>
    test_print("--- CH_CFG_USE_REGISTRY:                ");
 8000e70:	486f      	ldr	r0, [pc, #444]	; (8001030 <rt_test_001_003_execute+0x280>)
 8000e72:	f7ff fd6d 	bl	8000950 <test_print>
    test_printn(CH_CFG_USE_REGISTRY);
 8000e76:	4628      	mov	r0, r5
 8000e78:	f7ff fd8a 	bl	8000990 <test_printn>
    test_println("");
 8000e7c:	4620      	mov	r0, r4
 8000e7e:	f7ff fd77 	bl	8000970 <test_println>
    test_print("--- CH_CFG_USE_WAITEXIT:                ");
 8000e82:	486c      	ldr	r0, [pc, #432]	; (8001034 <rt_test_001_003_execute+0x284>)
 8000e84:	f7ff fd64 	bl	8000950 <test_print>
    test_printn(CH_CFG_USE_WAITEXIT);
 8000e88:	4628      	mov	r0, r5
 8000e8a:	f7ff fd81 	bl	8000990 <test_printn>
    test_println("");
 8000e8e:	4620      	mov	r0, r4
 8000e90:	f7ff fd6e 	bl	8000970 <test_println>
    test_print("--- CH_CFG_USE_SEMAPHORES:              ");
 8000e94:	4868      	ldr	r0, [pc, #416]	; (8001038 <rt_test_001_003_execute+0x288>)
 8000e96:	f7ff fd5b 	bl	8000950 <test_print>
    test_printn(CH_CFG_USE_SEMAPHORES);
 8000e9a:	4628      	mov	r0, r5
 8000e9c:	f7ff fd78 	bl	8000990 <test_printn>
    test_println("");
 8000ea0:	4620      	mov	r0, r4
 8000ea2:	f7ff fd65 	bl	8000970 <test_println>
    test_print("--- CH_CFG_USE_SEMAPHORES_PRIORITY:     ");
 8000ea6:	4865      	ldr	r0, [pc, #404]	; (800103c <rt_test_001_003_execute+0x28c>)
 8000ea8:	f7ff fd52 	bl	8000950 <test_print>
    test_printn(CH_CFG_USE_SEMAPHORES_PRIORITY);
 8000eac:	2000      	movs	r0, #0
 8000eae:	f7ff fd6f 	bl	8000990 <test_printn>
    test_println("");
 8000eb2:	4620      	mov	r0, r4
 8000eb4:	f7ff fd5c 	bl	8000970 <test_println>
    test_print("--- CH_CFG_USE_MUTEXES:                 ");
 8000eb8:	4861      	ldr	r0, [pc, #388]	; (8001040 <rt_test_001_003_execute+0x290>)
 8000eba:	f7ff fd49 	bl	8000950 <test_print>
    test_printn(CH_CFG_USE_MUTEXES);
 8000ebe:	4628      	mov	r0, r5
 8000ec0:	f7ff fd66 	bl	8000990 <test_printn>
    test_println("");
 8000ec4:	4620      	mov	r0, r4
 8000ec6:	f7ff fd53 	bl	8000970 <test_println>
    test_print("--- CH_CFG_USE_MUTEXES_RECURSIVE:       ");
 8000eca:	485e      	ldr	r0, [pc, #376]	; (8001044 <rt_test_001_003_execute+0x294>)
 8000ecc:	f7ff fd40 	bl	8000950 <test_print>
    test_printn(CH_CFG_USE_MUTEXES_RECURSIVE);
 8000ed0:	2000      	movs	r0, #0
 8000ed2:	f7ff fd5d 	bl	8000990 <test_printn>
    test_println("");   
 8000ed6:	4620      	mov	r0, r4
 8000ed8:	f7ff fd4a 	bl	8000970 <test_println>
    test_print("--- CH_CFG_USE_CONDVARS:                ");
 8000edc:	485a      	ldr	r0, [pc, #360]	; (8001048 <rt_test_001_003_execute+0x298>)
 8000ede:	f7ff fd37 	bl	8000950 <test_print>
    test_printn(CH_CFG_USE_CONDVARS);
 8000ee2:	4628      	mov	r0, r5
 8000ee4:	f7ff fd54 	bl	8000990 <test_printn>
    test_println("");
 8000ee8:	4620      	mov	r0, r4
 8000eea:	f7ff fd41 	bl	8000970 <test_println>
    test_print("--- CH_CFG_USE_CONDVARS_TIMEOUT:        ");
 8000eee:	4857      	ldr	r0, [pc, #348]	; (800104c <rt_test_001_003_execute+0x29c>)
 8000ef0:	f7ff fd2e 	bl	8000950 <test_print>
    test_printn(CH_CFG_USE_CONDVARS_TIMEOUT);
 8000ef4:	4628      	mov	r0, r5
 8000ef6:	f7ff fd4b 	bl	8000990 <test_printn>
    test_println("");
 8000efa:	4620      	mov	r0, r4
 8000efc:	f7ff fd38 	bl	8000970 <test_println>
    test_print("--- CH_CFG_USE_EVENTS:                  ");
 8000f00:	4853      	ldr	r0, [pc, #332]	; (8001050 <rt_test_001_003_execute+0x2a0>)
 8000f02:	f7ff fd25 	bl	8000950 <test_print>
    test_printn(CH_CFG_USE_EVENTS);
 8000f06:	4628      	mov	r0, r5
 8000f08:	f7ff fd42 	bl	8000990 <test_printn>
    test_println("");
 8000f0c:	4620      	mov	r0, r4
 8000f0e:	f7ff fd2f 	bl	8000970 <test_println>
    test_print("--- CH_CFG_USE_EVENTS_TIMEOUT:          ");
 8000f12:	4850      	ldr	r0, [pc, #320]	; (8001054 <rt_test_001_003_execute+0x2a4>)
 8000f14:	f7ff fd1c 	bl	8000950 <test_print>
    test_printn(CH_CFG_USE_EVENTS_TIMEOUT);
 8000f18:	4628      	mov	r0, r5
 8000f1a:	f7ff fd39 	bl	8000990 <test_printn>
    test_println("");
 8000f1e:	4620      	mov	r0, r4
 8000f20:	f7ff fd26 	bl	8000970 <test_println>
    test_print("--- CH_CFG_USE_MESSAGES:                ");
 8000f24:	484c      	ldr	r0, [pc, #304]	; (8001058 <rt_test_001_003_execute+0x2a8>)
 8000f26:	f7ff fd13 	bl	8000950 <test_print>
    test_printn(CH_CFG_USE_MESSAGES);
 8000f2a:	4628      	mov	r0, r5
 8000f2c:	f7ff fd30 	bl	8000990 <test_printn>
    test_println("");
 8000f30:	4620      	mov	r0, r4
 8000f32:	f7ff fd1d 	bl	8000970 <test_println>
    test_print("--- CH_CFG_USE_MESSAGES_PRIORITY:       ");
 8000f36:	4849      	ldr	r0, [pc, #292]	; (800105c <rt_test_001_003_execute+0x2ac>)
 8000f38:	f7ff fd0a 	bl	8000950 <test_print>
    test_printn(CH_CFG_USE_MESSAGES_PRIORITY);
 8000f3c:	2000      	movs	r0, #0
 8000f3e:	f7ff fd27 	bl	8000990 <test_printn>
    test_println("");
 8000f42:	4620      	mov	r0, r4
 8000f44:	f7ff fd14 	bl	8000970 <test_println>
    test_print("--- CH_CFG_USE_DYNAMIC:                 ");
 8000f48:	4845      	ldr	r0, [pc, #276]	; (8001060 <rt_test_001_003_execute+0x2b0>)
 8000f4a:	f7ff fd01 	bl	8000950 <test_print>
    test_printn(CH_CFG_USE_DYNAMIC);
 8000f4e:	4628      	mov	r0, r5
 8000f50:	f7ff fd1e 	bl	8000990 <test_printn>
    test_println("");
 8000f54:	4620      	mov	r0, r4
 8000f56:	f7ff fd0b 	bl	8000970 <test_println>
    test_print("--- CH_DBG_STATISTICS:                  ");
 8000f5a:	4842      	ldr	r0, [pc, #264]	; (8001064 <rt_test_001_003_execute+0x2b4>)
 8000f5c:	f7ff fcf8 	bl	8000950 <test_print>
    test_printn(CH_DBG_STATISTICS);
 8000f60:	2000      	movs	r0, #0
 8000f62:	f7ff fd15 	bl	8000990 <test_printn>
    test_println("");
 8000f66:	4620      	mov	r0, r4
 8000f68:	f7ff fd02 	bl	8000970 <test_println>
    test_print("--- CH_DBG_SYSTEM_STATE_CHECK:          ");
 8000f6c:	483e      	ldr	r0, [pc, #248]	; (8001068 <rt_test_001_003_execute+0x2b8>)
 8000f6e:	f7ff fcef 	bl	8000950 <test_print>
    test_printn(CH_DBG_SYSTEM_STATE_CHECK);
 8000f72:	2000      	movs	r0, #0
 8000f74:	f7ff fd0c 	bl	8000990 <test_printn>
    test_println("");
 8000f78:	4620      	mov	r0, r4
 8000f7a:	f7ff fcf9 	bl	8000970 <test_println>
    test_print("--- CH_DBG_ENABLE_CHECKS:               ");
 8000f7e:	483b      	ldr	r0, [pc, #236]	; (800106c <rt_test_001_003_execute+0x2bc>)
 8000f80:	f7ff fce6 	bl	8000950 <test_print>
    test_printn(CH_DBG_ENABLE_CHECKS);
 8000f84:	2000      	movs	r0, #0
 8000f86:	f7ff fd03 	bl	8000990 <test_printn>
    test_println("");
 8000f8a:	4620      	mov	r0, r4
 8000f8c:	f7ff fcf0 	bl	8000970 <test_println>
    test_print("--- CH_DBG_ENABLE_ASSERTS:              ");
 8000f90:	4837      	ldr	r0, [pc, #220]	; (8001070 <rt_test_001_003_execute+0x2c0>)
 8000f92:	f7ff fcdd 	bl	8000950 <test_print>
    test_printn(CH_DBG_ENABLE_ASSERTS);
 8000f96:	2000      	movs	r0, #0
 8000f98:	f7ff fcfa 	bl	8000990 <test_printn>
    test_println("");
 8000f9c:	4620      	mov	r0, r4
 8000f9e:	f7ff fce7 	bl	8000970 <test_println>
    test_print("--- CH_DBG_TRACE_MASK:                  ");
 8000fa2:	4834      	ldr	r0, [pc, #208]	; (8001074 <rt_test_001_003_execute+0x2c4>)
 8000fa4:	f7ff fcd4 	bl	8000950 <test_print>
    test_printn(CH_DBG_TRACE_MASK);
 8000fa8:	20ff      	movs	r0, #255	; 0xff
 8000faa:	f7ff fcf1 	bl	8000990 <test_printn>
    test_println("");
 8000fae:	4620      	mov	r0, r4
 8000fb0:	f7ff fcde 	bl	8000970 <test_println>
    test_print("--- CH_DBG_TRACE_BUFFER_SIZE:           ");
 8000fb4:	4830      	ldr	r0, [pc, #192]	; (8001078 <rt_test_001_003_execute+0x2c8>)
 8000fb6:	f7ff fccb 	bl	8000950 <test_print>
    test_printn(CH_DBG_TRACE_BUFFER_SIZE);
 8000fba:	2080      	movs	r0, #128	; 0x80
 8000fbc:	f7ff fce8 	bl	8000990 <test_printn>
    test_println("");
 8000fc0:	4620      	mov	r0, r4
 8000fc2:	f7ff fcd5 	bl	8000970 <test_println>
    test_print("--- CH_DBG_ENABLE_STACK_CHECK:          ");
 8000fc6:	482d      	ldr	r0, [pc, #180]	; (800107c <rt_test_001_003_execute+0x2cc>)
 8000fc8:	f7ff fcc2 	bl	8000950 <test_print>
    test_printn(CH_DBG_ENABLE_STACK_CHECK);
 8000fcc:	2000      	movs	r0, #0
 8000fce:	f7ff fcdf 	bl	8000990 <test_printn>
    test_println("");
 8000fd2:	4620      	mov	r0, r4
 8000fd4:	f7ff fccc 	bl	8000970 <test_println>
    test_print("--- CH_DBG_FILL_THREADS:                ");
 8000fd8:	4829      	ldr	r0, [pc, #164]	; (8001080 <rt_test_001_003_execute+0x2d0>)
 8000fda:	f7ff fcb9 	bl	8000950 <test_print>
    test_printn(CH_DBG_FILL_THREADS);
 8000fde:	2000      	movs	r0, #0
 8000fe0:	f7ff fcd6 	bl	8000990 <test_printn>
    test_println("");
 8000fe4:	4620      	mov	r0, r4
 8000fe6:	f7ff fcc3 	bl	8000970 <test_println>
    test_print("--- CH_DBG_THREADS_PROFILING:           ");
 8000fea:	4826      	ldr	r0, [pc, #152]	; (8001084 <rt_test_001_003_execute+0x2d4>)
 8000fec:	f7ff fcb0 	bl	8000950 <test_print>
    test_printn(CH_DBG_THREADS_PROFILING);
 8000ff0:	2000      	movs	r0, #0
 8000ff2:	f7ff fccd 	bl	8000990 <test_printn>
    test_println("");
 8000ff6:	4620      	mov	r0, r4
 8000ff8:	f7ff fcba 	bl	8000970 <test_println>
  }
  test_end_step(1);
}
 8000ffc:	bd38      	pop	{r3, r4, r5, pc}
 8000ffe:	bf00      	nop
 8001000:	20001a7c 	.word	0x20001a7c
 8001004:	0800bb08 	.word	0x0800bb08
 8001008:	0800c894 	.word	0x0800c894
 800100c:	0800bb34 	.word	0x0800bb34
 8001010:	0800bb60 	.word	0x0800bb60
 8001014:	0800bb8c 	.word	0x0800bb8c
 8001018:	0800bbb8 	.word	0x0800bbb8
 800101c:	0800bbe4 	.word	0x0800bbe4
 8001020:	0800bc10 	.word	0x0800bc10
 8001024:	0800bc3c 	.word	0x0800bc3c
 8001028:	0800bc68 	.word	0x0800bc68
 800102c:	0800bc94 	.word	0x0800bc94
 8001030:	0800bcc0 	.word	0x0800bcc0
 8001034:	0800bcec 	.word	0x0800bcec
 8001038:	0800bd18 	.word	0x0800bd18
 800103c:	0800bd44 	.word	0x0800bd44
 8001040:	0800bd70 	.word	0x0800bd70
 8001044:	0800bd9c 	.word	0x0800bd9c
 8001048:	0800bdc8 	.word	0x0800bdc8
 800104c:	0800bdf4 	.word	0x0800bdf4
 8001050:	0800be20 	.word	0x0800be20
 8001054:	0800be4c 	.word	0x0800be4c
 8001058:	0800be78 	.word	0x0800be78
 800105c:	0800bea4 	.word	0x0800bea4
 8001060:	0800bed0 	.word	0x0800bed0
 8001064:	0800befc 	.word	0x0800befc
 8001068:	0800bf28 	.word	0x0800bf28
 800106c:	0800bf54 	.word	0x0800bf54
 8001070:	0800bf80 	.word	0x0800bf80
 8001074:	0800bfac 	.word	0x0800bfac
 8001078:	0800bfd8 	.word	0x0800bfd8
 800107c:	0800c004 	.word	0x0800c004
 8001080:	0800c030 	.word	0x0800c030
 8001084:	0800c05c 	.word	0x0800c05c
	...

08001090 <rt_test_001_002_execute>:
static void rt_test_001_002_execute(void) {
 8001090:	b538      	push	{r3, r4, r5, lr}
  test_set_step(1);
 8001092:	2501      	movs	r5, #1
 8001094:	4b18      	ldr	r3, [pc, #96]	; (80010f8 <rt_test_001_002_execute+0x68>)
 8001096:	601d      	str	r5, [r3, #0]
    test_println("--- Product:                            ChibiOS/RT");
 8001098:	4818      	ldr	r0, [pc, #96]	; (80010fc <rt_test_001_002_execute+0x6c>)
 800109a:	f7ff fc69 	bl	8000970 <test_println>
    test_print("--- Stable Flag:                        ");
 800109e:	4818      	ldr	r0, [pc, #96]	; (8001100 <rt_test_001_002_execute+0x70>)
 80010a0:	f7ff fc56 	bl	8000950 <test_print>
    test_printn(CH_KERNEL_STABLE);
 80010a4:	2000      	movs	r0, #0
 80010a6:	f7ff fc73 	bl	8000990 <test_printn>
    test_println("");
 80010aa:	4c16      	ldr	r4, [pc, #88]	; (8001104 <rt_test_001_002_execute+0x74>)
 80010ac:	4620      	mov	r0, r4
 80010ae:	f7ff fc5f 	bl	8000970 <test_println>
    test_print("--- Version String:                     ");
 80010b2:	4815      	ldr	r0, [pc, #84]	; (8001108 <rt_test_001_002_execute+0x78>)
 80010b4:	f7ff fc4c 	bl	8000950 <test_print>
    test_println(CH_KERNEL_VERSION);
 80010b8:	4814      	ldr	r0, [pc, #80]	; (800110c <rt_test_001_002_execute+0x7c>)
 80010ba:	f7ff fc59 	bl	8000970 <test_println>
    test_print("--- Major Number:                       ");
 80010be:	4814      	ldr	r0, [pc, #80]	; (8001110 <rt_test_001_002_execute+0x80>)
 80010c0:	f7ff fc46 	bl	8000950 <test_print>
    test_printn(CH_KERNEL_MAJOR);
 80010c4:	2006      	movs	r0, #6
 80010c6:	f7ff fc63 	bl	8000990 <test_printn>
    test_println("");
 80010ca:	4620      	mov	r0, r4
 80010cc:	f7ff fc50 	bl	8000970 <test_println>
    test_print("--- Minor Number:                       ");
 80010d0:	4810      	ldr	r0, [pc, #64]	; (8001114 <rt_test_001_002_execute+0x84>)
 80010d2:	f7ff fc3d 	bl	8000950 <test_print>
    test_printn(CH_KERNEL_MINOR);
 80010d6:	4628      	mov	r0, r5
 80010d8:	f7ff fc5a 	bl	8000990 <test_printn>
    test_println("");
 80010dc:	4620      	mov	r0, r4
 80010de:	f7ff fc47 	bl	8000970 <test_println>
    test_print("--- Patch Number:                       ");
 80010e2:	480d      	ldr	r0, [pc, #52]	; (8001118 <rt_test_001_002_execute+0x88>)
 80010e4:	f7ff fc34 	bl	8000950 <test_print>
    test_printn(CH_KERNEL_PATCH);
 80010e8:	2000      	movs	r0, #0
 80010ea:	f7ff fc51 	bl	8000990 <test_printn>
    test_println("");
 80010ee:	4620      	mov	r0, r4
 80010f0:	f7ff fc3e 	bl	8000970 <test_println>
}
 80010f4:	bd38      	pop	{r3, r4, r5, pc}
 80010f6:	bf00      	nop
 80010f8:	20001a7c 	.word	0x20001a7c
 80010fc:	0800c088 	.word	0x0800c088
 8001100:	0800b81c 	.word	0x0800b81c
 8001104:	0800c894 	.word	0x0800c894
 8001108:	0800b848 	.word	0x0800b848
 800110c:	0800c0bc 	.word	0x0800c0bc
 8001110:	0800b87c 	.word	0x0800b87c
 8001114:	0800b8a8 	.word	0x0800b8a8
 8001118:	0800b8d4 	.word	0x0800b8d4
 800111c:	00000000 	.word	0x00000000

08001120 <rt_test_001_001_execute>:
static void rt_test_001_001_execute(void) {
 8001120:	b510      	push	{r4, lr}
  test_set_step(1);
 8001122:	4b1c      	ldr	r3, [pc, #112]	; (8001194 <rt_test_001_001_execute+0x74>)
 8001124:	2201      	movs	r2, #1
 8001126:	601a      	str	r2, [r3, #0]
    test_print("--- Architecture:                       ");
 8001128:	481b      	ldr	r0, [pc, #108]	; (8001198 <rt_test_001_001_execute+0x78>)
 800112a:	f7ff fc11 	bl	8000950 <test_print>
    test_println(PORT_ARCHITECTURE_NAME);
 800112e:	481b      	ldr	r0, [pc, #108]	; (800119c <rt_test_001_001_execute+0x7c>)
 8001130:	f7ff fc1e 	bl	8000970 <test_println>
    test_print("--- Core Variant:                       ");
 8001134:	481a      	ldr	r0, [pc, #104]	; (80011a0 <rt_test_001_001_execute+0x80>)
 8001136:	f7ff fc0b 	bl	8000950 <test_print>
    test_println(PORT_CORE_VARIANT_NAME);
 800113a:	481a      	ldr	r0, [pc, #104]	; (80011a4 <rt_test_001_001_execute+0x84>)
 800113c:	f7ff fc18 	bl	8000970 <test_println>
    test_print("--- Compiler:                           ");
 8001140:	4819      	ldr	r0, [pc, #100]	; (80011a8 <rt_test_001_001_execute+0x88>)
 8001142:	f7ff fc05 	bl	8000950 <test_print>
    test_println(PORT_COMPILER_NAME);
 8001146:	4819      	ldr	r0, [pc, #100]	; (80011ac <rt_test_001_001_execute+0x8c>)
 8001148:	f7ff fc12 	bl	8000970 <test_println>
    test_print("--- Port Info:                          ");
 800114c:	4818      	ldr	r0, [pc, #96]	; (80011b0 <rt_test_001_001_execute+0x90>)
 800114e:	f7ff fbff 	bl	8000950 <test_print>
    test_println(PORT_INFO);
 8001152:	4818      	ldr	r0, [pc, #96]	; (80011b4 <rt_test_001_001_execute+0x94>)
 8001154:	f7ff fc0c 	bl	8000970 <test_println>
    test_print("--- Natural alignment:                  ");
 8001158:	4817      	ldr	r0, [pc, #92]	; (80011b8 <rt_test_001_001_execute+0x98>)
 800115a:	f7ff fbf9 	bl	8000950 <test_print>
    test_printn(PORT_NATURAL_ALIGN);
 800115e:	2004      	movs	r0, #4
 8001160:	f7ff fc16 	bl	8000990 <test_printn>
    test_println("");
 8001164:	4c15      	ldr	r4, [pc, #84]	; (80011bc <rt_test_001_001_execute+0x9c>)
 8001166:	4620      	mov	r0, r4
 8001168:	f7ff fc02 	bl	8000970 <test_println>
    test_print("--- Stack alignment:                    ");
 800116c:	4814      	ldr	r0, [pc, #80]	; (80011c0 <rt_test_001_001_execute+0xa0>)
 800116e:	f7ff fbef 	bl	8000950 <test_print>
    test_printn(PORT_STACK_ALIGN);
 8001172:	2008      	movs	r0, #8
 8001174:	f7ff fc0c 	bl	8000990 <test_printn>
    test_println("");
 8001178:	4620      	mov	r0, r4
 800117a:	f7ff fbf9 	bl	8000970 <test_println>
    test_print("--- Working area alignment:             ");
 800117e:	4811      	ldr	r0, [pc, #68]	; (80011c4 <rt_test_001_001_execute+0xa4>)
 8001180:	f7ff fbe6 	bl	8000950 <test_print>
    test_printn(PORT_WORKING_AREA_ALIGN);
 8001184:	2008      	movs	r0, #8
 8001186:	f7ff fc03 	bl	8000990 <test_printn>
    test_println("");
 800118a:	4620      	mov	r0, r4
 800118c:	f7ff fbf0 	bl	8000970 <test_println>
}
 8001190:	bd10      	pop	{r4, pc}
 8001192:	bf00      	nop
 8001194:	20001a7c 	.word	0x20001a7c
 8001198:	0800b900 	.word	0x0800b900
 800119c:	0800b92c 	.word	0x0800b92c
 80011a0:	0800b938 	.word	0x0800b938
 80011a4:	0800b964 	.word	0x0800b964
 80011a8:	0800b970 	.word	0x0800b970
 80011ac:	0800b99c 	.word	0x0800b99c
 80011b0:	0800b9a8 	.word	0x0800b9a8
 80011b4:	0800b9d4 	.word	0x0800b9d4
 80011b8:	0800b9ec 	.word	0x0800b9ec
 80011bc:	0800c894 	.word	0x0800c894
 80011c0:	0800ba18 	.word	0x0800ba18
 80011c4:	0800ba44 	.word	0x0800ba44
	...

080011d0 <_test_fail>:
  test_local_fail      = true;
 80011d0:	2301      	movs	r3, #1
 80011d2:	4a04      	ldr	r2, [pc, #16]	; (80011e4 <_test_fail+0x14>)
 80011d4:	7013      	strb	r3, [r2, #0]
  test_global_fail     = true;
 80011d6:	4a04      	ldr	r2, [pc, #16]	; (80011e8 <_test_fail+0x18>)
 80011d8:	7013      	strb	r3, [r2, #0]
  test_failure_message = msg;
 80011da:	4a04      	ldr	r2, [pc, #16]	; (80011ec <_test_fail+0x1c>)
 80011dc:	6010      	str	r0, [r2, #0]
}
 80011de:	4618      	mov	r0, r3
 80011e0:	4770      	bx	lr
 80011e2:	bf00      	nop
 80011e4:	20001a78 	.word	0x20001a78
 80011e8:	200019d8 	.word	0x200019d8
 80011ec:	200019d4 	.word	0x200019d4

080011f0 <_test_assert>:
  if (!condition)
 80011f0:	b108      	cbz	r0, 80011f6 <_test_assert+0x6>
  return false;
 80011f2:	2000      	movs	r0, #0
}
 80011f4:	4770      	bx	lr
bool _test_assert(bool condition, const char *msg) {
 80011f6:	b508      	push	{r3, lr}
    return _test_fail(msg);
 80011f8:	4608      	mov	r0, r1
 80011fa:	f7ff ffe9 	bl	80011d0 <_test_fail>
}
 80011fe:	bd08      	pop	{r3, pc}

08001200 <rt_test_003_002_execute>:
 * - [3.2.2] Checking boundaries for start < end.
 * - [3.2.3] Checking boundaries for start > end.
 * .
 */

static void rt_test_003_002_execute(void) {
 8001200:	b508      	push	{r3, lr}

  /* [3.2.1] Checking case where start == end, it must always evaluate
     as not in range.*/
  test_set_step(1);
 8001202:	2001      	movs	r0, #1
 8001204:	4b26      	ldr	r3, [pc, #152]	; (80012a0 <rt_test_003_002_execute+0xa0>)
 8001206:	6018      	str	r0, [r3, #0]
  {
    bool b;

    b = chTimeIsInRangeX((systime_t)0, (systime_t)0, (systime_t)0);
    test_assert(b == false, "in range");
 8001208:	4926      	ldr	r1, [pc, #152]	; (80012a4 <rt_test_003_002_execute+0xa4>)
 800120a:	f7ff fff1 	bl	80011f0 <_test_assert>
 800120e:	b100      	cbz	r0, 8001212 <rt_test_003_002_execute+0x12>
    test_assert(b == true, "not in range");
    b = chTimeIsInRangeX((systime_t)10, (systime_t)100, (systime_t)10);
    test_assert(b == false, "in range");
  }
  test_end_step(3);
}
 8001210:	bd08      	pop	{r3, pc}
    test_assert(b == false, "in range");
 8001212:	4924      	ldr	r1, [pc, #144]	; (80012a4 <rt_test_003_002_execute+0xa4>)
 8001214:	2001      	movs	r0, #1
 8001216:	f7ff ffeb 	bl	80011f0 <_test_assert>
 800121a:	2800      	cmp	r0, #0
 800121c:	d1f8      	bne.n	8001210 <rt_test_003_002_execute+0x10>
    test_assert(b == false, "in range");
 800121e:	4921      	ldr	r1, [pc, #132]	; (80012a4 <rt_test_003_002_execute+0xa4>)
 8001220:	2001      	movs	r0, #1
 8001222:	f7ff ffe5 	bl	80011f0 <_test_assert>
 8001226:	2800      	cmp	r0, #0
 8001228:	d1f2      	bne.n	8001210 <rt_test_003_002_execute+0x10>
    test_assert(b == false, "in range");
 800122a:	491e      	ldr	r1, [pc, #120]	; (80012a4 <rt_test_003_002_execute+0xa4>)
 800122c:	2001      	movs	r0, #1
 800122e:	f7ff ffdf 	bl	80011f0 <_test_assert>
 8001232:	2800      	cmp	r0, #0
 8001234:	d1ec      	bne.n	8001210 <rt_test_003_002_execute+0x10>
  test_set_step(2);
 8001236:	4b1a      	ldr	r3, [pc, #104]	; (80012a0 <rt_test_003_002_execute+0xa0>)
 8001238:	2202      	movs	r2, #2
 800123a:	601a      	str	r2, [r3, #0]
    test_assert(b == true, "not in range");
 800123c:	491a      	ldr	r1, [pc, #104]	; (80012a8 <rt_test_003_002_execute+0xa8>)
 800123e:	2001      	movs	r0, #1
 8001240:	f7ff ffd6 	bl	80011f0 <_test_assert>
 8001244:	2800      	cmp	r0, #0
 8001246:	d1e3      	bne.n	8001210 <rt_test_003_002_execute+0x10>
    test_assert(b == false, "in range");
 8001248:	4916      	ldr	r1, [pc, #88]	; (80012a4 <rt_test_003_002_execute+0xa4>)
 800124a:	2001      	movs	r0, #1
 800124c:	f7ff ffd0 	bl	80011f0 <_test_assert>
 8001250:	2800      	cmp	r0, #0
 8001252:	d1dd      	bne.n	8001210 <rt_test_003_002_execute+0x10>
    test_assert(b == true, "not in range");
 8001254:	4914      	ldr	r1, [pc, #80]	; (80012a8 <rt_test_003_002_execute+0xa8>)
 8001256:	2001      	movs	r0, #1
 8001258:	f7ff ffca 	bl	80011f0 <_test_assert>
 800125c:	2800      	cmp	r0, #0
 800125e:	d1d7      	bne.n	8001210 <rt_test_003_002_execute+0x10>
    test_assert(b == false, "in range");
 8001260:	4910      	ldr	r1, [pc, #64]	; (80012a4 <rt_test_003_002_execute+0xa4>)
 8001262:	2001      	movs	r0, #1
 8001264:	f7ff ffc4 	bl	80011f0 <_test_assert>
 8001268:	2800      	cmp	r0, #0
 800126a:	d1d1      	bne.n	8001210 <rt_test_003_002_execute+0x10>
  test_set_step(3);
 800126c:	4b0c      	ldr	r3, [pc, #48]	; (80012a0 <rt_test_003_002_execute+0xa0>)
 800126e:	2203      	movs	r2, #3
 8001270:	601a      	str	r2, [r3, #0]
    test_assert(b == true, "not in range");
 8001272:	490d      	ldr	r1, [pc, #52]	; (80012a8 <rt_test_003_002_execute+0xa8>)
 8001274:	2001      	movs	r0, #1
 8001276:	f7ff ffbb 	bl	80011f0 <_test_assert>
 800127a:	2800      	cmp	r0, #0
 800127c:	d1c8      	bne.n	8001210 <rt_test_003_002_execute+0x10>
    test_assert(b == false, "in range");
 800127e:	4909      	ldr	r1, [pc, #36]	; (80012a4 <rt_test_003_002_execute+0xa4>)
 8001280:	2001      	movs	r0, #1
 8001282:	f7ff ffb5 	bl	80011f0 <_test_assert>
 8001286:	2800      	cmp	r0, #0
 8001288:	d1c2      	bne.n	8001210 <rt_test_003_002_execute+0x10>
    test_assert(b == true, "not in range");
 800128a:	4907      	ldr	r1, [pc, #28]	; (80012a8 <rt_test_003_002_execute+0xa8>)
 800128c:	2001      	movs	r0, #1
 800128e:	f7ff ffaf 	bl	80011f0 <_test_assert>
 8001292:	2800      	cmp	r0, #0
 8001294:	d1bc      	bne.n	8001210 <rt_test_003_002_execute+0x10>
    test_assert(b == false, "in range");
 8001296:	4903      	ldr	r1, [pc, #12]	; (80012a4 <rt_test_003_002_execute+0xa4>)
 8001298:	2001      	movs	r0, #1
 800129a:	f7ff ffa9 	bl	80011f0 <_test_assert>
  test_end_step(3);
 800129e:	e7b7      	b.n	8001210 <rt_test_003_002_execute+0x10>
 80012a0:	20001a7c 	.word	0x20001a7c
 80012a4:	0800c0c8 	.word	0x0800c0c8
 80012a8:	0800c0c4 	.word	0x0800c0c4
 80012ac:	00000000 	.word	0x00000000

080012b0 <print_fat_line>:
static void print_fat_line(void) {
 80012b0:	b510      	push	{r4, lr}
  for (i = 0; i < 76; i++)
 80012b2:	2400      	movs	r4, #0
 80012b4:	2c4b      	cmp	r4, #75	; 0x4b
 80012b6:	d807      	bhi.n	80012c8 <print_fat_line+0x18>
    streamPut(test_chp, '=');
 80012b8:	4b07      	ldr	r3, [pc, #28]	; (80012d8 <print_fat_line+0x28>)
 80012ba:	6818      	ldr	r0, [r3, #0]
 80012bc:	6803      	ldr	r3, [r0, #0]
 80012be:	68db      	ldr	r3, [r3, #12]
 80012c0:	213d      	movs	r1, #61	; 0x3d
 80012c2:	4798      	blx	r3
  for (i = 0; i < 76; i++)
 80012c4:	3401      	adds	r4, #1
 80012c6:	e7f5      	b.n	80012b4 <print_fat_line+0x4>
  streamWrite(test_chp, (const uint8_t *)"\r\n", 2);
 80012c8:	4b03      	ldr	r3, [pc, #12]	; (80012d8 <print_fat_line+0x28>)
 80012ca:	6818      	ldr	r0, [r3, #0]
 80012cc:	6803      	ldr	r3, [r0, #0]
 80012ce:	685b      	ldr	r3, [r3, #4]
 80012d0:	2202      	movs	r2, #2
 80012d2:	4902      	ldr	r1, [pc, #8]	; (80012dc <print_fat_line+0x2c>)
 80012d4:	4798      	blx	r3
}
 80012d6:	bd10      	pop	{r4, pc}
 80012d8:	200019d0 	.word	0x200019d0
 80012dc:	0800c2dc 	.word	0x0800c2dc

080012e0 <print_line>:
static void print_line(void) {
 80012e0:	b510      	push	{r4, lr}
  for (i = 0; i < 76; i++)
 80012e2:	2400      	movs	r4, #0
 80012e4:	2c4b      	cmp	r4, #75	; 0x4b
 80012e6:	d807      	bhi.n	80012f8 <print_line+0x18>
    streamPut(test_chp, '-');
 80012e8:	4b07      	ldr	r3, [pc, #28]	; (8001308 <print_line+0x28>)
 80012ea:	6818      	ldr	r0, [r3, #0]
 80012ec:	6803      	ldr	r3, [r0, #0]
 80012ee:	68db      	ldr	r3, [r3, #12]
 80012f0:	212d      	movs	r1, #45	; 0x2d
 80012f2:	4798      	blx	r3
  for (i = 0; i < 76; i++)
 80012f4:	3401      	adds	r4, #1
 80012f6:	e7f5      	b.n	80012e4 <print_line+0x4>
  streamWrite(test_chp, (const uint8_t *)"\r\n", 2);
 80012f8:	4b03      	ldr	r3, [pc, #12]	; (8001308 <print_line+0x28>)
 80012fa:	6818      	ldr	r0, [r3, #0]
 80012fc:	6803      	ldr	r3, [r0, #0]
 80012fe:	685b      	ldr	r3, [r3, #4]
 8001300:	2202      	movs	r2, #2
 8001302:	4902      	ldr	r1, [pc, #8]	; (800130c <print_line+0x2c>)
 8001304:	4798      	blx	r3
}
 8001306:	bd10      	pop	{r4, pc}
 8001308:	200019d0 	.word	0x200019d0
 800130c:	0800c2dc 	.word	0x0800c2dc

08001310 <print_tokens>:
static void print_tokens(void) {
 8001310:	b510      	push	{r4, lr}
  char *cp = test_tokens_buffer;
 8001312:	4c07      	ldr	r4, [pc, #28]	; (8001330 <print_tokens+0x20>)
  while (cp < test_tokp)
 8001314:	4b07      	ldr	r3, [pc, #28]	; (8001334 <print_tokens+0x24>)
 8001316:	681b      	ldr	r3, [r3, #0]
 8001318:	42a3      	cmp	r3, r4
 800131a:	d907      	bls.n	800132c <print_tokens+0x1c>
    streamPut(test_chp, *cp++);
 800131c:	4b06      	ldr	r3, [pc, #24]	; (8001338 <print_tokens+0x28>)
 800131e:	6818      	ldr	r0, [r3, #0]
 8001320:	6803      	ldr	r3, [r0, #0]
 8001322:	68db      	ldr	r3, [r3, #12]
 8001324:	f814 1b01 	ldrb.w	r1, [r4], #1
 8001328:	4798      	blx	r3
 800132a:	e7f3      	b.n	8001314 <print_tokens+0x4>
}
 800132c:	bd10      	pop	{r4, pc}
 800132e:	bf00      	nop
 8001330:	20001a80 	.word	0x20001a80
 8001334:	20001a90 	.word	0x20001a90
 8001338:	200019d0 	.word	0x200019d0
 800133c:	00000000 	.word	0x00000000

08001340 <clear_tokens>:
  test_tokp = test_tokens_buffer;
 8001340:	4b01      	ldr	r3, [pc, #4]	; (8001348 <clear_tokens+0x8>)
 8001342:	4a02      	ldr	r2, [pc, #8]	; (800134c <clear_tokens+0xc>)
 8001344:	601a      	str	r2, [r3, #0]
}
 8001346:	4770      	bx	lr
 8001348:	20001a90 	.word	0x20001a90
 800134c:	20001a80 	.word	0x20001a80

08001350 <_test_assert_sequence>:
bool _test_assert_sequence(char *expected, const char *msg) {
 8001350:	b538      	push	{r3, r4, r5, lr}
 8001352:	4602      	mov	r2, r0
 8001354:	4608      	mov	r0, r1
  char *cp = test_tokens_buffer;
 8001356:	4b0b      	ldr	r3, [pc, #44]	; (8001384 <_test_assert_sequence+0x34>)
  while (cp < test_tokp) {
 8001358:	4c0b      	ldr	r4, [pc, #44]	; (8001388 <_test_assert_sequence+0x38>)
 800135a:	6824      	ldr	r4, [r4, #0]
 800135c:	429c      	cmp	r4, r3
 800135e:	d908      	bls.n	8001372 <_test_assert_sequence+0x22>
    if (*cp++ != *expected++)
 8001360:	f813 5b01 	ldrb.w	r5, [r3], #1
 8001364:	f812 4b01 	ldrb.w	r4, [r2], #1
 8001368:	42a5      	cmp	r5, r4
 800136a:	d0f5      	beq.n	8001358 <_test_assert_sequence+0x8>
     return _test_fail(msg);
 800136c:	f7ff ff30 	bl	80011d0 <_test_fail>
}
 8001370:	bd38      	pop	{r3, r4, r5, pc}
  if (*expected)
 8001372:	7813      	ldrb	r3, [r2, #0]
 8001374:	b91b      	cbnz	r3, 800137e <_test_assert_sequence+0x2e>
  clear_tokens();
 8001376:	f7ff ffe3 	bl	8001340 <clear_tokens>
  return false;
 800137a:	2000      	movs	r0, #0
 800137c:	e7f8      	b.n	8001370 <_test_assert_sequence+0x20>
    return _test_fail(msg);
 800137e:	f7ff ff27 	bl	80011d0 <_test_fail>
 8001382:	e7f5      	b.n	8001370 <_test_assert_sequence+0x20>
 8001384:	20001a80 	.word	0x20001a80
 8001388:	20001a90 	.word	0x20001a90
 800138c:	00000000 	.word	0x00000000

08001390 <execute_test>:
static void execute_test(const testcase_t *tcp) {
 8001390:	b510      	push	{r4, lr}
 8001392:	4604      	mov	r4, r0
  clear_tokens();
 8001394:	f7ff ffd4 	bl	8001340 <clear_tokens>
  test_local_fail = false;
 8001398:	4b05      	ldr	r3, [pc, #20]	; (80013b0 <execute_test+0x20>)
 800139a:	2200      	movs	r2, #0
 800139c:	701a      	strb	r2, [r3, #0]
  if (tcp->setup != NULL)
 800139e:	6863      	ldr	r3, [r4, #4]
 80013a0:	b103      	cbz	r3, 80013a4 <execute_test+0x14>
    tcp->setup();
 80013a2:	4798      	blx	r3
  tcp->execute();
 80013a4:	68e3      	ldr	r3, [r4, #12]
 80013a6:	4798      	blx	r3
  if (tcp->teardown != NULL)
 80013a8:	68a3      	ldr	r3, [r4, #8]
 80013aa:	b103      	cbz	r3, 80013ae <execute_test+0x1e>
    tcp->teardown();
 80013ac:	4798      	blx	r3
}
 80013ae:	bd10      	pop	{r4, pc}
 80013b0:	20001a78 	.word	0x20001a78
	...

080013c0 <shellInit>:
 *
 * @init
 */
static inline void chEvtObjectInit(event_source_t *esp) {

  esp->next = (event_listener_t *)esp;
 80013c0:	4b01      	ldr	r3, [pc, #4]	; (80013c8 <shellInit+0x8>)
 80013c2:	601b      	str	r3, [r3, #0]
void shellInit(void) {

#if !defined(_CHIBIOS_NIL_)
  chEvtObjectInit(&shell_terminated);
#endif
}
 80013c4:	4770      	bx	lr
 80013c6:	bf00      	nop
 80013c8:	20001360 	.word	0x20001360
 80013cc:	00000000 	.word	0x00000000

080013d0 <is_histbuff_space>:
  if (shp->sh_end >= shp->sh_beg) {
 80013d0:	68c2      	ldr	r2, [r0, #12]
 80013d2:	6883      	ldr	r3, [r0, #8]
 80013d4:	429a      	cmp	r2, r3
 80013d6:	db07      	blt.n	80013e8 <is_histbuff_space+0x18>
    if (length < (shp->sh_size - (shp->sh_end - shp->sh_beg + 1)))
 80013d8:	6840      	ldr	r0, [r0, #4]
 80013da:	1ad3      	subs	r3, r2, r3
 80013dc:	3301      	adds	r3, #1
 80013de:	1ac3      	subs	r3, r0, r3
 80013e0:	428b      	cmp	r3, r1
 80013e2:	dc07      	bgt.n	80013f4 <is_histbuff_space+0x24>
  return false;
 80013e4:	2000      	movs	r0, #0
 80013e6:	4770      	bx	lr
    if (length < (shp->sh_beg - shp->sh_end - 1))
 80013e8:	1a9b      	subs	r3, r3, r2
 80013ea:	3b01      	subs	r3, #1
 80013ec:	428b      	cmp	r3, r1
 80013ee:	dc03      	bgt.n	80013f8 <is_histbuff_space+0x28>
  return false;
 80013f0:	2000      	movs	r0, #0
 80013f2:	4770      	bx	lr
      return true;
 80013f4:	2001      	movs	r0, #1
 80013f6:	4770      	bx	lr
      return true;
 80013f8:	2001      	movs	r0, #1
}
 80013fa:	4770      	bx	lr
 80013fc:	0000      	movs	r0, r0
	...

08001400 <del_histbuff_entry>:
  int pos = shp->sh_beg + *(shp->sh_buffer + shp->sh_beg) + 1;
 8001400:	6883      	ldr	r3, [r0, #8]
 8001402:	6802      	ldr	r2, [r0, #0]
 8001404:	5cd2      	ldrb	r2, [r2, r3]
 8001406:	4413      	add	r3, r2
 8001408:	3301      	adds	r3, #1
  if (pos >= shp->sh_size)
 800140a:	6842      	ldr	r2, [r0, #4]
 800140c:	429a      	cmp	r2, r3
 800140e:	dc00      	bgt.n	8001412 <del_histbuff_entry+0x12>
    pos -= shp->sh_size;
 8001410:	1a9b      	subs	r3, r3, r2
  shp->sh_beg = pos;
 8001412:	6083      	str	r3, [r0, #8]
}
 8001414:	4770      	bx	lr
 8001416:	bf00      	nop
	...

08001420 <long_to_string_with_divisor>:
#define FLOAT_PRECISION 9

static char *long_to_string_with_divisor(char *p,
                                         long num,
                                         unsigned radix,
                                         long divisor) {
 8001420:	b4f0      	push	{r4, r5, r6, r7}
 8001422:	460c      	mov	r4, r1
  int i;
  char *q;
  long l, ll;

  l = num;
  if (divisor == 0) {
 8001424:	461e      	mov	r6, r3
 8001426:	b903      	cbnz	r3, 800142a <long_to_string_with_divisor+0xa>
    ll = num;
 8001428:	460e      	mov	r6, r1
  } else {
    ll = divisor;
  }

  q = p + MAX_FILLER;
 800142a:	f100 050b 	add.w	r5, r0, #11
 800142e:	462b      	mov	r3, r5
 8001430:	e006      	b.n	8001440 <long_to_string_with_divisor+0x20>
    i = (int)(l % radix);
    i += '0';
    if (i > '9') {
      i += 'A' - '0' - 10;
    }
    *--q = i;
 8001432:	f803 4d01 	strb.w	r4, [r3, #-1]!
    l /= radix;
 8001436:	fbb7 f4f2 	udiv	r4, r7, r2
  } while ((ll /= radix) != 0);
 800143a:	fbb6 f6f2 	udiv	r6, r6, r2
 800143e:	b15e      	cbz	r6, 8001458 <long_to_string_with_divisor+0x38>
    i = (int)(l % radix);
 8001440:	4627      	mov	r7, r4
 8001442:	fbb4 f1f2 	udiv	r1, r4, r2
 8001446:	fb02 4111 	mls	r1, r2, r1, r4
    i += '0';
 800144a:	f101 0430 	add.w	r4, r1, #48	; 0x30
    if (i > '9') {
 800144e:	2c39      	cmp	r4, #57	; 0x39
 8001450:	ddef      	ble.n	8001432 <long_to_string_with_divisor+0x12>
      i += 'A' - '0' - 10;
 8001452:	f101 0437 	add.w	r4, r1, #55	; 0x37
 8001456:	e7ec      	b.n	8001432 <long_to_string_with_divisor+0x12>

  i = (int)(p + MAX_FILLER - q);
 8001458:	1aec      	subs	r4, r5, r3
  do
    *p++ = *q++;
 800145a:	7819      	ldrb	r1, [r3, #0]
 800145c:	3301      	adds	r3, #1
 800145e:	7001      	strb	r1, [r0, #0]
 8001460:	3001      	adds	r0, #1
  while (--i);
 8001462:	3c01      	subs	r4, #1
 8001464:	d1f9      	bne.n	800145a <long_to_string_with_divisor+0x3a>

  return p;
}
 8001466:	bcf0      	pop	{r4, r5, r6, r7}
 8001468:	4770      	bx	lr
 800146a:	bf00      	nop
 800146c:	0000      	movs	r0, r0
	...

08001470 <ch_ltoa>:

static char *ch_ltoa(char *p, long num, unsigned radix) {
 8001470:	b508      	push	{r3, lr}

  return long_to_string_with_divisor(p, num, radix, 0);
 8001472:	2300      	movs	r3, #0
 8001474:	f7ff ffd4 	bl	8001420 <long_to_string_with_divisor>
}
 8001478:	bd08      	pop	{r3, pc}
 800147a:	bf00      	nop
 800147c:	0000      	movs	r0, r0
	...

08001480 <chvprintf>:
 * @return              The number of bytes that would have been
 *                      written to @p chp if no stream error occurs
 *
 * @api
 */
int chvprintf(BaseSequentialStream *chp, const char *fmt, va_list ap) {
 8001480:	e92d 4ff0 	stmdb	sp!, {r4, r5, r6, r7, r8, r9, sl, fp, lr}
 8001484:	b087      	sub	sp, #28
 8001486:	4606      	mov	r6, r0
 8001488:	4689      	mov	r9, r1
 800148a:	9201      	str	r2, [sp, #4]
  char *p, *s, c, filler;
  int i, precision, width;
  int n = 0;
 800148c:	2700      	movs	r7, #0
 800148e:	e005      	b.n	800149c <chvprintf+0x1c>
    if (c == 0) {
      return n;
    }
    
    if (c != '%') {
      streamPut(chp, (uint8_t)c);
 8001490:	6833      	ldr	r3, [r6, #0]
 8001492:	68db      	ldr	r3, [r3, #12]
 8001494:	4630      	mov	r0, r6
 8001496:	4798      	blx	r3
      n++;
 8001498:	3701      	adds	r7, #1
    c = *fmt++;
 800149a:	46a9      	mov	r9, r5
 800149c:	464d      	mov	r5, r9
 800149e:	f815 1b01 	ldrb.w	r1, [r5], #1
    if (c == 0) {
 80014a2:	2900      	cmp	r1, #0
 80014a4:	d07b      	beq.n	800159e <chvprintf+0x11e>
    if (c != '%') {
 80014a6:	2925      	cmp	r1, #37	; 0x25
 80014a8:	d1f2      	bne.n	8001490 <chvprintf+0x10>
    p = tmpbuf;
    s = tmpbuf;

    /* Alignment mode.*/
    left_align = false;
    if (*fmt == '-') {
 80014aa:	782b      	ldrb	r3, [r5, #0]
 80014ac:	2b2d      	cmp	r3, #45	; 0x2d
 80014ae:	d043      	beq.n	8001538 <chvprintf+0xb8>
    left_align = false;
 80014b0:	f04f 0a00 	mov.w	sl, #0
      left_align = true;
    }

    /* Sign mode.*/
    do_sign = false;
    if (*fmt == '+') {
 80014b4:	782b      	ldrb	r3, [r5, #0]
 80014b6:	2b2b      	cmp	r3, #43	; 0x2b
 80014b8:	d043      	beq.n	8001542 <chvprintf+0xc2>
    do_sign = false;
 80014ba:	2200      	movs	r2, #0
      do_sign = true;
    }

    /* Filler mode.*/
    filler = ' ';
    if (*fmt == '0') {
 80014bc:	f895 8000 	ldrb.w	r8, [r5]
 80014c0:	f1b8 0f30 	cmp.w	r8, #48	; 0x30
 80014c4:	d040      	beq.n	8001548 <chvprintf+0xc8>
    filler = ' ';
 80014c6:	f04f 0820 	mov.w	r8, #32
      fmt++;
      filler = '0';
    }
    
    /* Width modifier.*/
    if (c == '*') {
 80014ca:	292a      	cmp	r1, #42	; 0x2a
 80014cc:	d13e      	bne.n	800154c <chvprintf+0xcc>
      width = va_arg(ap, int);
 80014ce:	9b01      	ldr	r3, [sp, #4]
 80014d0:	1d18      	adds	r0, r3, #4
 80014d2:	9001      	str	r0, [sp, #4]
 80014d4:	681c      	ldr	r4, [r3, #0]
      }
    }
    
    /* Precision modifier.*/
    precision = 0;
    if (c == '.') {
 80014d6:	292e      	cmp	r1, #46	; 0x2e
 80014d8:	d046      	beq.n	8001568 <chvprintf+0xe8>
    precision = 0;
 80014da:	2300      	movs	r3, #0
        }
      }
    }
    
    /* Long modifier.*/
    if (c == 'l' || c == 'L') {
 80014dc:	296c      	cmp	r1, #108	; 0x6c
 80014de:	d064      	beq.n	80015aa <chvprintf+0x12a>
 80014e0:	294c      	cmp	r1, #76	; 0x4c
 80014e2:	d062      	beq.n	80015aa <chvprintf+0x12a>
      if (c == 0) {
        return n;
      }
    }
    else {
      is_long = (c >= 'A') && (c <= 'Z');
 80014e4:	f1a1 0041 	sub.w	r0, r1, #65	; 0x41
 80014e8:	b2c0      	uxtb	r0, r0
 80014ea:	2819      	cmp	r0, #25
 80014ec:	bf8c      	ite	hi
 80014ee:	2000      	movhi	r0, #0
 80014f0:	2001      	movls	r0, #1
 80014f2:	46a9      	mov	r9, r5
    }

    /* Command decoding.*/
    switch (c) {
 80014f4:	f1a1 0544 	sub.w	r5, r1, #68	; 0x44
 80014f8:	2d34      	cmp	r5, #52	; 0x34
 80014fa:	f200 80c8 	bhi.w	800168e <chvprintf+0x20e>
 80014fe:	e8df f005 	tbb	[pc, r5]
 8001502:	c67f      	.short	0xc67f
 8001504:	7fc6c6c6 	.word	0x7fc6c6c6
 8001508:	c6c6c6c6 	.word	0xc6c6c6c6
 800150c:	c6c65bc6 	.word	0xc6c65bc6
 8001510:	9fc6c6c6 	.word	0x9fc6c6c6
 8001514:	c6bfc6c6 	.word	0xc6bfc6c6
 8001518:	c6c6c6c6 	.word	0xc6c6c6c6
 800151c:	c6c6c6c6 	.word	0xc6c6c6c6
 8001520:	c67f5dc6 	.word	0xc67f5dc6
 8001524:	7fc6c6c6 	.word	0x7fc6c6c6
 8001528:	c6c6c6c6 	.word	0xc6c6c6c6
 800152c:	c6c65bc6 	.word	0xc6c65bc6
 8001530:	9fc669c6 	.word	0x9fc669c6
 8001534:	c6c6      	.short	0xc6c6
 8001536:	bf          	.byte	0xbf
 8001537:	00          	.byte	0x00
      fmt++;
 8001538:	f109 0502 	add.w	r5, r9, #2
      left_align = true;
 800153c:	f04f 0a01 	mov.w	sl, #1
 8001540:	e7b8      	b.n	80014b4 <chvprintf+0x34>
      fmt++;
 8001542:	3501      	adds	r5, #1
      do_sign = true;
 8001544:	2201      	movs	r2, #1
 8001546:	e7b9      	b.n	80014bc <chvprintf+0x3c>
      fmt++;
 8001548:	3501      	adds	r5, #1
      filler = '0';
 800154a:	e7be      	b.n	80014ca <chvprintf+0x4a>
      width = 0;
 800154c:	2400      	movs	r4, #0
        c = *fmt++;
 800154e:	f815 1b01 	ldrb.w	r1, [r5], #1
        if (c == 0) {
 8001552:	b321      	cbz	r1, 800159e <chvprintf+0x11e>
        if (c >= '0' && c <= '9') {
 8001554:	f1a1 0330 	sub.w	r3, r1, #48	; 0x30
 8001558:	b2db      	uxtb	r3, r3
 800155a:	2b09      	cmp	r3, #9
 800155c:	d8bb      	bhi.n	80014d6 <chvprintf+0x56>
          width = width * 10 + c;
 800155e:	eb04 0484 	add.w	r4, r4, r4, lsl #2
 8001562:	eb03 0444 	add.w	r4, r3, r4, lsl #1
      while (true) {
 8001566:	e7f2      	b.n	800154e <chvprintf+0xce>
      c = *fmt++;
 8001568:	4628      	mov	r0, r5
 800156a:	f810 1b01 	ldrb.w	r1, [r0], #1
      if (c == 0) {
 800156e:	b1b1      	cbz	r1, 800159e <chvprintf+0x11e>
      if (c == '*') {
 8001570:	292a      	cmp	r1, #42	; 0x2a
 8001572:	d106      	bne.n	8001582 <chvprintf+0x102>
        precision = va_arg(ap, int);
 8001574:	9b01      	ldr	r3, [sp, #4]
 8001576:	1d19      	adds	r1, r3, #4
 8001578:	9101      	str	r1, [sp, #4]
 800157a:	681b      	ldr	r3, [r3, #0]
        c = *fmt++;
 800157c:	7869      	ldrb	r1, [r5, #1]
 800157e:	3502      	adds	r5, #2
 8001580:	e7ac      	b.n	80014dc <chvprintf+0x5c>
    precision = 0;
 8001582:	2300      	movs	r3, #0
        while (c >= '0' && c <= '9') {
 8001584:	f1a1 0530 	sub.w	r5, r1, #48	; 0x30
 8001588:	b2ed      	uxtb	r5, r5
 800158a:	2d09      	cmp	r5, #9
 800158c:	d80b      	bhi.n	80015a6 <chvprintf+0x126>
          precision = precision * 10 + c;
 800158e:	eb03 0383 	add.w	r3, r3, r3, lsl #2
 8001592:	eb05 0343 	add.w	r3, r5, r3, lsl #1
          c = *fmt++;
 8001596:	f810 1b01 	ldrb.w	r1, [r0], #1
          if (c == 0) {
 800159a:	2900      	cmp	r1, #0
 800159c:	d1f2      	bne.n	8001584 <chvprintf+0x104>
      streamPut(chp, (uint8_t)filler);
      n++;
      width--;
    }
  }
}
 800159e:	4638      	mov	r0, r7
 80015a0:	b007      	add	sp, #28
 80015a2:	e8bd 8ff0 	ldmia.w	sp!, {r4, r5, r6, r7, r8, r9, sl, fp, pc}
        while (c >= '0' && c <= '9') {
 80015a6:	4605      	mov	r5, r0
 80015a8:	e798      	b.n	80014dc <chvprintf+0x5c>
      c = *fmt++;
 80015aa:	46a9      	mov	r9, r5
 80015ac:	f819 1b01 	ldrb.w	r1, [r9], #1
      if (c == 0) {
 80015b0:	2900      	cmp	r1, #0
 80015b2:	d0f4      	beq.n	800159e <chvprintf+0x11e>
      is_long = true;
 80015b4:	2001      	movs	r0, #1
 80015b6:	e79d      	b.n	80014f4 <chvprintf+0x74>
      c = 16;
 80015b8:	2208      	movs	r2, #8
 80015ba:	e042      	b.n	8001642 <chvprintf+0x1c2>
      *p++ = va_arg(ap, int);
 80015bc:	9b01      	ldr	r3, [sp, #4]
 80015be:	1d1a      	adds	r2, r3, #4
 80015c0:	9201      	str	r2, [sp, #4]
 80015c2:	681b      	ldr	r3, [r3, #0]
 80015c4:	f88d 300c 	strb.w	r3, [sp, #12]
      filler = ' ';
 80015c8:	f04f 0820 	mov.w	r8, #32
    s = tmpbuf;
 80015cc:	ad03      	add	r5, sp, #12
      *p++ = va_arg(ap, int);
 80015ce:	f10d 000d 	add.w	r0, sp, #13
 80015d2:	e03f      	b.n	8001654 <chvprintf+0x1d4>
      if ((s = va_arg(ap, char *)) == 0) {
 80015d4:	9a01      	ldr	r2, [sp, #4]
 80015d6:	1d11      	adds	r1, r2, #4
 80015d8:	9101      	str	r1, [sp, #4]
 80015da:	6815      	ldr	r5, [r2, #0]
 80015dc:	b115      	cbz	r5, 80015e4 <chvprintf+0x164>
      if (precision == 0) {
 80015de:	b163      	cbz	r3, 80015fa <chvprintf+0x17a>
        precision = 32767;
 80015e0:	4628      	mov	r0, r5
 80015e2:	e002      	b.n	80015ea <chvprintf+0x16a>
        s = "(null)";
 80015e4:	4d40      	ldr	r5, [pc, #256]	; (80016e8 <chvprintf+0x268>)
 80015e6:	e7fa      	b.n	80015de <chvprintf+0x15e>
      for (p = s; *p && (--precision >= 0); p++)
 80015e8:	3001      	adds	r0, #1
 80015ea:	7802      	ldrb	r2, [r0, #0]
 80015ec:	2a00      	cmp	r2, #0
 80015ee:	d054      	beq.n	800169a <chvprintf+0x21a>
 80015f0:	3b01      	subs	r3, #1
 80015f2:	d5f9      	bpl.n	80015e8 <chvprintf+0x168>
      filler = ' ';
 80015f4:	f04f 0820 	mov.w	r8, #32
 80015f8:	e02c      	b.n	8001654 <chvprintf+0x1d4>
        precision = 32767;
 80015fa:	f647 73ff 	movw	r3, #32767	; 0x7fff
 80015fe:	e7ef      	b.n	80015e0 <chvprintf+0x160>
      if (is_long) {
 8001600:	b160      	cbz	r0, 800161c <chvprintf+0x19c>
        l = va_arg(ap, long);
 8001602:	9b01      	ldr	r3, [sp, #4]
 8001604:	1d19      	adds	r1, r3, #4
 8001606:	9101      	str	r1, [sp, #4]
 8001608:	6819      	ldr	r1, [r3, #0]
      if (l < 0) {
 800160a:	2900      	cmp	r1, #0
 800160c:	db0b      	blt.n	8001626 <chvprintf+0x1a6>
        if (do_sign) {
 800160e:	b1aa      	cbz	r2, 800163c <chvprintf+0x1bc>
          *p++ = '+';
 8001610:	232b      	movs	r3, #43	; 0x2b
 8001612:	f88d 300c 	strb.w	r3, [sp, #12]
 8001616:	f10d 000d 	add.w	r0, sp, #13
 800161a:	e00a      	b.n	8001632 <chvprintf+0x1b2>
        l = va_arg(ap, int);
 800161c:	9b01      	ldr	r3, [sp, #4]
 800161e:	1d19      	adds	r1, r3, #4
 8001620:	9101      	str	r1, [sp, #4]
 8001622:	6819      	ldr	r1, [r3, #0]
 8001624:	e7f1      	b.n	800160a <chvprintf+0x18a>
        *p++ = '-';
 8001626:	232d      	movs	r3, #45	; 0x2d
 8001628:	f88d 300c 	strb.w	r3, [sp, #12]
        l = -l;
 800162c:	4249      	negs	r1, r1
        *p++ = '-';
 800162e:	f10d 000d 	add.w	r0, sp, #13
      p = ch_ltoa(p, l, 10);
 8001632:	220a      	movs	r2, #10
 8001634:	f7ff ff1c 	bl	8001470 <ch_ltoa>
    s = tmpbuf;
 8001638:	ad03      	add	r5, sp, #12
 800163a:	e00b      	b.n	8001654 <chvprintf+0x1d4>
    p = tmpbuf;
 800163c:	a803      	add	r0, sp, #12
 800163e:	e7f8      	b.n	8001632 <chvprintf+0x1b2>
      c = 10;
 8001640:	220a      	movs	r2, #10
      if (is_long) {
 8001642:	b1f8      	cbz	r0, 8001684 <chvprintf+0x204>
        l = va_arg(ap, unsigned long);
 8001644:	9b01      	ldr	r3, [sp, #4]
 8001646:	1d19      	adds	r1, r3, #4
 8001648:	9101      	str	r1, [sp, #4]
 800164a:	6819      	ldr	r1, [r3, #0]
      p = ch_ltoa(p, l, c);
 800164c:	a803      	add	r0, sp, #12
 800164e:	f7ff ff0f 	bl	8001470 <ch_ltoa>
    s = tmpbuf;
 8001652:	ad03      	add	r5, sp, #12
    i = (int)(p - s);
 8001654:	eba0 0b05 	sub.w	fp, r0, r5
    if ((width -= i) < 0) {
 8001658:	ebb4 040b 	subs.w	r4, r4, fp
 800165c:	d420      	bmi.n	80016a0 <chvprintf+0x220>
    if (left_align == false) {
 800165e:	f1ba 0f00 	cmp.w	sl, #0
 8001662:	d100      	bne.n	8001666 <chvprintf+0x1e6>
      width = -width;
 8001664:	4264      	negs	r4, r4
    if (width < 0) {
 8001666:	2c00      	cmp	r4, #0
 8001668:	db1c      	blt.n	80016a4 <chvprintf+0x224>
    while (--i >= 0) {
 800166a:	f1bb 0b01 	subs.w	fp, fp, #1
 800166e:	d438      	bmi.n	80016e2 <chvprintf+0x262>
      streamPut(chp, (uint8_t)*s++);
 8001670:	6833      	ldr	r3, [r6, #0]
 8001672:	68db      	ldr	r3, [r3, #12]
 8001674:	f815 1b01 	ldrb.w	r1, [r5], #1
 8001678:	4630      	mov	r0, r6
 800167a:	4798      	blx	r3
      n++;
 800167c:	3701      	adds	r7, #1
 800167e:	e7f4      	b.n	800166a <chvprintf+0x1ea>
      c = 16;
 8001680:	2210      	movs	r2, #16
 8001682:	e7de      	b.n	8001642 <chvprintf+0x1c2>
        l = va_arg(ap, unsigned int);
 8001684:	9b01      	ldr	r3, [sp, #4]
 8001686:	1d19      	adds	r1, r3, #4
 8001688:	9101      	str	r1, [sp, #4]
 800168a:	6819      	ldr	r1, [r3, #0]
 800168c:	e7de      	b.n	800164c <chvprintf+0x1cc>
      *p++ = c;
 800168e:	f88d 100c 	strb.w	r1, [sp, #12]
    s = tmpbuf;
 8001692:	ad03      	add	r5, sp, #12
      *p++ = c;
 8001694:	f10d 000d 	add.w	r0, sp, #13
 8001698:	e7dc      	b.n	8001654 <chvprintf+0x1d4>
      filler = ' ';
 800169a:	f04f 0820 	mov.w	r8, #32
 800169e:	e7d9      	b.n	8001654 <chvprintf+0x1d4>
      width = 0;
 80016a0:	2400      	movs	r4, #0
 80016a2:	e7dc      	b.n	800165e <chvprintf+0x1de>
      if (*s == '-' && filler == '0') {
 80016a4:	7829      	ldrb	r1, [r5, #0]
 80016a6:	292d      	cmp	r1, #45	; 0x2d
 80016a8:	d008      	beq.n	80016bc <chvprintf+0x23c>
        streamPut(chp, (uint8_t)filler);
 80016aa:	6833      	ldr	r3, [r6, #0]
 80016ac:	68db      	ldr	r3, [r3, #12]
 80016ae:	4641      	mov	r1, r8
 80016b0:	4630      	mov	r0, r6
 80016b2:	4798      	blx	r3
        n++;
 80016b4:	3701      	adds	r7, #1
      } while (++width != 0);
 80016b6:	3401      	adds	r4, #1
 80016b8:	d1f7      	bne.n	80016aa <chvprintf+0x22a>
 80016ba:	e7d6      	b.n	800166a <chvprintf+0x1ea>
      if (*s == '-' && filler == '0') {
 80016bc:	f1b8 0f30 	cmp.w	r8, #48	; 0x30
 80016c0:	d1f3      	bne.n	80016aa <chvprintf+0x22a>
        streamPut(chp, (uint8_t)*s++);
 80016c2:	3501      	adds	r5, #1
 80016c4:	6833      	ldr	r3, [r6, #0]
 80016c6:	68db      	ldr	r3, [r3, #12]
 80016c8:	4630      	mov	r0, r6
 80016ca:	4798      	blx	r3
        n++;
 80016cc:	3701      	adds	r7, #1
        i--;
 80016ce:	f10b 3bff 	add.w	fp, fp, #4294967295	; 0xffffffff
 80016d2:	e7ea      	b.n	80016aa <chvprintf+0x22a>
      streamPut(chp, (uint8_t)filler);
 80016d4:	6833      	ldr	r3, [r6, #0]
 80016d6:	68db      	ldr	r3, [r3, #12]
 80016d8:	4641      	mov	r1, r8
 80016da:	4630      	mov	r0, r6
 80016dc:	4798      	blx	r3
      n++;
 80016de:	3701      	adds	r7, #1
      width--;
 80016e0:	3c01      	subs	r4, #1
    while (width) {
 80016e2:	2c00      	cmp	r4, #0
 80016e4:	d1f6      	bne.n	80016d4 <chvprintf+0x254>
 80016e6:	e6d9      	b.n	800149c <chvprintf+0x1c>
 80016e8:	0800c0d4 	.word	0x0800c0d4
 80016ec:	00000000 	.word	0x00000000

080016f0 <dyn_list_unlink>:
  return NULL;
}

static dyn_element_t *dyn_list_unlink(dyn_element_t *element,
                                      dyn_list_t *dlp) {
  dyn_element_t *prev = (dyn_element_t *)dlp;
 80016f0:	460b      	mov	r3, r1

  /* Scanning the list.*/
  while (prev->next != (dyn_element_t *)dlp) {
 80016f2:	461a      	mov	r2, r3
 80016f4:	681b      	ldr	r3, [r3, #0]
 80016f6:	428b      	cmp	r3, r1
 80016f8:	d004      	beq.n	8001704 <dyn_list_unlink+0x14>
    if (prev->next == element) {
 80016fa:	4283      	cmp	r3, r0
 80016fc:	d1f9      	bne.n	80016f2 <dyn_list_unlink+0x2>
      /* Found.*/
      prev->next = element->next;
 80016fe:	6803      	ldr	r3, [r0, #0]
 8001700:	6013      	str	r3, [r2, #0]
      return element;
 8001702:	4770      	bx	lr

    /* Next element in the list.*/
    prev = prev->next;
  }

  return NULL;
 8001704:	2000      	movs	r0, #0
}
 8001706:	4770      	bx	lr
	...

08001710 <chCacheReadObject>:
 *
 * @api
 */
bool chCacheReadObject(objects_cache_t *ocp,
                       oc_object_t *objp,
                       bool async) {
 8001710:	b510      	push	{r4, lr}

  /* Marking it as OC_FLAG_NOTSYNC because the read operation is going
     to corrupt it in case of failure. It is responsibility of the read
     implementation to clear it if the operation succeeds.*/
  objp->obj_flags |= OC_FLAG_NOTSYNC;
 8001712:	6a4c      	ldr	r4, [r1, #36]	; 0x24
 8001714:	f044 0408 	orr.w	r4, r4, #8
 8001718:	624c      	str	r4, [r1, #36]	; 0x24

  return ocp->readf(ocp, objp, async);
 800171a:	6bc3      	ldr	r3, [r0, #60]	; 0x3c
 800171c:	4798      	blx	r3
}
 800171e:	bd10      	pop	{r4, pc}

08001720 <hash_get_s>:
                               uint32_t key) {
 8001720:	b430      	push	{r4, r5}
  hhp  = &ocp->hashp[OC_HASH_FUNCTION(ocp, group, key)];
 8001722:	6845      	ldr	r5, [r0, #4]
 8001724:	6803      	ldr	r3, [r0, #0]
 8001726:	3b01      	subs	r3, #1
 8001728:	1888      	adds	r0, r1, r2
 800172a:	4003      	ands	r3, r0
 800172c:	eb05 04c3 	add.w	r4, r5, r3, lsl #3
  objp = hhp->hash_next;
 8001730:	f855 0033 	ldr.w	r0, [r5, r3, lsl #3]
  while (objp != (oc_object_t *)hhp) {
 8001734:	e000      	b.n	8001738 <hash_get_s+0x18>
    objp = objp->hash_next;
 8001736:	6800      	ldr	r0, [r0, #0]
  while (objp != (oc_object_t *)hhp) {
 8001738:	42a0      	cmp	r0, r4
 800173a:	d006      	beq.n	800174a <hash_get_s+0x2a>
    if ((objp->obj_key == key) && (objp->obj_group == group)) {
 800173c:	6943      	ldr	r3, [r0, #20]
 800173e:	4293      	cmp	r3, r2
 8001740:	d1f9      	bne.n	8001736 <hash_get_s+0x16>
 8001742:	6903      	ldr	r3, [r0, #16]
 8001744:	428b      	cmp	r3, r1
 8001746:	d1f6      	bne.n	8001736 <hash_get_s+0x16>
 8001748:	e000      	b.n	800174c <hash_get_s+0x2c>
  return NULL;
 800174a:	2000      	movs	r0, #0
}
 800174c:	bc30      	pop	{r4, r5}
 800174e:	4770      	bx	lr

08001750 <chPoolFreeI>:
  chDbgCheckClassI();
  chDbgCheck((mp != NULL) &&
             (objp != NULL) &&
             MEM_IS_ALIGNED(objp, mp->align));

  php->next = mp->next;
 8001750:	6803      	ldr	r3, [r0, #0]
 8001752:	600b      	str	r3, [r1, #0]
  mp->next = php;
 8001754:	6001      	str	r1, [r0, #0]
}
 8001756:	4770      	bx	lr
	...

08001760 <chPoolFree>:
 * @param[in] mp        pointer to a @p memory_pool_t structure
 * @param[in] objp      the pointer to the object to be released
 *
 * @api
 */
void chPoolFree(memory_pool_t *mp, void *objp) {
 8001760:	b508      	push	{r3, lr}
 8001762:	2320      	movs	r3, #32
 8001764:	f383 8811 	msr	BASEPRI, r3

  chSysLock();
  chPoolFreeI(mp, objp);
 8001768:	f7ff fff2 	bl	8001750 <chPoolFreeI>
 800176c:	2300      	movs	r3, #0
 800176e:	f383 8811 	msr	BASEPRI, r3
  chSysUnlock();
}
 8001772:	bd08      	pop	{r3, pc}
	...

08001780 <dyn_release_object_pool>:
                                    memory_pool_t *mp) {

  chDbgCheck(dep != NULL);
  chDbgAssert(dep->refs > (ucnt_t)0, "invalid references number");

  dep->refs--;
 8001780:	6843      	ldr	r3, [r0, #4]
 8001782:	3b01      	subs	r3, #1
 8001784:	6043      	str	r3, [r0, #4]
  if (dep->refs == (ucnt_t)0) {
 8001786:	b103      	cbz	r3, 800178a <dyn_release_object_pool+0xa>
 8001788:	4770      	bx	lr
                                    memory_pool_t *mp) {
 800178a:	b510      	push	{r4, lr}
 800178c:	4614      	mov	r4, r2
    dep = dyn_list_unlink(dep, dlp);
 800178e:	f7ff ffaf 	bl	80016f0 <dyn_list_unlink>
 8001792:	4601      	mov	r1, r0
    chPoolFree(mp, (void *)dep);
 8001794:	4620      	mov	r0, r4
 8001796:	f7ff ffe3 	bl	8001760 <chPoolFree>
  }
}
 800179a:	bd10      	pop	{r4, pc}
 800179c:	0000      	movs	r0, r0
	...

080017a0 <chPoolAllocI>:
void *chPoolAllocI(memory_pool_t *mp) {
 80017a0:	b508      	push	{r3, lr}
 80017a2:	4603      	mov	r3, r0
  objp = mp->next;
 80017a4:	6800      	ldr	r0, [r0, #0]
  if (objp != NULL) {
 80017a6:	b110      	cbz	r0, 80017ae <chPoolAllocI+0xe>
    mp->next = mp->next->next;
 80017a8:	6802      	ldr	r2, [r0, #0]
 80017aa:	601a      	str	r2, [r3, #0]
}
 80017ac:	bd08      	pop	{r3, pc}
  else if (mp->provider != NULL) {
 80017ae:	68da      	ldr	r2, [r3, #12]
 80017b0:	2a00      	cmp	r2, #0
 80017b2:	d0fb      	beq.n	80017ac <chPoolAllocI+0xc>
    objp = mp->provider(mp->object_size, mp->align);
 80017b4:	6899      	ldr	r1, [r3, #8]
 80017b6:	6858      	ldr	r0, [r3, #4]
 80017b8:	4790      	blx	r2
  return objp;
 80017ba:	e7f7      	b.n	80017ac <chPoolAllocI+0xc>
 80017bc:	0000      	movs	r0, r0
	...

080017c0 <chPoolAlloc>:
void *chPoolAlloc(memory_pool_t *mp) {
 80017c0:	b508      	push	{r3, lr}
 80017c2:	2320      	movs	r3, #32
 80017c4:	f383 8811 	msr	BASEPRI, r3
  objp = chPoolAllocI(mp);
 80017c8:	f7ff ffea 	bl	80017a0 <chPoolAllocI>
 80017cc:	2300      	movs	r3, #0
 80017ce:	f383 8811 	msr	BASEPRI, r3
}
 80017d2:	bd08      	pop	{r3, pc}
	...

080017e0 <chPoolLoadArray>:
void chPoolLoadArray(memory_pool_t *mp, void *p, size_t n) {
 80017e0:	b570      	push	{r4, r5, r6, lr}
 80017e2:	4606      	mov	r6, r0
 80017e4:	460d      	mov	r5, r1
 80017e6:	4614      	mov	r4, r2
  while (n != 0U) {
 80017e8:	b13c      	cbz	r4, 80017fa <chPoolLoadArray+0x1a>
 *
 * @api
 */
static inline void chPoolAdd(memory_pool_t *mp, void *objp) {

  chPoolFree(mp, objp);
 80017ea:	4629      	mov	r1, r5
 80017ec:	4630      	mov	r0, r6
 80017ee:	f7ff ffb7 	bl	8001760 <chPoolFree>
    p = (void *)(((uint8_t *)p) + mp->object_size);
 80017f2:	6873      	ldr	r3, [r6, #4]
 80017f4:	441d      	add	r5, r3
    n--;
 80017f6:	3c01      	subs	r4, #1
 80017f8:	e7f6      	b.n	80017e8 <chPoolLoadArray+0x8>
}
 80017fa:	bd70      	pop	{r4, r5, r6, pc}
 80017fc:	0000      	movs	r0, r0
	...

08001800 <chPoolObjectInitAligned>:
                             unsigned align, memgetfunc_t provider) {
 8001800:	b410      	push	{r4}
  mp->next = NULL;
 8001802:	2400      	movs	r4, #0
 8001804:	6004      	str	r4, [r0, #0]
  mp->object_size = size;
 8001806:	6041      	str	r1, [r0, #4]
  mp->align = align;
 8001808:	6082      	str	r2, [r0, #8]
  mp->provider = provider;
 800180a:	60c3      	str	r3, [r0, #12]
}
 800180c:	bc10      	pop	{r4}
 800180e:	4770      	bx	lr

08001810 <oslib_test_007_001_execute>:

static void oslib_test_007_001_setup(void) {
  chPoolObjectInit(&mp1, sizeof (uint32_t), NULL);
}

static void oslib_test_007_001_execute(void) {
 8001810:	b510      	push	{r4, lr}
  unsigned i;

  /* [7.1.1] Adding the objects to the pool using chPoolLoadArray().*/
  test_set_step(1);
 8001812:	4c34      	ldr	r4, [pc, #208]	; (80018e4 <oslib_test_007_001_execute+0xd4>)
 8001814:	2301      	movs	r3, #1
 8001816:	6023      	str	r3, [r4, #0]
  {
    chPoolLoadArray(&mp1, objects, MEMORY_POOL_SIZE);
 8001818:	2204      	movs	r2, #4
 800181a:	4933      	ldr	r1, [pc, #204]	; (80018e8 <oslib_test_007_001_execute+0xd8>)
 800181c:	4833      	ldr	r0, [pc, #204]	; (80018ec <oslib_test_007_001_execute+0xdc>)
 800181e:	f7ff ffdf 	bl	80017e0 <chPoolLoadArray>
  }
  test_end_step(1);

  /* [7.1.2] Emptying the pool using chPoolAlloc().*/
  test_set_step(2);
 8001822:	2302      	movs	r3, #2
 8001824:	6023      	str	r3, [r4, #0]
  {
    for (i = 0; i < MEMORY_POOL_SIZE; i++)
 8001826:	2400      	movs	r4, #0
 8001828:	2c03      	cmp	r4, #3
 800182a:	d80c      	bhi.n	8001846 <oslib_test_007_001_execute+0x36>
      test_assert(chPoolAlloc(&mp1) != NULL, "list empty");
 800182c:	482f      	ldr	r0, [pc, #188]	; (80018ec <oslib_test_007_001_execute+0xdc>)
 800182e:	f7ff ffc7 	bl	80017c0 <chPoolAlloc>
 8001832:	492f      	ldr	r1, [pc, #188]	; (80018f0 <oslib_test_007_001_execute+0xe0>)
 8001834:	3800      	subs	r0, #0
 8001836:	bf18      	it	ne
 8001838:	2001      	movne	r0, #1
 800183a:	f7ff fcd9 	bl	80011f0 <_test_assert>
 800183e:	2800      	cmp	r0, #0
 8001840:	d13b      	bne.n	80018ba <oslib_test_007_001_execute+0xaa>
    for (i = 0; i < MEMORY_POOL_SIZE; i++)
 8001842:	3401      	adds	r4, #1
 8001844:	e7f0      	b.n	8001828 <oslib_test_007_001_execute+0x18>
  }
  test_end_step(2);

  /* [7.1.3] Now must be empty.*/
  test_set_step(3);
 8001846:	4b27      	ldr	r3, [pc, #156]	; (80018e4 <oslib_test_007_001_execute+0xd4>)
 8001848:	2203      	movs	r2, #3
 800184a:	601a      	str	r2, [r3, #0]
  {
    test_assert(chPoolAlloc(&mp1) == NULL, "list not empty");
 800184c:	4827      	ldr	r0, [pc, #156]	; (80018ec <oslib_test_007_001_execute+0xdc>)
 800184e:	f7ff ffb7 	bl	80017c0 <chPoolAlloc>
 8001852:	4928      	ldr	r1, [pc, #160]	; (80018f4 <oslib_test_007_001_execute+0xe4>)
 8001854:	fab0 f080 	clz	r0, r0
 8001858:	0940      	lsrs	r0, r0, #5
 800185a:	f7ff fcc9 	bl	80011f0 <_test_assert>
 800185e:	bb60      	cbnz	r0, 80018ba <oslib_test_007_001_execute+0xaa>
  }
  test_end_step(3);

  /* [7.1.4] Adding the objects to the pool using chPoolFree().*/
  test_set_step(4);
 8001860:	4b20      	ldr	r3, [pc, #128]	; (80018e4 <oslib_test_007_001_execute+0xd4>)
 8001862:	2204      	movs	r2, #4
 8001864:	601a      	str	r2, [r3, #0]
  {
    for (i = 0; i < MEMORY_POOL_SIZE; i++)
 8001866:	2400      	movs	r4, #0
 8001868:	e006      	b.n	8001878 <oslib_test_007_001_execute+0x68>
      chPoolFree(&mp1, &objects[i]);
 800186a:	491f      	ldr	r1, [pc, #124]	; (80018e8 <oslib_test_007_001_execute+0xd8>)
 800186c:	eb01 0184 	add.w	r1, r1, r4, lsl #2
 8001870:	481e      	ldr	r0, [pc, #120]	; (80018ec <oslib_test_007_001_execute+0xdc>)
 8001872:	f7ff ff75 	bl	8001760 <chPoolFree>
    for (i = 0; i < MEMORY_POOL_SIZE; i++)
 8001876:	3401      	adds	r4, #1
 8001878:	2c03      	cmp	r4, #3
 800187a:	d9f6      	bls.n	800186a <oslib_test_007_001_execute+0x5a>
  }
  test_end_step(4);

  /* [7.1.5] Emptying the pool using chPoolAlloc() again.*/
  test_set_step(5);
 800187c:	4b19      	ldr	r3, [pc, #100]	; (80018e4 <oslib_test_007_001_execute+0xd4>)
 800187e:	2205      	movs	r2, #5
 8001880:	601a      	str	r2, [r3, #0]
  {
    for (i = 0; i < MEMORY_POOL_SIZE; i++)
 8001882:	2400      	movs	r4, #0
 8001884:	2c03      	cmp	r4, #3
 8001886:	d80b      	bhi.n	80018a0 <oslib_test_007_001_execute+0x90>
      test_assert(chPoolAlloc(&mp1) != NULL, "list empty");
 8001888:	4818      	ldr	r0, [pc, #96]	; (80018ec <oslib_test_007_001_execute+0xdc>)
 800188a:	f7ff ff99 	bl	80017c0 <chPoolAlloc>
 800188e:	4918      	ldr	r1, [pc, #96]	; (80018f0 <oslib_test_007_001_execute+0xe0>)
 8001890:	3800      	subs	r0, #0
 8001892:	bf18      	it	ne
 8001894:	2001      	movne	r0, #1
 8001896:	f7ff fcab 	bl	80011f0 <_test_assert>
 800189a:	b970      	cbnz	r0, 80018ba <oslib_test_007_001_execute+0xaa>
    for (i = 0; i < MEMORY_POOL_SIZE; i++)
 800189c:	3401      	adds	r4, #1
 800189e:	e7f1      	b.n	8001884 <oslib_test_007_001_execute+0x74>
  }
  test_end_step(5);

  /* [7.1.6] Now must be empty again.*/
  test_set_step(6);
 80018a0:	4b10      	ldr	r3, [pc, #64]	; (80018e4 <oslib_test_007_001_execute+0xd4>)
 80018a2:	2206      	movs	r2, #6
 80018a4:	601a      	str	r2, [r3, #0]
  {
    test_assert(chPoolAlloc(&mp1) == NULL, "list not empty");
 80018a6:	4811      	ldr	r0, [pc, #68]	; (80018ec <oslib_test_007_001_execute+0xdc>)
 80018a8:	f7ff ff8a 	bl	80017c0 <chPoolAlloc>
 80018ac:	4911      	ldr	r1, [pc, #68]	; (80018f4 <oslib_test_007_001_execute+0xe4>)
 80018ae:	fab0 f080 	clz	r0, r0
 80018b2:	0940      	lsrs	r0, r0, #5
 80018b4:	f7ff fc9c 	bl	80011f0 <_test_assert>
 80018b8:	b100      	cbz	r0, 80018bc <oslib_test_007_001_execute+0xac>
  {
    chPoolObjectInit(&mp1, sizeof (uint32_t), null_provider);
    test_assert(chPoolAlloc(&mp1) == NULL, "provider returned memory");
  }
  test_end_step(7);
}
 80018ba:	bd10      	pop	{r4, pc}
  test_set_step(7);
 80018bc:	4b09      	ldr	r3, [pc, #36]	; (80018e4 <oslib_test_007_001_execute+0xd4>)
 80018be:	2207      	movs	r2, #7
 80018c0:	601a      	str	r2, [r3, #0]
  chPoolObjectInitAligned(mp, size, PORT_NATURAL_ALIGN, provider);
 80018c2:	4c0a      	ldr	r4, [pc, #40]	; (80018ec <oslib_test_007_001_execute+0xdc>)
 80018c4:	4b0c      	ldr	r3, [pc, #48]	; (80018f8 <oslib_test_007_001_execute+0xe8>)
 80018c6:	2204      	movs	r2, #4
 80018c8:	4611      	mov	r1, r2
 80018ca:	4620      	mov	r0, r4
 80018cc:	f7ff ff98 	bl	8001800 <chPoolObjectInitAligned>
    test_assert(chPoolAlloc(&mp1) == NULL, "provider returned memory");
 80018d0:	4620      	mov	r0, r4
 80018d2:	f7ff ff75 	bl	80017c0 <chPoolAlloc>
 80018d6:	4909      	ldr	r1, [pc, #36]	; (80018fc <oslib_test_007_001_execute+0xec>)
 80018d8:	fab0 f080 	clz	r0, r0
 80018dc:	0940      	lsrs	r0, r0, #5
 80018de:	f7ff fc87 	bl	80011f0 <_test_assert>
  test_end_step(7);
 80018e2:	e7ea      	b.n	80018ba <oslib_test_007_001_execute+0xaa>
 80018e4:	20001a7c 	.word	0x20001a7c
 80018e8:	20001338 	.word	0x20001338
 80018ec:	20000874 	.word	0x20000874
 80018f0:	0800c0dc 	.word	0x0800c0dc
 80018f4:	0800c0e8 	.word	0x0800c0e8
 80018f8:	08000701 	.word	0x08000701
 80018fc:	0800c0f8 	.word	0x0800c0f8

08001900 <oslib_test_007_001_setup>:
static void oslib_test_007_001_setup(void) {
 8001900:	b508      	push	{r3, lr}
 8001902:	2300      	movs	r3, #0
 8001904:	2204      	movs	r2, #4
 8001906:	4611      	mov	r1, r2
 8001908:	4801      	ldr	r0, [pc, #4]	; (8001910 <oslib_test_007_001_setup+0x10>)
 800190a:	f7ff ff79 	bl	8001800 <chPoolObjectInitAligned>
}
 800190e:	bd08      	pop	{r3, pc}
 8001910:	20000874 	.word	0x20000874
	...

08001920 <rt_test_010_002_setup>:
 *   execution sequence.
 * - [10.2.6] Testing that the pool contains four elements again.
 * .
 */

static void rt_test_010_002_setup(void) {
 8001920:	b508      	push	{r3, lr}
 8001922:	2300      	movs	r3, #0
 8001924:	2204      	movs	r2, #4
 8001926:	f44f 71a4 	mov.w	r1, #328	; 0x148
 800192a:	4802      	ldr	r0, [pc, #8]	; (8001934 <rt_test_010_002_setup+0x14>)
 800192c:	f7ff ff68 	bl	8001800 <chPoolObjectInitAligned>
  chPoolObjectInit(&mp1, THD_WORKING_AREA_SIZE(THREADS_STACK_SIZE), NULL);
}
 8001930:	bd08      	pop	{r3, pc}
 8001932:	bf00      	nop
 8001934:	20001218 	.word	0x20001218
	...

08001940 <chCoreGetStatusX>:
 * @xclass
 */
size_t chCoreGetStatusX(void) {

  /*lint -save -e9033 [10.8] The cast is safe.*/
  return (size_t)(ch_memcore.topmem - ch_memcore.basemem);
 8001940:	4b02      	ldr	r3, [pc, #8]	; (800194c <chCoreGetStatusX+0xc>)
 8001942:	6858      	ldr	r0, [r3, #4]
 8001944:	681b      	ldr	r3, [r3, #0]
  /*lint -restore*/
}
 8001946:	1ac0      	subs	r0, r0, r3
 8001948:	4770      	bx	lr
 800194a:	bf00      	nop
 800194c:	20001100 	.word	0x20001100

08001950 <chCoreAllocFromTopI>:
void *chCoreAllocFromTopI(size_t size, unsigned align, size_t offset) {
 8001950:	b410      	push	{r4}
  p = (uint8_t *)MEM_ALIGN_PREV(ch_memcore.topmem - size, align);
 8001952:	4b09      	ldr	r3, [pc, #36]	; (8001978 <chCoreAllocFromTopI+0x28>)
 8001954:	685c      	ldr	r4, [r3, #4]
 8001956:	1a20      	subs	r0, r4, r0
 8001958:	4249      	negs	r1, r1
 800195a:	4008      	ands	r0, r1
  prev = p - offset;
 800195c:	1a82      	subs	r2, r0, r2
  if ((prev < ch_memcore.basemem) || (prev > ch_memcore.topmem)) {
 800195e:	681b      	ldr	r3, [r3, #0]
 8001960:	4293      	cmp	r3, r2
 8001962:	d805      	bhi.n	8001970 <chCoreAllocFromTopI+0x20>
 8001964:	4294      	cmp	r4, r2
 8001966:	d305      	bcc.n	8001974 <chCoreAllocFromTopI+0x24>
  ch_memcore.topmem = prev;
 8001968:	4b03      	ldr	r3, [pc, #12]	; (8001978 <chCoreAllocFromTopI+0x28>)
 800196a:	605a      	str	r2, [r3, #4]
}
 800196c:	bc10      	pop	{r4}
 800196e:	4770      	bx	lr
    return NULL;
 8001970:	2000      	movs	r0, #0
 8001972:	e7fb      	b.n	800196c <chCoreAllocFromTopI+0x1c>
 8001974:	2000      	movs	r0, #0
 8001976:	e7f9      	b.n	800196c <chCoreAllocFromTopI+0x1c>
 8001978:	20001100 	.word	0x20001100
 800197c:	00000000 	.word	0x00000000

08001980 <chCoreAllocAlignedI>:
 * @return              A pointer to the allocated memory block.
 * @retval NULL         allocation failed, core memory exhausted.
 *
 * @iclass
 */
static inline void *chCoreAllocAlignedI(size_t size, unsigned align) {
 8001980:	b508      	push	{r3, lr}

  return chCoreAllocAlignedWithOffsetI(size, align, 0U);
 8001982:	2200      	movs	r2, #0
 8001984:	f7ff ffe4 	bl	8001950 <chCoreAllocFromTopI>
}
 8001988:	bd08      	pop	{r3, pc}
 800198a:	bf00      	nop
 800198c:	0000      	movs	r0, r0
	...

08001990 <chCoreAllocFromTop>:
void *chCoreAllocFromTop(size_t size, unsigned align, size_t offset) {
 8001990:	b508      	push	{r3, lr}
 8001992:	2320      	movs	r3, #32
 8001994:	f383 8811 	msr	BASEPRI, r3
  p = chCoreAllocFromTopI(size, align, offset);
 8001998:	f7ff ffda 	bl	8001950 <chCoreAllocFromTopI>
 800199c:	2300      	movs	r3, #0
 800199e:	f383 8811 	msr	BASEPRI, r3
}
 80019a2:	bd08      	pop	{r3, pc}
	...

080019b0 <chMBObjectInit>:
 */
void chMBObjectInit(mailbox_t *mbp, msg_t *buf, size_t n) {

  chDbgCheck((mbp != NULL) && (buf != NULL) && (n > (size_t)0));

  mbp->buffer = buf;
 80019b0:	6001      	str	r1, [r0, #0]
  mbp->rdptr  = buf;
 80019b2:	60c1      	str	r1, [r0, #12]
  mbp->wrptr  = buf;
 80019b4:	6081      	str	r1, [r0, #8]
  mbp->top    = &buf[n];
 80019b6:	eb01 0182 	add.w	r1, r1, r2, lsl #2
 80019ba:	6041      	str	r1, [r0, #4]
  mbp->cnt    = (size_t)0;
 80019bc:	2300      	movs	r3, #0
 80019be:	6103      	str	r3, [r0, #16]
  mbp->reset  = false;
 80019c0:	7503      	strb	r3, [r0, #20]
  chThdQueueObjectInit(&mbp->qw);
 80019c2:	f100 0318 	add.w	r3, r0, #24
 *
 * @notapi
 */
static inline void queue_init(threads_queue_t *tqp) {

  tqp->next = (thread_t *)tqp;
 80019c6:	6183      	str	r3, [r0, #24]
  tqp->prev = (thread_t *)tqp;
 80019c8:	61c3      	str	r3, [r0, #28]
  chThdQueueObjectInit(&mbp->qr);
 80019ca:	f100 0320 	add.w	r3, r0, #32
  tqp->next = (thread_t *)tqp;
 80019ce:	6203      	str	r3, [r0, #32]
  tqp->prev = (thread_t *)tqp;
 80019d0:	6243      	str	r3, [r0, #36]	; 0x24
}
 80019d2:	4770      	bx	lr
	...

080019e0 <oslib_test_002_003_setup>:
 *   active state.
 * - [2.3.4] Testing chMBFetchTimeout() and chMBFetchI() timeout.
 * .
 */

static void oslib_test_002_003_setup(void) {
 80019e0:	b508      	push	{r3, lr}
  chMBObjectInit(&mb1, mb_buffer, MB_SIZE);
 80019e2:	2204      	movs	r2, #4
 80019e4:	4902      	ldr	r1, [pc, #8]	; (80019f0 <oslib_test_002_003_setup+0x10>)
 80019e6:	4803      	ldr	r0, [pc, #12]	; (80019f4 <oslib_test_002_003_setup+0x14>)
 80019e8:	f7ff ffe2 	bl	80019b0 <chMBObjectInit>
}
 80019ec:	bd08      	pop	{r3, pc}
 80019ee:	bf00      	nop
 80019f0:	20001208 	.word	0x20001208
 80019f4:	2000084c 	.word	0x2000084c
	...

08001a00 <oslib_test_002_002_setup>:
static void oslib_test_002_002_setup(void) {
 8001a00:	b508      	push	{r3, lr}
  chMBObjectInit(&mb1, mb_buffer, MB_SIZE);
 8001a02:	2204      	movs	r2, #4
 8001a04:	4902      	ldr	r1, [pc, #8]	; (8001a10 <oslib_test_002_002_setup+0x10>)
 8001a06:	4803      	ldr	r0, [pc, #12]	; (8001a14 <oslib_test_002_002_setup+0x14>)
 8001a08:	f7ff ffd2 	bl	80019b0 <chMBObjectInit>
}
 8001a0c:	bd08      	pop	{r3, pc}
 8001a0e:	bf00      	nop
 8001a10:	20001208 	.word	0x20001208
 8001a14:	2000084c 	.word	0x2000084c
	...

08001a20 <oslib_test_002_001_setup>:
static void oslib_test_002_001_setup(void) {
 8001a20:	b508      	push	{r3, lr}
  chMBObjectInit(&mb1, mb_buffer, MB_SIZE);
 8001a22:	2204      	movs	r2, #4
 8001a24:	4902      	ldr	r1, [pc, #8]	; (8001a30 <oslib_test_002_001_setup+0x10>)
 8001a26:	4803      	ldr	r0, [pc, #12]	; (8001a34 <oslib_test_002_001_setup+0x14>)
 8001a28:	f7ff ffc2 	bl	80019b0 <chMBObjectInit>
}
 8001a2c:	bd08      	pop	{r3, pc}
 8001a2e:	bf00      	nop
 8001a30:	20001208 	.word	0x20001208
 8001a34:	2000084c 	.word	0x2000084c
	...

08001a40 <chEvtDispatch>:
 * @param[in] handlers  an array of @p evhandler_t. The array must have size
 *                      equal to the number of bits in eventmask_t.
 *
 * @api
 */
void chEvtDispatch(const evhandler_t *handlers, eventmask_t events) {
 8001a40:	b570      	push	{r4, r5, r6, lr}
 8001a42:	4606      	mov	r6, r0
 8001a44:	460d      	mov	r5, r1
  eventid_t eid;

  chDbgCheck(handlers != NULL);

  eid = (eventid_t)0;
 8001a46:	2400      	movs	r4, #0
 8001a48:	e000      	b.n	8001a4c <chEvtDispatch+0xc>
    if ((events & EVENT_MASK(eid)) != (eventmask_t)0) {
      chDbgAssert(handlers[eid] != NULL, "null handler");
      events &= ~EVENT_MASK(eid);
      handlers[eid](eid);
    }
    eid++;
 8001a4a:	3401      	adds	r4, #1
  while (events != (eventmask_t)0) {
 8001a4c:	b16d      	cbz	r5, 8001a6a <chEvtDispatch+0x2a>
    if ((events & EVENT_MASK(eid)) != (eventmask_t)0) {
 8001a4e:	fa25 f304 	lsr.w	r3, r5, r4
 8001a52:	f013 0f01 	tst.w	r3, #1
 8001a56:	d0f8      	beq.n	8001a4a <chEvtDispatch+0xa>
      events &= ~EVENT_MASK(eid);
 8001a58:	2301      	movs	r3, #1
 8001a5a:	40a3      	lsls	r3, r4
 8001a5c:	ea25 0503 	bic.w	r5, r5, r3
      handlers[eid](eid);
 8001a60:	f856 3024 	ldr.w	r3, [r6, r4, lsl #2]
 8001a64:	4620      	mov	r0, r4
 8001a66:	4798      	blx	r3
 8001a68:	e7ef      	b.n	8001a4a <chEvtDispatch+0xa>
  }
}
 8001a6a:	bd70      	pop	{r4, r5, r6, pc}
 8001a6c:	0000      	movs	r0, r0
	...

08001a70 <rt_test_009_002_execute>:

static void rt_test_009_002_setup(void) {
  chEvtGetAndClearEvents(ALL_EVENTS);
}

static void rt_test_009_002_execute(void) {
 8001a70:	b508      	push	{r3, lr}

  /* [9.2.1] Three evenf flag bits are raised then chEvtDispatch() is
     invoked, the sequence of handlers calls is tested.*/
  test_set_step(1);
 8001a72:	4b06      	ldr	r3, [pc, #24]	; (8001a8c <rt_test_009_002_execute+0x1c>)
 8001a74:	2201      	movs	r2, #1
 8001a76:	601a      	str	r2, [r3, #0]
  {
    chEvtDispatch(evhndl, 7);
 8001a78:	2107      	movs	r1, #7
 8001a7a:	4805      	ldr	r0, [pc, #20]	; (8001a90 <rt_test_009_002_execute+0x20>)
 8001a7c:	f7ff ffe0 	bl	8001a40 <chEvtDispatch>
    test_assert_sequence("ABC", "invalid sequence");
 8001a80:	4904      	ldr	r1, [pc, #16]	; (8001a94 <rt_test_009_002_execute+0x24>)
 8001a82:	4805      	ldr	r0, [pc, #20]	; (8001a98 <rt_test_009_002_execute+0x28>)
 8001a84:	f7ff fc64 	bl	8001350 <_test_assert_sequence>
  }
  test_end_step(1);
}
 8001a88:	bd08      	pop	{r3, pc}
 8001a8a:	bf00      	nop
 8001a8c:	20001a7c 	.word	0x20001a7c
 8001a90:	0800d8a0 	.word	0x0800d8a0
 8001a94:	0800c114 	.word	0x0800c114
 8001a98:	0800c128 	.word	0x0800c128
 8001a9c:	00000000 	.word	0x00000000

08001aa0 <chEvtAddEvents>:
 8001aa0:	2320      	movs	r3, #32
 8001aa2:	f383 8811 	msr	BASEPRI, r3
 *
 * @iclass
 */
static inline eventmask_t chEvtAddEventsI(eventmask_t events) {

  return currp->epending |= events;
 8001aa6:	4b04      	ldr	r3, [pc, #16]	; (8001ab8 <chEvtAddEvents+0x18>)
 8001aa8:	699b      	ldr	r3, [r3, #24]
 8001aaa:	6b5a      	ldr	r2, [r3, #52]	; 0x34
 8001aac:	4310      	orrs	r0, r2
 8001aae:	6358      	str	r0, [r3, #52]	; 0x34
 8001ab0:	2300      	movs	r3, #0
 8001ab2:	f383 8811 	msr	BASEPRI, r3
}
 8001ab6:	4770      	bx	lr
 8001ab8:	20001040 	.word	0x20001040
 8001abc:	00000000 	.word	0x00000000

08001ac0 <chEvtGetAndClearEventsI>:
  m = currp->epending & events;
 8001ac0:	4b03      	ldr	r3, [pc, #12]	; (8001ad0 <chEvtGetAndClearEventsI+0x10>)
 8001ac2:	699a      	ldr	r2, [r3, #24]
 8001ac4:	6b53      	ldr	r3, [r2, #52]	; 0x34
  currp->epending &= ~events;
 8001ac6:	ea23 0100 	bic.w	r1, r3, r0
 8001aca:	6351      	str	r1, [r2, #52]	; 0x34
}
 8001acc:	4018      	ands	r0, r3
 8001ace:	4770      	bx	lr
 8001ad0:	20001040 	.word	0x20001040
	...

08001ae0 <chEvtGetAndClearEvents>:
eventmask_t chEvtGetAndClearEvents(eventmask_t events) {
 8001ae0:	b508      	push	{r3, lr}
 8001ae2:	2320      	movs	r3, #32
 8001ae4:	f383 8811 	msr	BASEPRI, r3
  m = chEvtGetAndClearEventsI(events);
 8001ae8:	f7ff ffea 	bl	8001ac0 <chEvtGetAndClearEventsI>
 8001aec:	2300      	movs	r3, #0
 8001aee:	f383 8811 	msr	BASEPRI, r3
}
 8001af2:	bd08      	pop	{r3, pc}
	...

08001b00 <rt_test_009_007_setup>:
 *   has been emptied.
 * - [9.7.4] Unregistering from the Event Sources.
 * .
 */

static void rt_test_009_007_setup(void) {
 8001b00:	b508      	push	{r3, lr}
  chEvtGetAndClearEvents(ALL_EVENTS);
 8001b02:	f04f 30ff 	mov.w	r0, #4294967295	; 0xffffffff
 8001b06:	f7ff ffeb 	bl	8001ae0 <chEvtGetAndClearEvents>
  esp->next = (event_listener_t *)esp;
 8001b0a:	4b02      	ldr	r3, [pc, #8]	; (8001b14 <rt_test_009_007_setup+0x14>)
 8001b0c:	601b      	str	r3, [r3, #0]
 8001b0e:	4b02      	ldr	r3, [pc, #8]	; (8001b18 <rt_test_009_007_setup+0x18>)
 8001b10:	601b      	str	r3, [r3, #0]
  chEvtObjectInit(&es1);
  chEvtObjectInit(&es2);
}
 8001b12:	bd08      	pop	{r3, pc}
 8001b14:	20000808 	.word	0x20000808
 8001b18:	2000080c 	.word	0x2000080c
 8001b1c:	00000000 	.word	0x00000000

08001b20 <rt_test_009_006_setup>:
static void rt_test_009_006_setup(void) {
 8001b20:	b508      	push	{r3, lr}
  chEvtGetAndClearEvents(ALL_EVENTS);
 8001b22:	f04f 30ff 	mov.w	r0, #4294967295	; 0xffffffff
 8001b26:	f7ff ffdb 	bl	8001ae0 <chEvtGetAndClearEvents>
}
 8001b2a:	bd08      	pop	{r3, pc}
 8001b2c:	0000      	movs	r0, r0
	...

08001b30 <rt_test_009_005_setup>:
static void rt_test_009_005_setup(void) {
 8001b30:	b508      	push	{r3, lr}
  chEvtGetAndClearEvents(ALL_EVENTS);
 8001b32:	f04f 30ff 	mov.w	r0, #4294967295	; 0xffffffff
 8001b36:	f7ff ffd3 	bl	8001ae0 <chEvtGetAndClearEvents>
}
 8001b3a:	bd08      	pop	{r3, pc}
 8001b3c:	0000      	movs	r0, r0
	...

08001b40 <rt_test_009_004_setup>:
static void rt_test_009_004_setup(void) {
 8001b40:	b508      	push	{r3, lr}
  chEvtGetAndClearEvents(ALL_EVENTS);
 8001b42:	f04f 30ff 	mov.w	r0, #4294967295	; 0xffffffff
 8001b46:	f7ff ffcb 	bl	8001ae0 <chEvtGetAndClearEvents>
}
 8001b4a:	bd08      	pop	{r3, pc}
 8001b4c:	0000      	movs	r0, r0
	...

08001b50 <rt_test_009_003_setup>:
static void rt_test_009_003_setup(void) {
 8001b50:	b508      	push	{r3, lr}
  chEvtGetAndClearEvents(ALL_EVENTS);
 8001b52:	f04f 30ff 	mov.w	r0, #4294967295	; 0xffffffff
 8001b56:	f7ff ffc3 	bl	8001ae0 <chEvtGetAndClearEvents>
}
 8001b5a:	bd08      	pop	{r3, pc}
 8001b5c:	0000      	movs	r0, r0
	...

08001b60 <rt_test_009_002_setup>:
static void rt_test_009_002_setup(void) {
 8001b60:	b508      	push	{r3, lr}
  chEvtGetAndClearEvents(ALL_EVENTS);
 8001b62:	f04f 30ff 	mov.w	r0, #4294967295	; 0xffffffff
 8001b66:	f7ff ffbb 	bl	8001ae0 <chEvtGetAndClearEvents>
}
 8001b6a:	bd08      	pop	{r3, pc}
 8001b6c:	0000      	movs	r0, r0
	...

08001b70 <chEvtUnregister>:
 8001b70:	2320      	movs	r3, #32
 8001b72:	f383 8811 	msr	BASEPRI, r3
  p = (event_listener_t *)esp;
 8001b76:	4603      	mov	r3, r0
  while (p->next != (event_listener_t *)esp) {
 8001b78:	461a      	mov	r2, r3
 8001b7a:	681b      	ldr	r3, [r3, #0]
 8001b7c:	4283      	cmp	r3, r0
 8001b7e:	d003      	beq.n	8001b88 <chEvtUnregister+0x18>
    if (p->next == elp) {
 8001b80:	428b      	cmp	r3, r1
 8001b82:	d1f9      	bne.n	8001b78 <chEvtUnregister+0x8>
      p->next = elp->next;
 8001b84:	680b      	ldr	r3, [r1, #0]
 8001b86:	6013      	str	r3, [r2, #0]
 8001b88:	2300      	movs	r3, #0
 8001b8a:	f383 8811 	msr	BASEPRI, r3
}
 8001b8e:	4770      	bx	lr

08001b90 <chEvtRegisterMaskWithFlags>:
                                eventflags_t wflags) {
 8001b90:	b410      	push	{r4}
 8001b92:	2420      	movs	r4, #32
 8001b94:	f384 8811 	msr	BASEPRI, r4
  elp->next     = esp->next;
 8001b98:	6804      	ldr	r4, [r0, #0]
 8001b9a:	600c      	str	r4, [r1, #0]
  esp->next     = elp;
 8001b9c:	6001      	str	r1, [r0, #0]
  elp->listener = currp;
 8001b9e:	4805      	ldr	r0, [pc, #20]	; (8001bb4 <chEvtRegisterMaskWithFlags+0x24>)
 8001ba0:	6980      	ldr	r0, [r0, #24]
 8001ba2:	6048      	str	r0, [r1, #4]
  elp->events   = events;
 8001ba4:	608a      	str	r2, [r1, #8]
  elp->flags    = (eventflags_t)0;
 8001ba6:	2200      	movs	r2, #0
 8001ba8:	60ca      	str	r2, [r1, #12]
  elp->wflags   = wflags;
 8001baa:	610b      	str	r3, [r1, #16]
 8001bac:	f382 8811 	msr	BASEPRI, r2
}
 8001bb0:	bc10      	pop	{r4}
 8001bb2:	4770      	bx	lr
 8001bb4:	20001040 	.word	0x20001040
	...

08001bc0 <rt_test_009_001_execute>:
static void rt_test_009_001_execute(void) {
 8001bc0:	b530      	push	{r4, r5, lr}
 8001bc2:	b08b      	sub	sp, #44	; 0x2c
 8001bc4:	4c2d      	ldr	r4, [pc, #180]	; (8001c7c <rt_test_009_001_execute+0xbc>)
 8001bc6:	6024      	str	r4, [r4, #0]
  test_set_step(2);
 8001bc8:	2502      	movs	r5, #2
 8001bca:	4b2d      	ldr	r3, [pc, #180]	; (8001c80 <rt_test_009_001_execute+0xc0>)
 8001bcc:	601d      	str	r5, [r3, #0]
  chEvtRegisterMaskWithFlags(esp, elp, events, (eventflags_t)-1);
 8001bce:	f04f 33ff 	mov.w	r3, #4294967295	; 0xffffffff
 8001bd2:	2201      	movs	r2, #1
 8001bd4:	a905      	add	r1, sp, #20
 8001bd6:	4620      	mov	r0, r4
 8001bd8:	f7ff ffda 	bl	8001b90 <chEvtRegisterMaskWithFlags>
 8001bdc:	f04f 33ff 	mov.w	r3, #4294967295	; 0xffffffff
 8001be0:	462a      	mov	r2, r5
 8001be2:	4669      	mov	r1, sp
 8001be4:	4620      	mov	r0, r4
 8001be6:	f7ff ffd3 	bl	8001b90 <chEvtRegisterMaskWithFlags>
 8001bea:	2320      	movs	r3, #32
 8001bec:	f383 8811 	msr	BASEPRI, r3
  return (bool)(esp != (event_source_t *)esp->next);
 8001bf0:	6820      	ldr	r0, [r4, #0]
    test_assert_lock(chEvtIsListeningI(&es1), "no listener");
 8001bf2:	4924      	ldr	r1, [pc, #144]	; (8001c84 <rt_test_009_001_execute+0xc4>)
 8001bf4:	1b00      	subs	r0, r0, r4
 8001bf6:	bf18      	it	ne
 8001bf8:	2001      	movne	r0, #1
 8001bfa:	f7ff faf9 	bl	80011f0 <_test_assert>
 8001bfe:	b120      	cbz	r0, 8001c0a <rt_test_009_001_execute+0x4a>
 8001c00:	2300      	movs	r3, #0
 8001c02:	f383 8811 	msr	BASEPRI, r3
}
 8001c06:	b00b      	add	sp, #44	; 0x2c
 8001c08:	bd30      	pop	{r4, r5, pc}
 8001c0a:	2300      	movs	r3, #0
 8001c0c:	f383 8811 	msr	BASEPRI, r3
  test_set_step(3);
 8001c10:	4b1b      	ldr	r3, [pc, #108]	; (8001c80 <rt_test_009_001_execute+0xc0>)
 8001c12:	2203      	movs	r2, #3
 8001c14:	601a      	str	r2, [r3, #0]
    chEvtUnregister(&es1, &el1);
 8001c16:	4c19      	ldr	r4, [pc, #100]	; (8001c7c <rt_test_009_001_execute+0xbc>)
 8001c18:	a905      	add	r1, sp, #20
 8001c1a:	4620      	mov	r0, r4
 8001c1c:	f7ff ffa8 	bl	8001b70 <chEvtUnregister>
 8001c20:	2320      	movs	r3, #32
 8001c22:	f383 8811 	msr	BASEPRI, r3
 8001c26:	6820      	ldr	r0, [r4, #0]
    test_assert_lock(chEvtIsListeningI(&es1), "no listener");
 8001c28:	4916      	ldr	r1, [pc, #88]	; (8001c84 <rt_test_009_001_execute+0xc4>)
 8001c2a:	1b00      	subs	r0, r0, r4
 8001c2c:	bf18      	it	ne
 8001c2e:	2001      	movne	r0, #1
 8001c30:	f7ff fade 	bl	80011f0 <_test_assert>
 8001c34:	b118      	cbz	r0, 8001c3e <rt_test_009_001_execute+0x7e>
 8001c36:	2300      	movs	r3, #0
 8001c38:	f383 8811 	msr	BASEPRI, r3
 8001c3c:	e7e3      	b.n	8001c06 <rt_test_009_001_execute+0x46>
 8001c3e:	2300      	movs	r3, #0
 8001c40:	f383 8811 	msr	BASEPRI, r3
  test_set_step(4);
 8001c44:	4b0e      	ldr	r3, [pc, #56]	; (8001c80 <rt_test_009_001_execute+0xc0>)
 8001c46:	2204      	movs	r2, #4
 8001c48:	601a      	str	r2, [r3, #0]
    chEvtUnregister(&es1, &el2);
 8001c4a:	4c0c      	ldr	r4, [pc, #48]	; (8001c7c <rt_test_009_001_execute+0xbc>)
 8001c4c:	4669      	mov	r1, sp
 8001c4e:	4620      	mov	r0, r4
 8001c50:	f7ff ff8e 	bl	8001b70 <chEvtUnregister>
 8001c54:	2320      	movs	r3, #32
 8001c56:	f383 8811 	msr	BASEPRI, r3
 8001c5a:	6820      	ldr	r0, [r4, #0]
    test_assert_lock(!chEvtIsListeningI(&es1), "stuck listener");
 8001c5c:	490a      	ldr	r1, [pc, #40]	; (8001c88 <rt_test_009_001_execute+0xc8>)
 8001c5e:	42a0      	cmp	r0, r4
 8001c60:	bf14      	ite	ne
 8001c62:	2000      	movne	r0, #0
 8001c64:	2001      	moveq	r0, #1
 8001c66:	f7ff fac3 	bl	80011f0 <_test_assert>
 8001c6a:	b918      	cbnz	r0, 8001c74 <rt_test_009_001_execute+0xb4>
 8001c6c:	2300      	movs	r3, #0
 8001c6e:	f383 8811 	msr	BASEPRI, r3
  test_end_step(4);
 8001c72:	e7c8      	b.n	8001c06 <rt_test_009_001_execute+0x46>
 8001c74:	2300      	movs	r3, #0
 8001c76:	f383 8811 	msr	BASEPRI, r3
    test_assert_lock(!chEvtIsListeningI(&es1), "stuck listener");
 8001c7a:	e7c4      	b.n	8001c06 <rt_test_009_001_execute+0x46>
 8001c7c:	20000808 	.word	0x20000808
 8001c80:	20001a7c 	.word	0x20001a7c
 8001c84:	0800c12c 	.word	0x0800c12c
 8001c88:	0800c138 	.word	0x0800c138
 8001c8c:	00000000 	.word	0x00000000

08001c90 <chCondObjectInit>:
  tqp->next = (thread_t *)tqp;
 8001c90:	6000      	str	r0, [r0, #0]
  tqp->prev = (thread_t *)tqp;
 8001c92:	6040      	str	r0, [r0, #4]
void chCondObjectInit(condition_variable_t *cp) {

  chDbgCheck(cp != NULL);

  queue_init(&cp->queue);
}
 8001c94:	4770      	bx	lr
 8001c96:	bf00      	nop
	...

08001ca0 <chMtxTryLockS>:
bool chMtxTryLockS(mutex_t *mp) {

  chDbgCheckClassS();
  chDbgCheck(mp != NULL);

  if (mp->owner != NULL) {
 8001ca0:	6883      	ldr	r3, [r0, #8]
 8001ca2:	b10b      	cbz	r3, 8001ca8 <chMtxTryLockS+0x8>
    if (mp->owner == currp) {
      mp->cnt++;
      return true;
    }
#endif
    return false;
 8001ca4:	2000      	movs	r0, #0
#endif
  mp->owner = currp;
  mp->next = currp->mtxlist;
  currp->mtxlist = mp;
  return true;
}
 8001ca6:	4770      	bx	lr
  mp->owner = currp;
 8001ca8:	4b04      	ldr	r3, [pc, #16]	; (8001cbc <chMtxTryLockS+0x1c>)
 8001caa:	699a      	ldr	r2, [r3, #24]
 8001cac:	6082      	str	r2, [r0, #8]
  mp->next = currp->mtxlist;
 8001cae:	6b92      	ldr	r2, [r2, #56]	; 0x38
 8001cb0:	60c2      	str	r2, [r0, #12]
  currp->mtxlist = mp;
 8001cb2:	699b      	ldr	r3, [r3, #24]
 8001cb4:	6398      	str	r0, [r3, #56]	; 0x38
  return true;
 8001cb6:	2001      	movs	r0, #1
 8001cb8:	4770      	bx	lr
 8001cba:	bf00      	nop
 8001cbc:	20001040 	.word	0x20001040

08001cc0 <chMtxTryLock>:
bool chMtxTryLock(mutex_t *mp) {
 8001cc0:	b508      	push	{r3, lr}
 8001cc2:	2320      	movs	r3, #32
 8001cc4:	f383 8811 	msr	BASEPRI, r3
  b = chMtxTryLockS(mp);
 8001cc8:	f7ff ffea 	bl	8001ca0 <chMtxTryLockS>
 8001ccc:	2300      	movs	r3, #0
 8001cce:	f383 8811 	msr	BASEPRI, r3
}
 8001cd2:	bd08      	pop	{r3, pc}
	...

08001ce0 <chSemObjectInit>:
  tqp->next = (thread_t *)tqp;
 8001ce0:	6000      	str	r0, [r0, #0]
  tqp->prev = (thread_t *)tqp;
 8001ce2:	6040      	str	r0, [r0, #4]
void chSemObjectInit(semaphore_t *sp, cnt_t n) {

  chDbgCheck((sp != NULL) && (n >= (cnt_t)0));

  queue_init(&sp->queue);
  sp->cnt = n;
 8001ce4:	6081      	str	r1, [r0, #8]
}
 8001ce6:	4770      	bx	lr
	...

08001cf0 <rt_test_011_010_setup>:
static void rt_test_011_010_setup(void) {
 8001cf0:	b508      	push	{r3, lr}
  chSemObjectInit(&sem1, 1);
 8001cf2:	2101      	movs	r1, #1
 8001cf4:	4801      	ldr	r0, [pc, #4]	; (8001cfc <rt_test_011_010_setup+0xc>)
 8001cf6:	f7ff fff3 	bl	8001ce0 <chSemObjectInit>
}
 8001cfa:	bd08      	pop	{r3, pc}
 8001cfc:	20001354 	.word	0x20001354

08001d00 <rt_test_011_007_setup>:
static void rt_test_011_007_setup(void) {
 8001d00:	b508      	push	{r3, lr}
  chSemObjectInit(&sem1, 0);
 8001d02:	2100      	movs	r1, #0
 8001d04:	4801      	ldr	r0, [pc, #4]	; (8001d0c <rt_test_011_007_setup+0xc>)
 8001d06:	f7ff ffeb 	bl	8001ce0 <chSemObjectInit>
}
 8001d0a:	bd08      	pop	{r3, pc}
 8001d0c:	20001354 	.word	0x20001354

08001d10 <rt_test_006_005_setup>:
 *   specifying the same semaphore for the wait and signal phases. The
 *   counter value must be one on exit.
 * .
 */

static void rt_test_006_005_setup(void) {
 8001d10:	b508      	push	{r3, lr}
  chSemObjectInit(&sem1, 0);
 8001d12:	2100      	movs	r1, #0
 8001d14:	4801      	ldr	r0, [pc, #4]	; (8001d1c <rt_test_006_005_setup+0xc>)
 8001d16:	f7ff ffe3 	bl	8001ce0 <chSemObjectInit>
}
 8001d1a:	bd08      	pop	{r3, pc}
 8001d1c:	20001348 	.word	0x20001348

08001d20 <rt_test_006_004_setup>:
static void rt_test_006_004_setup(void) {
 8001d20:	b508      	push	{r3, lr}
  chSemObjectInit(&sem1, 0);
 8001d22:	2100      	movs	r1, #0
 8001d24:	4801      	ldr	r0, [pc, #4]	; (8001d2c <rt_test_006_004_setup+0xc>)
 8001d26:	f7ff ffdb 	bl	8001ce0 <chSemObjectInit>
}
 8001d2a:	bd08      	pop	{r3, pc}
 8001d2c:	20001348 	.word	0x20001348

08001d30 <rt_test_006_003_setup>:
static void rt_test_006_003_setup(void) {
 8001d30:	b508      	push	{r3, lr}
  chSemObjectInit(&sem1, 0);
 8001d32:	2100      	movs	r1, #0
 8001d34:	4801      	ldr	r0, [pc, #4]	; (8001d3c <rt_test_006_003_setup+0xc>)
 8001d36:	f7ff ffd3 	bl	8001ce0 <chSemObjectInit>
}
 8001d3a:	bd08      	pop	{r3, pc}
 8001d3c:	20001348 	.word	0x20001348

08001d40 <rt_test_006_002_setup>:
static void rt_test_006_002_setup(void) {
 8001d40:	b508      	push	{r3, lr}
  chSemObjectInit(&sem1, 0);
 8001d42:	2100      	movs	r1, #0
 8001d44:	4801      	ldr	r0, [pc, #4]	; (8001d4c <rt_test_006_002_setup+0xc>)
 8001d46:	f7ff ffcb 	bl	8001ce0 <chSemObjectInit>
}
 8001d4a:	bd08      	pop	{r3, pc}
 8001d4c:	20001348 	.word	0x20001348

08001d50 <rt_test_006_001_setup>:
static void rt_test_006_001_setup(void) {
 8001d50:	b508      	push	{r3, lr}
  chSemObjectInit(&sem1, 1);
 8001d52:	2101      	movs	r1, #1
 8001d54:	4801      	ldr	r0, [pc, #4]	; (8001d5c <rt_test_006_001_setup+0xc>)
 8001d56:	f7ff ffc3 	bl	8001ce0 <chSemObjectInit>
}
 8001d5a:	bd08      	pop	{r3, pc}
 8001d5c:	20001348 	.word	0x20001348

08001d60 <chCacheObjectInit>:
                       oc_writef_t writef) {
 8001d60:	e92d 43f8 	stmdb	sp!, {r3, r4, r5, r6, r7, r8, r9, lr}
 8001d64:	4606      	mov	r6, r0
 8001d66:	4688      	mov	r8, r1
 8001d68:	4615      	mov	r5, r2
 8001d6a:	461f      	mov	r7, r3
 8001d6c:	f8dd 9020 	ldr.w	r9, [sp, #32]
 8001d70:	9c09      	ldr	r4, [sp, #36]	; 0x24
  chSemObjectInit(&ocp->cache_sem, (cnt_t)1);
 8001d72:	2101      	movs	r1, #1
 8001d74:	3024      	adds	r0, #36	; 0x24
 8001d76:	f7ff ffb3 	bl	8001ce0 <chSemObjectInit>
  chSemObjectInit(&ocp->lru_sem, (cnt_t)objn);
 8001d7a:	4639      	mov	r1, r7
 8001d7c:	f106 0030 	add.w	r0, r6, #48	; 0x30
 8001d80:	f7ff ffae 	bl	8001ce0 <chSemObjectInit>
  ocp->hashn            = hashn;
 8001d84:	f8c6 8000 	str.w	r8, [r6]
  ocp->hashp            = hashp;
 8001d88:	6075      	str	r5, [r6, #4]
  ocp->objn             = objn;
 8001d8a:	60b7      	str	r7, [r6, #8]
  ocp->objvp            = objvp;
 8001d8c:	6134      	str	r4, [r6, #16]
  ocp->readf            = readf;
 8001d8e:	9b0a      	ldr	r3, [sp, #40]	; 0x28
 8001d90:	63f3      	str	r3, [r6, #60]	; 0x3c
  ocp->writef           = writef;
 8001d92:	9b0b      	ldr	r3, [sp, #44]	; 0x2c
 8001d94:	6433      	str	r3, [r6, #64]	; 0x40
  ocp->lru.hash_next    = NULL;
 8001d96:	2300      	movs	r3, #0
 8001d98:	6173      	str	r3, [r6, #20]
  ocp->lru.hash_prev    = NULL;
 8001d9a:	61b3      	str	r3, [r6, #24]
  ocp->lru.lru_next     = (oc_object_t *)&ocp->lru;
 8001d9c:	f106 0814 	add.w	r8, r6, #20
 8001da0:	f8c6 801c 	str.w	r8, [r6, #28]
  ocp->lru.lru_prev     = (oc_object_t *)&ocp->lru;
 8001da4:	f8c6 8020 	str.w	r8, [r6, #32]
    hashp->hash_next = (oc_object_t *)hashp;
 8001da8:	602d      	str	r5, [r5, #0]
    hashp->hash_prev = (oc_object_t *)hashp;
 8001daa:	606d      	str	r5, [r5, #4]
    hashp++;
 8001dac:	3508      	adds	r5, #8
  } while (hashp < &ocp->hashp[ocp->hashn]);
 8001dae:	6872      	ldr	r2, [r6, #4]
 8001db0:	6833      	ldr	r3, [r6, #0]
 8001db2:	eb02 02c3 	add.w	r2, r2, r3, lsl #3
 8001db6:	42aa      	cmp	r2, r5
 8001db8:	d8f6      	bhi.n	8001da8 <chCacheObjectInit+0x48>
    chSemObjectInit(&objp->obj_sem, (cnt_t)1);
 8001dba:	2101      	movs	r1, #1
 8001dbc:	f104 0018 	add.w	r0, r4, #24
 8001dc0:	f7ff ff8e 	bl	8001ce0 <chSemObjectInit>
    LRU_INSERT_HEAD(ocp, objp);
 8001dc4:	69f3      	ldr	r3, [r6, #28]
 8001dc6:	60a3      	str	r3, [r4, #8]
 8001dc8:	f8c4 800c 	str.w	r8, [r4, #12]
 8001dcc:	69f3      	ldr	r3, [r6, #28]
 8001dce:	60dc      	str	r4, [r3, #12]
 8001dd0:	61f4      	str	r4, [r6, #28]
    objp->obj_group = 0U;
 8001dd2:	2200      	movs	r2, #0
 8001dd4:	6122      	str	r2, [r4, #16]
    objp->obj_key   = 0U;
 8001dd6:	6162      	str	r2, [r4, #20]
    objp->obj_flags = OC_FLAG_INLRU;
 8001dd8:	2301      	movs	r3, #1
 8001dda:	6263      	str	r3, [r4, #36]	; 0x24
    objp->dptr      = NULL;
 8001ddc:	62a2      	str	r2, [r4, #40]	; 0x28
    objvp = (void *)((uint8_t *)objvp + objsz);
 8001dde:	444c      	add	r4, r9
  } while (objn > (ucnt_t)0);
 8001de0:	3f01      	subs	r7, #1
 8001de2:	d1ea      	bne.n	8001dba <chCacheObjectInit+0x5a>
}
 8001de4:	e8bd 83f8 	ldmia.w	sp!, {r3, r4, r5, r6, r7, r8, r9, pc}
	...

08001df0 <chGuardedPoolObjectInitAligned>:
 *
 * @init
 */
void chGuardedPoolObjectInitAligned(guarded_memory_pool_t *gmp,
                                    size_t size,
                                    unsigned align) {
 8001df0:	b510      	push	{r4, lr}
 8001df2:	4604      	mov	r4, r0

  chPoolObjectInitAligned(&gmp->pool, size, align, NULL);
 8001df4:	2300      	movs	r3, #0
 8001df6:	300c      	adds	r0, #12
 8001df8:	f7ff fd02 	bl	8001800 <chPoolObjectInitAligned>
  chSemObjectInit(&gmp->sem, (cnt_t)0);
 8001dfc:	2100      	movs	r1, #0
 8001dfe:	4620      	mov	r0, r4
 8001e00:	f7ff ff6e 	bl	8001ce0 <chSemObjectInit>
}
 8001e04:	bd10      	pop	{r4, pc}
 8001e06:	bf00      	nop
	...

08001e10 <oslib_test_007_003_setup>:
 * - [7.3.1] Trying to allocate with 100mS timeout, must fail because
 *   the pool is empty.
 * .
 */

static void oslib_test_007_003_setup(void) {
 8001e10:	b508      	push	{r3, lr}
 * @init
 */
static inline void chGuardedPoolObjectInit(guarded_memory_pool_t *gmp,
                                           size_t size) {

  chGuardedPoolObjectInitAligned(gmp, size, PORT_NATURAL_ALIGN);
 8001e12:	2204      	movs	r2, #4
 8001e14:	4611      	mov	r1, r2
 8001e16:	4802      	ldr	r0, [pc, #8]	; (8001e20 <oslib_test_007_003_setup+0x10>)
 8001e18:	f7ff ffea 	bl	8001df0 <chGuardedPoolObjectInitAligned>
  chGuardedPoolObjectInit(&gmp1, sizeof (uint32_t));
}
 8001e1c:	bd08      	pop	{r3, pc}
 8001e1e:	bf00      	nop
 8001e20:	20000810 	.word	0x20000810
	...

08001e30 <oslib_test_007_002_setup>:
static void oslib_test_007_002_setup(void) {
 8001e30:	b508      	push	{r3, lr}
 8001e32:	2204      	movs	r2, #4
 8001e34:	4611      	mov	r1, r2
 8001e36:	4802      	ldr	r0, [pc, #8]	; (8001e40 <oslib_test_007_002_setup+0x10>)
 8001e38:	f7ff ffda 	bl	8001df0 <chGuardedPoolObjectInitAligned>
}
 8001e3c:	bd08      	pop	{r3, pc}
 8001e3e:	bf00      	nop
 8001e40:	20000810 	.word	0x20000810
	...

08001e50 <chRegFirstThread>:
 8001e50:	2320      	movs	r3, #32
 8001e52:	f383 8811 	msr	BASEPRI, r3
 */
thread_t *chRegFirstThread(void) {
  thread_t *tp;

  chSysLock();
  tp = ch.rlist.newer;
 8001e56:	4b05      	ldr	r3, [pc, #20]	; (8001e6c <chRegFirstThread+0x1c>)
 8001e58:	6918      	ldr	r0, [r3, #16]
#if CH_CFG_USE_DYNAMIC == TRUE
  tp->refs++;
 8001e5a:	f890 3022 	ldrb.w	r3, [r0, #34]	; 0x22
 8001e5e:	3301      	adds	r3, #1
 8001e60:	f880 3022 	strb.w	r3, [r0, #34]	; 0x22
 8001e64:	2300      	movs	r3, #0
 8001e66:	f383 8811 	msr	BASEPRI, r3
#endif
  chSysUnlock();

  return tp;
}
 8001e6a:	4770      	bx	lr
 8001e6c:	20001040 	.word	0x20001040

08001e70 <chTMStopMeasurementX>:
 *
 * @param[in,out] tmp   pointer to a @p time_measurement_t structure
 *
 * @xclass
 */
NOINLINE void chTMStopMeasurementX(time_measurement_t *tmp) {
 8001e70:	b430      	push	{r4, r5}
 *
 * @return              The realtime counter value.
 */
__STATIC_FORCEINLINE rtcnt_t port_rt_get_counter_value(void) {

  return DWT->CYCCNT;
 8001e72:	4b0e      	ldr	r3, [pc, #56]	; (8001eac <chTMStopMeasurementX+0x3c>)
 8001e74:	685b      	ldr	r3, [r3, #4]

  tm_stop(tmp, chSysGetRealtimeCounterX(), ch.tm.offset);
 8001e76:	4a0e      	ldr	r2, [pc, #56]	; (8001eb0 <chTMStopMeasurementX+0x40>)
 8001e78:	6f51      	ldr	r1, [r2, #116]	; 0x74
  tmp->n++;
 8001e7a:	68c2      	ldr	r2, [r0, #12]
 8001e7c:	3201      	adds	r2, #1
 8001e7e:	60c2      	str	r2, [r0, #12]
  tmp->last = (now - tmp->last) - offset;
 8001e80:	6882      	ldr	r2, [r0, #8]
 8001e82:	1a9b      	subs	r3, r3, r2
 8001e84:	1a5b      	subs	r3, r3, r1
 8001e86:	6083      	str	r3, [r0, #8]
  tmp->cumulative += (rttime_t)tmp->last;
 8001e88:	e9d0 4504 	ldrd	r4, r5, [r0, #16]
 8001e8c:	18e4      	adds	r4, r4, r3
 8001e8e:	f145 0500 	adc.w	r5, r5, #0
 8001e92:	e9c0 4504 	strd	r4, r5, [r0, #16]
  if (tmp->last > tmp->worst) {
 8001e96:	6842      	ldr	r2, [r0, #4]
 8001e98:	4293      	cmp	r3, r2
 8001e9a:	d900      	bls.n	8001e9e <chTMStopMeasurementX+0x2e>
    tmp->worst = tmp->last;
 8001e9c:	6043      	str	r3, [r0, #4]
  if (tmp->last < tmp->best) {
 8001e9e:	6802      	ldr	r2, [r0, #0]
 8001ea0:	4293      	cmp	r3, r2
 8001ea2:	d200      	bcs.n	8001ea6 <chTMStopMeasurementX+0x36>
    tmp->best = tmp->last;
 8001ea4:	6003      	str	r3, [r0, #0]
}
 8001ea6:	bc30      	pop	{r4, r5}
 8001ea8:	4770      	bx	lr
 8001eaa:	bf00      	nop
 8001eac:	e0001000 	.word	0xe0001000
 8001eb0:	20001040 	.word	0x20001040
	...

08001ec0 <chTMStartMeasurementX>:
 8001ec0:	4b01      	ldr	r3, [pc, #4]	; (8001ec8 <chTMStartMeasurementX+0x8>)
 8001ec2:	685b      	ldr	r3, [r3, #4]
  tmp->last = chSysGetRealtimeCounterX();
 8001ec4:	6083      	str	r3, [r0, #8]
}
 8001ec6:	4770      	bx	lr
 8001ec8:	e0001000 	.word	0xe0001000
 8001ecc:	00000000 	.word	0x00000000

08001ed0 <chTMObjectInit>:
  tmp->best       = (rtcnt_t)-1;
 8001ed0:	f04f 33ff 	mov.w	r3, #4294967295	; 0xffffffff
 8001ed4:	6003      	str	r3, [r0, #0]
  tmp->worst      = (rtcnt_t)0;
 8001ed6:	2300      	movs	r3, #0
 8001ed8:	6043      	str	r3, [r0, #4]
  tmp->last       = (rtcnt_t)0;
 8001eda:	6083      	str	r3, [r0, #8]
  tmp->n          = (ucnt_t)0;
 8001edc:	60c3      	str	r3, [r0, #12]
  tmp->cumulative = (rttime_t)0;
 8001ede:	2200      	movs	r2, #0
 8001ee0:	2300      	movs	r3, #0
 8001ee2:	e9c0 2304 	strd	r2, r3, [r0, #16]
}
 8001ee6:	4770      	bx	lr
	...

08001ef0 <chThdTerminate>:
 8001ef0:	2320      	movs	r3, #32
 8001ef2:	f383 8811 	msr	BASEPRI, r3
 * @api
 */
void chThdTerminate(thread_t *tp) {

  chSysLock();
  tp->flags |= CH_FLAG_TERMINATE;
 8001ef6:	f890 3021 	ldrb.w	r3, [r0, #33]	; 0x21
 8001efa:	f043 0304 	orr.w	r3, r3, #4
 8001efe:	f880 3021 	strb.w	r3, [r0, #33]	; 0x21
 8001f02:	2300      	movs	r3, #0
 8001f04:	f383 8811 	msr	BASEPRI, r3
  chSysUnlock();
}
 8001f08:	4770      	bx	lr
 8001f0a:	bf00      	nop
 8001f0c:	0000      	movs	r0, r0
	...

08001f10 <test_terminate_threads>:
                         test_buffer + (WA_SIZE * 4)};

/*
 * Sets a termination request in all the test-spawned threads.
 */
void test_terminate_threads(void) {
 8001f10:	b510      	push	{r4, lr}
  unsigned i;

  for (i = 0; i < MAX_THREADS; i++)
 8001f12:	2400      	movs	r4, #0
 8001f14:	e000      	b.n	8001f18 <test_terminate_threads+0x8>
 8001f16:	3401      	adds	r4, #1
 8001f18:	2c04      	cmp	r4, #4
 8001f1a:	d807      	bhi.n	8001f2c <test_terminate_threads+0x1c>
    if (threads[i])
 8001f1c:	4b04      	ldr	r3, [pc, #16]	; (8001f30 <test_terminate_threads+0x20>)
 8001f1e:	f853 0024 	ldr.w	r0, [r3, r4, lsl #2]
 8001f22:	2800      	cmp	r0, #0
 8001f24:	d0f7      	beq.n	8001f16 <test_terminate_threads+0x6>
      chThdTerminate(threads[i]);
 8001f26:	f7ff ffe3 	bl	8001ef0 <chThdTerminate>
 8001f2a:	e7f4      	b.n	8001f16 <test_terminate_threads+0x6>
}
 8001f2c:	bd10      	pop	{r4, pc}
 8001f2e:	bf00      	nop
 8001f30:	20001a94 	.word	0x20001a94
	...

08001f40 <cmdexec>:
                      char *name, int argc, char *argv[]) {
 8001f40:	b5f8      	push	{r3, r4, r5, r6, r7, lr}
 8001f42:	4604      	mov	r4, r0
 8001f44:	460f      	mov	r7, r1
 8001f46:	4615      	mov	r5, r2
 8001f48:	461e      	mov	r6, r3
  while (scp->sc_name != NULL) {
 8001f4a:	6820      	ldr	r0, [r4, #0]
 8001f4c:	b160      	cbz	r0, 8001f68 <cmdexec+0x28>
    if (strcmp(scp->sc_name, name) == 0) {
 8001f4e:	4629      	mov	r1, r5
 8001f50:	f7fe fa6a 	bl	8000428 <strcmp>
 8001f54:	b108      	cbz	r0, 8001f5a <cmdexec+0x1a>
    scp++;
 8001f56:	3408      	adds	r4, #8
 8001f58:	e7f7      	b.n	8001f4a <cmdexec+0xa>
      scp->sc_function(chp, argc, argv);
 8001f5a:	6863      	ldr	r3, [r4, #4]
 8001f5c:	9a06      	ldr	r2, [sp, #24]
 8001f5e:	4631      	mov	r1, r6
 8001f60:	4638      	mov	r0, r7
 8001f62:	4798      	blx	r3
      return false;
 8001f64:	2000      	movs	r0, #0
 8001f66:	e000      	b.n	8001f6a <cmdexec+0x2a>
  return true;
 8001f68:	2001      	movs	r0, #1
}
 8001f6a:	bdf8      	pop	{r3, r4, r5, r6, r7, pc}
 8001f6c:	0000      	movs	r0, r0
	...

08001f70 <chThdSetPriority>:
tprio_t chThdSetPriority(tprio_t newprio) {
 8001f70:	b510      	push	{r4, lr}
 8001f72:	2320      	movs	r3, #32
 8001f74:	f383 8811 	msr	BASEPRI, r3
  oldprio = currp->realprio;
 8001f78:	4b09      	ldr	r3, [pc, #36]	; (8001fa0 <chThdSetPriority+0x30>)
 8001f7a:	699b      	ldr	r3, [r3, #24]
 8001f7c:	6bdc      	ldr	r4, [r3, #60]	; 0x3c
  if ((currp->prio == currp->realprio) || (newprio > currp->prio)) {
 8001f7e:	689a      	ldr	r2, [r3, #8]
 8001f80:	42a2      	cmp	r2, r4
 8001f82:	d001      	beq.n	8001f88 <chThdSetPriority+0x18>
 8001f84:	4282      	cmp	r2, r0
 8001f86:	d200      	bcs.n	8001f8a <chThdSetPriority+0x1a>
    currp->prio = newprio;
 8001f88:	6098      	str	r0, [r3, #8]
  currp->realprio = newprio;
 8001f8a:	4b05      	ldr	r3, [pc, #20]	; (8001fa0 <chThdSetPriority+0x30>)
 8001f8c:	699b      	ldr	r3, [r3, #24]
 8001f8e:	63d8      	str	r0, [r3, #60]	; 0x3c
  chSchRescheduleS();
 8001f90:	f008 fa7e 	bl	800a490 <chSchRescheduleS>
 8001f94:	2300      	movs	r3, #0
 8001f96:	f383 8811 	msr	BASEPRI, r3
}
 8001f9a:	4620      	mov	r0, r4
 8001f9c:	bd10      	pop	{r4, pc}
 8001f9e:	bf00      	nop
 8001fa0:	20001040 	.word	0x20001040
	...

08001fb0 <rt_test_004_004_execute>:
 * - [4.4.3] Raising thread priority above the boosted level.
 * - [4.4.4] Restoring original conditions.
 * .
 */

static void rt_test_004_004_execute(void) {
 8001fb0:	b570      	push	{r4, r5, r6, lr}
  tprio_t prio, p1;

  /* [4.4.1] Simulating a priority boost situation (prio > realprio).*/
  test_set_step(1);
 8001fb2:	4b39      	ldr	r3, [pc, #228]	; (8002098 <rt_test_004_004_execute+0xe8>)
 8001fb4:	2201      	movs	r2, #1
 8001fb6:	601a      	str	r2, [r3, #0]
  *
  * @xclass
  */
static inline thread_t *chThdGetSelfX(void) {

  return ch.rlist.current;
 8001fb8:	4b38      	ldr	r3, [pc, #224]	; (800209c <rt_test_004_004_execute+0xec>)
 8001fba:	699a      	ldr	r2, [r3, #24]
 *
 * @xclass
 */
static inline tprio_t chThdGetPriorityX(void) {

  return chThdGetSelfX()->prio;
 8001fbc:	6895      	ldr	r5, [r2, #8]
  {
    prio = chThdGetPriorityX();
    chThdGetSelfX()->prio += 2;
 8001fbe:	1cac      	adds	r4, r5, #2
 8001fc0:	6094      	str	r4, [r2, #8]
  return ch.rlist.current;
 8001fc2:	699b      	ldr	r3, [r3, #24]
  return chThdGetSelfX()->prio;
 8001fc4:	6898      	ldr	r0, [r3, #8]
    test_assert(chThdGetPriorityX() == prio + 2, "unexpected priority level");
 8001fc6:	4936      	ldr	r1, [pc, #216]	; (80020a0 <rt_test_004_004_execute+0xf0>)
 8001fc8:	4284      	cmp	r4, r0
 8001fca:	bf14      	ite	ne
 8001fcc:	2000      	movne	r0, #0
 8001fce:	2001      	moveq	r0, #1
 8001fd0:	f7ff f90e 	bl	80011f0 <_test_assert>
 8001fd4:	b100      	cbz	r0, 8001fd8 <rt_test_004_004_execute+0x28>
    chThdGetSelfX()->prio = prio;
    chThdGetSelfX()->realprio = prio;
    chSysUnlock();
  }
  test_end_step(4);
}
 8001fd6:	bd70      	pop	{r4, r5, r6, pc}
  test_set_step(2);
 8001fd8:	4b2f      	ldr	r3, [pc, #188]	; (8002098 <rt_test_004_004_execute+0xe8>)
 8001fda:	2202      	movs	r2, #2
 8001fdc:	601a      	str	r2, [r3, #0]
    p1 = chThdSetPriority(prio + 1);
 8001fde:	1c6e      	adds	r6, r5, #1
 8001fe0:	4630      	mov	r0, r6
 8001fe2:	f7ff ffc5 	bl	8001f70 <chThdSetPriority>
    test_assert(p1 == prio, "unexpected returned priority level");
 8001fe6:	492f      	ldr	r1, [pc, #188]	; (80020a4 <rt_test_004_004_execute+0xf4>)
 8001fe8:	42a8      	cmp	r0, r5
 8001fea:	bf14      	ite	ne
 8001fec:	2000      	movne	r0, #0
 8001fee:	2001      	moveq	r0, #1
 8001ff0:	f7ff f8fe 	bl	80011f0 <_test_assert>
 8001ff4:	2800      	cmp	r0, #0
 8001ff6:	d1ee      	bne.n	8001fd6 <rt_test_004_004_execute+0x26>
  return ch.rlist.current;
 8001ff8:	4b28      	ldr	r3, [pc, #160]	; (800209c <rt_test_004_004_execute+0xec>)
 8001ffa:	699b      	ldr	r3, [r3, #24]
    test_assert(chThdGetSelfX()->prio == prio + 2, "unexpected priority level");
 8001ffc:	6898      	ldr	r0, [r3, #8]
 8001ffe:	4928      	ldr	r1, [pc, #160]	; (80020a0 <rt_test_004_004_execute+0xf0>)
 8002000:	42a0      	cmp	r0, r4
 8002002:	bf14      	ite	ne
 8002004:	2000      	movne	r0, #0
 8002006:	2001      	moveq	r0, #1
 8002008:	f7ff f8f2 	bl	80011f0 <_test_assert>
 800200c:	2800      	cmp	r0, #0
 800200e:	d1e2      	bne.n	8001fd6 <rt_test_004_004_execute+0x26>
 8002010:	4b22      	ldr	r3, [pc, #136]	; (800209c <rt_test_004_004_execute+0xec>)
 8002012:	699b      	ldr	r3, [r3, #24]
    test_assert(chThdGetSelfX()->realprio == prio + 1, "unexpected returned real priority level");
 8002014:	6bd8      	ldr	r0, [r3, #60]	; 0x3c
 8002016:	4924      	ldr	r1, [pc, #144]	; (80020a8 <rt_test_004_004_execute+0xf8>)
 8002018:	42b0      	cmp	r0, r6
 800201a:	bf14      	ite	ne
 800201c:	2000      	movne	r0, #0
 800201e:	2001      	moveq	r0, #1
 8002020:	f7ff f8e6 	bl	80011f0 <_test_assert>
 8002024:	2800      	cmp	r0, #0
 8002026:	d1d6      	bne.n	8001fd6 <rt_test_004_004_execute+0x26>
  test_set_step(3);
 8002028:	4b1b      	ldr	r3, [pc, #108]	; (8002098 <rt_test_004_004_execute+0xe8>)
 800202a:	2203      	movs	r2, #3
 800202c:	601a      	str	r2, [r3, #0]
    p1 = chThdSetPriority(prio + 3);
 800202e:	18ac      	adds	r4, r5, r2
 8002030:	4620      	mov	r0, r4
 8002032:	f7ff ff9d 	bl	8001f70 <chThdSetPriority>
    test_assert(p1 == prio + 1, "unexpected returned priority level");
 8002036:	491b      	ldr	r1, [pc, #108]	; (80020a4 <rt_test_004_004_execute+0xf4>)
 8002038:	4286      	cmp	r6, r0
 800203a:	bf14      	ite	ne
 800203c:	2000      	movne	r0, #0
 800203e:	2001      	moveq	r0, #1
 8002040:	f7ff f8d6 	bl	80011f0 <_test_assert>
 8002044:	2800      	cmp	r0, #0
 8002046:	d1c6      	bne.n	8001fd6 <rt_test_004_004_execute+0x26>
 8002048:	4b14      	ldr	r3, [pc, #80]	; (800209c <rt_test_004_004_execute+0xec>)
 800204a:	699b      	ldr	r3, [r3, #24]
    test_assert(chThdGetSelfX()->prio == prio + 3, "unexpected priority level");
 800204c:	6898      	ldr	r0, [r3, #8]
 800204e:	4914      	ldr	r1, [pc, #80]	; (80020a0 <rt_test_004_004_execute+0xf0>)
 8002050:	42a0      	cmp	r0, r4
 8002052:	bf14      	ite	ne
 8002054:	2000      	movne	r0, #0
 8002056:	2001      	moveq	r0, #1
 8002058:	f7ff f8ca 	bl	80011f0 <_test_assert>
 800205c:	2800      	cmp	r0, #0
 800205e:	d1ba      	bne.n	8001fd6 <rt_test_004_004_execute+0x26>
 8002060:	4b0e      	ldr	r3, [pc, #56]	; (800209c <rt_test_004_004_execute+0xec>)
 8002062:	699b      	ldr	r3, [r3, #24]
    test_assert(chThdGetSelfX()->realprio == prio + 3, "unexpected real priority level");
 8002064:	6bd8      	ldr	r0, [r3, #60]	; 0x3c
 8002066:	4911      	ldr	r1, [pc, #68]	; (80020ac <rt_test_004_004_execute+0xfc>)
 8002068:	42a0      	cmp	r0, r4
 800206a:	bf14      	ite	ne
 800206c:	2000      	movne	r0, #0
 800206e:	2001      	moveq	r0, #1
 8002070:	f7ff f8be 	bl	80011f0 <_test_assert>
 8002074:	2800      	cmp	r0, #0
 8002076:	d1ae      	bne.n	8001fd6 <rt_test_004_004_execute+0x26>
  test_set_step(4);
 8002078:	4b07      	ldr	r3, [pc, #28]	; (8002098 <rt_test_004_004_execute+0xe8>)
 800207a:	2204      	movs	r2, #4
 800207c:	601a      	str	r2, [r3, #0]
 800207e:	2320      	movs	r3, #32
 8002080:	f383 8811 	msr	BASEPRI, r3
 8002084:	4b05      	ldr	r3, [pc, #20]	; (800209c <rt_test_004_004_execute+0xec>)
 8002086:	699a      	ldr	r2, [r3, #24]
    chThdGetSelfX()->prio = prio;
 8002088:	6095      	str	r5, [r2, #8]
 800208a:	699b      	ldr	r3, [r3, #24]
    chThdGetSelfX()->realprio = prio;
 800208c:	63dd      	str	r5, [r3, #60]	; 0x3c
 800208e:	2300      	movs	r3, #0
 8002090:	f383 8811 	msr	BASEPRI, r3
  test_end_step(4);
 8002094:	e79f      	b.n	8001fd6 <rt_test_004_004_execute+0x26>
 8002096:	bf00      	nop
 8002098:	20001a7c 	.word	0x20001a7c
 800209c:	20001040 	.word	0x20001040
 80020a0:	0800c148 	.word	0x0800c148
 80020a4:	0800c164 	.word	0x0800c164
 80020a8:	0800c188 	.word	0x0800c188
 80020ac:	0800c1b0 	.word	0x0800c1b0

080020b0 <rt_test_004_003_execute>:
static void rt_test_004_003_execute(void) {
 80020b0:	b570      	push	{r4, r5, r6, lr}
  test_set_step(1);
 80020b2:	4b1d      	ldr	r3, [pc, #116]	; (8002128 <rt_test_004_003_execute+0x78>)
 80020b4:	2201      	movs	r2, #1
 80020b6:	601a      	str	r2, [r3, #0]
 80020b8:	4b1c      	ldr	r3, [pc, #112]	; (800212c <rt_test_004_003_execute+0x7c>)
 80020ba:	699b      	ldr	r3, [r3, #24]
  return chThdGetSelfX()->prio;
 80020bc:	689d      	ldr	r5, [r3, #8]
    p1 = chThdSetPriority(prio + 1);
 80020be:	18ae      	adds	r6, r5, r2
 80020c0:	4630      	mov	r0, r6
 80020c2:	f7ff ff55 	bl	8001f70 <chThdSetPriority>
 80020c6:	4604      	mov	r4, r0
    test_assert(p1 == prio, "unexpected returned priority level");
 80020c8:	4919      	ldr	r1, [pc, #100]	; (8002130 <rt_test_004_003_execute+0x80>)
 80020ca:	42a8      	cmp	r0, r5
 80020cc:	bf14      	ite	ne
 80020ce:	2000      	movne	r0, #0
 80020d0:	2001      	moveq	r0, #1
 80020d2:	f7ff f88d 	bl	80011f0 <_test_assert>
 80020d6:	b100      	cbz	r0, 80020da <rt_test_004_003_execute+0x2a>
}
 80020d8:	bd70      	pop	{r4, r5, r6, pc}
  return ch.rlist.current;
 80020da:	4b14      	ldr	r3, [pc, #80]	; (800212c <rt_test_004_003_execute+0x7c>)
 80020dc:	699b      	ldr	r3, [r3, #24]
  return chThdGetSelfX()->prio;
 80020de:	6898      	ldr	r0, [r3, #8]
    test_assert(chThdGetPriorityX() == prio + 1, "unexpected priority level");
 80020e0:	4914      	ldr	r1, [pc, #80]	; (8002134 <rt_test_004_003_execute+0x84>)
 80020e2:	4286      	cmp	r6, r0
 80020e4:	bf14      	ite	ne
 80020e6:	2000      	movne	r0, #0
 80020e8:	2001      	moveq	r0, #1
 80020ea:	f7ff f881 	bl	80011f0 <_test_assert>
 80020ee:	2800      	cmp	r0, #0
 80020f0:	d1f2      	bne.n	80020d8 <rt_test_004_003_execute+0x28>
  test_set_step(2);
 80020f2:	4b0d      	ldr	r3, [pc, #52]	; (8002128 <rt_test_004_003_execute+0x78>)
 80020f4:	2202      	movs	r2, #2
 80020f6:	601a      	str	r2, [r3, #0]
    p1 = chThdSetPriority(p1);
 80020f8:	4620      	mov	r0, r4
 80020fa:	f7ff ff39 	bl	8001f70 <chThdSetPriority>
    test_assert(p1 == prio + 1, "unexpected returned priority level");
 80020fe:	490c      	ldr	r1, [pc, #48]	; (8002130 <rt_test_004_003_execute+0x80>)
 8002100:	4286      	cmp	r6, r0
 8002102:	bf14      	ite	ne
 8002104:	2000      	movne	r0, #0
 8002106:	2001      	moveq	r0, #1
 8002108:	f7ff f872 	bl	80011f0 <_test_assert>
 800210c:	2800      	cmp	r0, #0
 800210e:	d1e3      	bne.n	80020d8 <rt_test_004_003_execute+0x28>
  return ch.rlist.current;
 8002110:	4b06      	ldr	r3, [pc, #24]	; (800212c <rt_test_004_003_execute+0x7c>)
 8002112:	699b      	ldr	r3, [r3, #24]
  return chThdGetSelfX()->prio;
 8002114:	6898      	ldr	r0, [r3, #8]
    test_assert(chThdGetPriorityX() == prio, "unexpected priority level");
 8002116:	4907      	ldr	r1, [pc, #28]	; (8002134 <rt_test_004_003_execute+0x84>)
 8002118:	4285      	cmp	r5, r0
 800211a:	bf14      	ite	ne
 800211c:	2000      	movne	r0, #0
 800211e:	2001      	moveq	r0, #1
 8002120:	f7ff f866 	bl	80011f0 <_test_assert>
  test_end_step(2);
 8002124:	e7d8      	b.n	80020d8 <rt_test_004_003_execute+0x28>
 8002126:	bf00      	nop
 8002128:	20001a7c 	.word	0x20001a7c
 800212c:	20001040 	.word	0x20001040
 8002130:	0800c164 	.word	0x0800c164
 8002134:	0800c148 	.word	0x0800c148
	...

08002140 <rt_test_003_001_execute>:
static void rt_test_003_001_execute(void) {
 8002140:	b510      	push	{r4, lr}
  test_set_step(1);
 8002142:	4b05      	ldr	r3, [pc, #20]	; (8002158 <rt_test_003_001_execute+0x18>)
 8002144:	2201      	movs	r2, #1
 8002146:	601a      	str	r2, [r3, #0]
 * @notapi
 */
static inline systime_t port_timer_get_time(void) {
  extern systime_t stGetCounter(void);

  return stGetCounter();
 8002148:	f008 fe52 	bl	800adf0 <stGetCounter>
 800214c:	4604      	mov	r4, r0
 800214e:	f008 fe4f 	bl	800adf0 <stGetCounter>
    while (time == chVTGetSystemTimeX()) {
 8002152:	4284      	cmp	r4, r0
 8002154:	d0fb      	beq.n	800214e <rt_test_003_001_execute+0xe>
}
 8002156:	bd10      	pop	{r4, pc}
 8002158:	20001a7c 	.word	0x20001a7c
 800215c:	00000000 	.word	0x00000000

08002160 <_test_assert_time_window>:
                              const char *msg) {
 8002160:	b570      	push	{r4, r5, r6, lr}
 8002162:	4605      	mov	r5, r0
 8002164:	460c      	mov	r4, r1
 8002166:	4616      	mov	r6, r2
 8002168:	f008 fe42 	bl	800adf0 <stGetCounter>
 */
static inline bool chTimeIsInRangeX(systime_t time,
                                    systime_t start,
                                    systime_t end) {

  return (bool)((systime_t)((systime_t)time - (systime_t)start) <
 800216c:	1b40      	subs	r0, r0, r5
                (systime_t)((systime_t)end - (systime_t)start));
 800216e:	1b64      	subs	r4, r4, r5
  return _test_assert(osalTimeIsInRangeX(osalOsGetSystemTimeX(), start, end),
 8002170:	4631      	mov	r1, r6
 8002172:	42a0      	cmp	r0, r4
 8002174:	bf2c      	ite	cs
 8002176:	2000      	movcs	r0, #0
 8002178:	2001      	movcc	r0, #1
 800217a:	f7ff f839 	bl	80011f0 <_test_assert>
}
 800217e:	bd70      	pop	{r4, r5, r6, pc}

08002180 <chMsgRelease>:
 * @param[in] tp        pointer to the thread
 * @param[in] msg       message to be returned to the sender
 *
 * @api
 */
void chMsgRelease(thread_t *tp, msg_t msg) {
 8002180:	b508      	push	{r3, lr}
 8002182:	2320      	movs	r3, #32
 8002184:	f383 8811 	msr	BASEPRI, r3
 */
static inline void chMsgReleaseS(thread_t *tp, msg_t msg) {

  chDbgCheckClassS();

  chSchWakeupS(tp, msg);
 8002188:	f008 f9da 	bl	800a540 <chSchWakeupS>
 800218c:	2300      	movs	r3, #0
 800218e:	f383 8811 	msr	BASEPRI, r3

  chSysLock();
  chDbgAssert(tp->state == CH_STATE_SNDMSG, "invalid state");
  chMsgReleaseS(tp, msg);
  chSysUnlock();
}
 8002192:	bd08      	pop	{r3, pc}
	...

080021a0 <chCondSignal>:
 *
 * @param[in] cp        pointer to the @p condition_variable_t structure
 *
 * @api
 */
void chCondSignal(condition_variable_t *cp) {
 80021a0:	b508      	push	{r3, lr}
 80021a2:	4603      	mov	r3, r0
 80021a4:	2220      	movs	r2, #32
 80021a6:	f382 8811 	msr	BASEPRI, r2
 *
 * @notapi
 */
static inline bool queue_notempty(const threads_queue_t *tqp) {

  return (bool)(tqp->next != (const thread_t *)tqp);
 80021aa:	6800      	ldr	r0, [r0, #0]

  chDbgCheck(cp != NULL);

  chSysLock();
  if (queue_notempty(&cp->queue)) {
 80021ac:	4283      	cmp	r3, r0
 80021ae:	d005      	beq.n	80021bc <chCondSignal+0x1c>
}

static inline thread_t *queue_fifo_remove(threads_queue_t *tqp) {
  thread_t *tp = tqp->next;

  tqp->next             = tp->queue.next;
 80021b0:	6802      	ldr	r2, [r0, #0]
 80021b2:	601a      	str	r2, [r3, #0]
  tqp->next->queue.prev = (thread_t *)tqp;
 80021b4:	6053      	str	r3, [r2, #4]
    chSchWakeupS(queue_fifo_remove(&cp->queue), MSG_OK);
 80021b6:	2100      	movs	r1, #0
 80021b8:	f008 f9c2 	bl	800a540 <chSchWakeupS>
 80021bc:	2300      	movs	r3, #0
 80021be:	f383 8811 	msr	BASEPRI, r3
  }
  chSysUnlock();
}
 80021c2:	bd08      	pop	{r3, pc}
	...

080021d0 <chSemSignal>:
 *
 * @param[in] sp        pointer to a @p semaphore_t structure
 *
 * @api
 */
void chSemSignal(semaphore_t *sp) {
 80021d0:	b508      	push	{r3, lr}
 80021d2:	2220      	movs	r2, #32
 80021d4:	f382 8811 	msr	BASEPRI, r2

  chSysLock();
  chDbgAssert(((sp->cnt >= (cnt_t)0) && queue_isempty(&sp->queue)) ||
              ((sp->cnt < (cnt_t)0) && queue_notempty(&sp->queue)),
              "inconsistent semaphore");
  if (++sp->cnt <= (cnt_t)0) {
 80021d8:	6882      	ldr	r2, [r0, #8]
 80021da:	3201      	adds	r2, #1
 80021dc:	6082      	str	r2, [r0, #8]
 80021de:	2a00      	cmp	r2, #0
 80021e0:	dd03      	ble.n	80021ea <chSemSignal+0x1a>
 80021e2:	2300      	movs	r3, #0
 80021e4:	f383 8811 	msr	BASEPRI, r3
    chSchWakeupS(queue_fifo_remove(&sp->queue), MSG_OK);
  }
  chSysUnlock();
}
 80021e8:	bd08      	pop	{r3, pc}
 80021ea:	4603      	mov	r3, r0
  thread_t *tp = tqp->next;
 80021ec:	6800      	ldr	r0, [r0, #0]
  tqp->next             = tp->queue.next;
 80021ee:	6802      	ldr	r2, [r0, #0]
 80021f0:	601a      	str	r2, [r3, #0]
  tqp->next->queue.prev = (thread_t *)tqp;
 80021f2:	6053      	str	r3, [r2, #4]
    chSchWakeupS(queue_fifo_remove(&sp->queue), MSG_OK);
 80021f4:	2100      	movs	r1, #0
 80021f6:	f008 f9a3 	bl	800a540 <chSchWakeupS>
 80021fa:	e7f2      	b.n	80021e2 <chSemSignal+0x12>
 80021fc:	0000      	movs	r0, r0
	...

08002200 <chThdResumeS>:
 * @param[in] trp       a pointer to a thread reference object
 * @param[in] msg       the message code
 *
 * @iclass
 */
void chThdResumeS(thread_reference_t *trp, msg_t msg) {
 8002200:	b508      	push	{r3, lr}
 8002202:	4603      	mov	r3, r0

  if (*trp != NULL) {
 8002204:	6800      	ldr	r0, [r0, #0]
 8002206:	b118      	cbz	r0, 8002210 <chThdResumeS+0x10>
    thread_t *tp = *trp;

    chDbgAssert(tp->state == CH_STATE_SUSPENDED, "not CH_STATE_SUSPENDED");

    *trp = NULL;
 8002208:	2200      	movs	r2, #0
 800220a:	601a      	str	r2, [r3, #0]
    chSchWakeupS(tp, msg);
 800220c:	f008 f998 	bl	800a540 <chSchWakeupS>
  }
}
 8002210:	bd08      	pop	{r3, pc}
 8002212:	bf00      	nop
	...

08002220 <chThdResume>:
 * @param[in] trp       a pointer to a thread reference object
 * @param[in] msg       the message code
 *
 * @api
 */
void chThdResume(thread_reference_t *trp, msg_t msg) {
 8002220:	b508      	push	{r3, lr}
 8002222:	2320      	movs	r3, #32
 8002224:	f383 8811 	msr	BASEPRI, r3

  chSysLock();
  chThdResumeS(trp, msg);
 8002228:	f7ff ffea 	bl	8002200 <chThdResumeS>
 800222c:	2300      	movs	r3, #0
 800222e:	f383 8811 	msr	BASEPRI, r3
  chSysUnlock();
}
 8002232:	bd08      	pop	{r3, pc}
	...

08002240 <bmk_thread4>:
static THD_FUNCTION(bmk_thread4, p) {
 8002240:	b510      	push	{r4, lr}
  return ch.rlist.current;
 8002242:	4b07      	ldr	r3, [pc, #28]	; (8002260 <bmk_thread4+0x20>)
 8002244:	699c      	ldr	r4, [r3, #24]
 8002246:	2320      	movs	r3, #32
 8002248:	f383 8811 	msr	BASEPRI, r3
    chSchGoSleepS(CH_STATE_SUSPENDED);
 800224c:	2003      	movs	r0, #3
 800224e:	f008 f92f 	bl	800a4b0 <chSchGoSleepS>
    msg = self->u.rdymsg;
 8002252:	6a63      	ldr	r3, [r4, #36]	; 0x24
  } while (msg == MSG_OK);
 8002254:	2b00      	cmp	r3, #0
 8002256:	d0f9      	beq.n	800224c <bmk_thread4+0xc>
 8002258:	2300      	movs	r3, #0
 800225a:	f383 8811 	msr	BASEPRI, r3
}
 800225e:	bd10      	pop	{r4, pc}
 8002260:	20001040 	.word	0x20001040
	...

08002270 <chMsgWaitS>:
thread_t *chMsgWaitS(void) {
 8002270:	b508      	push	{r3, lr}
  return (bool)(tp->msgqueue.next != (thread_t *)&tp->msgqueue);
 8002272:	4b0b      	ldr	r3, [pc, #44]	; (80022a0 <chMsgWaitS+0x30>)
 8002274:	699b      	ldr	r3, [r3, #24]
 8002276:	f853 2f2c 	ldr.w	r2, [r3, #44]!
  if (!chMsgIsPendingI(currp)) {
 800227a:	429a      	cmp	r2, r3
 800227c:	d00b      	beq.n	8002296 <chMsgWaitS+0x26>
  tp = queue_fifo_remove(&currp->msgqueue);
 800227e:	4b08      	ldr	r3, [pc, #32]	; (80022a0 <chMsgWaitS+0x30>)
 8002280:	699b      	ldr	r3, [r3, #24]
 8002282:	f103 012c 	add.w	r1, r3, #44	; 0x2c
  thread_t *tp = tqp->next;
 8002286:	6ad8      	ldr	r0, [r3, #44]	; 0x2c
  tqp->next             = tp->queue.next;
 8002288:	6802      	ldr	r2, [r0, #0]
 800228a:	62da      	str	r2, [r3, #44]	; 0x2c
  tqp->next->queue.prev = (thread_t *)tqp;
 800228c:	6051      	str	r1, [r2, #4]
  tp->state = CH_STATE_SNDMSG;
 800228e:	230d      	movs	r3, #13
 8002290:	f880 3020 	strb.w	r3, [r0, #32]
}
 8002294:	bd08      	pop	{r3, pc}
    chSchGoSleepS(CH_STATE_WTMSG);
 8002296:	200e      	movs	r0, #14
 8002298:	f008 f90a 	bl	800a4b0 <chSchGoSleepS>
 800229c:	e7ef      	b.n	800227e <chMsgWaitS+0xe>
 800229e:	bf00      	nop
 80022a0:	20001040 	.word	0x20001040
	...

080022b0 <bmk_thread1>:
static THD_FUNCTION(bmk_thread1, p) {
 80022b0:	b510      	push	{r4, lr}
 80022b2:	2320      	movs	r3, #32
 80022b4:	f383 8811 	msr	BASEPRI, r3
  tp = chMsgWaitS();
 80022b8:	f7ff ffda 	bl	8002270 <chMsgWaitS>
 80022bc:	2200      	movs	r2, #0
 80022be:	f382 8811 	msr	BASEPRI, r2
  return tp->u.sentmsg;
 80022c2:	6a44      	ldr	r4, [r0, #36]	; 0x24
    chMsgRelease(tp, msg);
 80022c4:	4621      	mov	r1, r4
 80022c6:	f7ff ff5b 	bl	8002180 <chMsgRelease>
  } while (msg);
 80022ca:	2c00      	cmp	r4, #0
 80022cc:	d1f1      	bne.n	80022b2 <bmk_thread1+0x2>
}
 80022ce:	bd10      	pop	{r4, pc}

080022d0 <chDelegateDispatch>:
 *          are sending messages then the requests are served in priority
 *          order.
 *
 * @api
 */
void chDelegateDispatch(void) {
 80022d0:	b510      	push	{r4, lr}
 80022d2:	2320      	movs	r3, #32
 80022d4:	f383 8811 	msr	BASEPRI, r3
  tp = chMsgWaitS();
 80022d8:	f7ff ffca 	bl	8002270 <chMsgWaitS>
 80022dc:	4604      	mov	r4, r0
 80022de:	2300      	movs	r3, #0
 80022e0:	f383 8811 	msr	BASEPRI, r3
  return tp->u.sentmsg;
 80022e4:	6a43      	ldr	r3, [r0, #36]	; 0x24
  const call_message_t *cmp;
  msg_t ret;

  tp = chMsgWait();
  cmp = (const call_message_t *)chMsgGet(tp);
  ret = cmp->veneer(cmp->argsp);
 80022e6:	681a      	ldr	r2, [r3, #0]
 80022e8:	6858      	ldr	r0, [r3, #4]
 80022ea:	4790      	blx	r2
 80022ec:	4601      	mov	r1, r0

  chMsgRelease(tp, ret);
 80022ee:	4620      	mov	r0, r4
 80022f0:	f7ff ff46 	bl	8002180 <chMsgRelease>
}
 80022f4:	bd10      	pop	{r4, pc}
 80022f6:	bf00      	nop
	...

08002300 <chEvtWaitAll>:
 *                      for, @p ALL_EVENTS requires all the events
 * @return              The mask of the served and cleared events.
 *
 * @api
 */
eventmask_t chEvtWaitAll(eventmask_t events) {
 8002300:	b538      	push	{r3, r4, r5, lr}
 8002302:	4604      	mov	r4, r0
  thread_t *ctp = currp;
 8002304:	4b0b      	ldr	r3, [pc, #44]	; (8002334 <chEvtWaitAll+0x34>)
 8002306:	699d      	ldr	r5, [r3, #24]
 8002308:	2320      	movs	r3, #32
 800230a:	f383 8811 	msr	BASEPRI, r3

  chSysLock();
  if ((ctp->epending & events) != events) {
 800230e:	6b6b      	ldr	r3, [r5, #52]	; 0x34
 8002310:	ea30 0303 	bics.w	r3, r0, r3
 8002314:	d108      	bne.n	8002328 <chEvtWaitAll+0x28>
    ctp->u.ewmask = events;
    chSchGoSleepS(CH_STATE_WTANDEVT);
  }
  ctp->epending &= ~events;
 8002316:	6b6b      	ldr	r3, [r5, #52]	; 0x34
 8002318:	ea23 0304 	bic.w	r3, r3, r4
 800231c:	636b      	str	r3, [r5, #52]	; 0x34
 800231e:	2300      	movs	r3, #0
 8002320:	f383 8811 	msr	BASEPRI, r3
  chSysUnlock();

  return events;
}
 8002324:	4620      	mov	r0, r4
 8002326:	bd38      	pop	{r3, r4, r5, pc}
    ctp->u.ewmask = events;
 8002328:	6268      	str	r0, [r5, #36]	; 0x24
    chSchGoSleepS(CH_STATE_WTANDEVT);
 800232a:	200b      	movs	r0, #11
 800232c:	f008 f8c0 	bl	800a4b0 <chSchGoSleepS>
 8002330:	e7f1      	b.n	8002316 <chEvtWaitAll+0x16>
 8002332:	bf00      	nop
 8002334:	20001040 	.word	0x20001040
	...

08002340 <chEvtWaitAny>:
eventmask_t chEvtWaitAny(eventmask_t events) {
 8002340:	b538      	push	{r3, r4, r5, lr}
 8002342:	4604      	mov	r4, r0
  thread_t *ctp = currp;
 8002344:	4b0b      	ldr	r3, [pc, #44]	; (8002374 <chEvtWaitAny+0x34>)
 8002346:	699d      	ldr	r5, [r3, #24]
 8002348:	2320      	movs	r3, #32
 800234a:	f383 8811 	msr	BASEPRI, r3
  m = ctp->epending & events;
 800234e:	6b6b      	ldr	r3, [r5, #52]	; 0x34
  if (m == (eventmask_t)0) {
 8002350:	4018      	ands	r0, r3
 8002352:	d007      	beq.n	8002364 <chEvtWaitAny+0x24>
  ctp->epending &= ~m;
 8002354:	6b6b      	ldr	r3, [r5, #52]	; 0x34
 8002356:	ea23 0300 	bic.w	r3, r3, r0
 800235a:	636b      	str	r3, [r5, #52]	; 0x34
 800235c:	2300      	movs	r3, #0
 800235e:	f383 8811 	msr	BASEPRI, r3
}
 8002362:	bd38      	pop	{r3, r4, r5, pc}
    ctp->u.ewmask = events;
 8002364:	626c      	str	r4, [r5, #36]	; 0x24
    chSchGoSleepS(CH_STATE_WTOREVT);
 8002366:	200a      	movs	r0, #10
 8002368:	f008 f8a2 	bl	800a4b0 <chSchGoSleepS>
    m = ctp->epending & events;
 800236c:	6b6b      	ldr	r3, [r5, #52]	; 0x34
 800236e:	ea03 0004 	and.w	r0, r3, r4
 8002372:	e7ef      	b.n	8002354 <chEvtWaitAny+0x14>
 8002374:	20001040 	.word	0x20001040
	...

08002380 <chEvtWaitOne>:
eventmask_t chEvtWaitOne(eventmask_t events) {
 8002380:	b538      	push	{r3, r4, r5, lr}
  thread_t *ctp = currp;
 8002382:	4b0d      	ldr	r3, [pc, #52]	; (80023b8 <chEvtWaitOne+0x38>)
 8002384:	699d      	ldr	r5, [r3, #24]
 8002386:	2320      	movs	r3, #32
 8002388:	f383 8811 	msr	BASEPRI, r3
  m = ctp->epending & events;
 800238c:	6b6b      	ldr	r3, [r5, #52]	; 0x34
  if (m == (eventmask_t)0) {
 800238e:	4003      	ands	r3, r0
 8002390:	d009      	beq.n	80023a6 <chEvtWaitOne+0x26>
  m ^= m & (m - (eventmask_t)1);
 8002392:	4258      	negs	r0, r3
 8002394:	4018      	ands	r0, r3
  ctp->epending &= ~m;
 8002396:	6b6b      	ldr	r3, [r5, #52]	; 0x34
 8002398:	ea23 0300 	bic.w	r3, r3, r0
 800239c:	636b      	str	r3, [r5, #52]	; 0x34
 800239e:	2300      	movs	r3, #0
 80023a0:	f383 8811 	msr	BASEPRI, r3
}
 80023a4:	bd38      	pop	{r3, r4, r5, pc}
 80023a6:	4604      	mov	r4, r0
    ctp->u.ewmask = events;
 80023a8:	6268      	str	r0, [r5, #36]	; 0x24
    chSchGoSleepS(CH_STATE_WTOREVT);
 80023aa:	200a      	movs	r0, #10
 80023ac:	f008 f880 	bl	800a4b0 <chSchGoSleepS>
    m = ctp->epending & events;
 80023b0:	6b6b      	ldr	r3, [r5, #52]	; 0x34
 80023b2:	4023      	ands	r3, r4
 80023b4:	e7ed      	b.n	8002392 <chEvtWaitOne+0x12>
 80023b6:	bf00      	nop
 80023b8:	20001040 	.word	0x20001040
 80023bc:	00000000 	.word	0x00000000

080023c0 <chSemWaitS>:
  if (--sp->cnt < (cnt_t)0) {
 80023c0:	6883      	ldr	r3, [r0, #8]
 80023c2:	3b01      	subs	r3, #1
 80023c4:	6083      	str	r3, [r0, #8]
 80023c6:	2b00      	cmp	r3, #0
 80023c8:	db01      	blt.n	80023ce <chSemWaitS+0xe>
  return MSG_OK;
 80023ca:	2000      	movs	r0, #0
}
 80023cc:	4770      	bx	lr
msg_t chSemWaitS(semaphore_t *sp) {
 80023ce:	b510      	push	{r4, lr}
    currp->u.wtsemp = sp;
 80023d0:	4c06      	ldr	r4, [pc, #24]	; (80023ec <chSemWaitS+0x2c>)
 80023d2:	69a3      	ldr	r3, [r4, #24]
 80023d4:	6258      	str	r0, [r3, #36]	; 0x24
  tp->queue.next             = (thread_t *)tqp;
 80023d6:	6018      	str	r0, [r3, #0]
  tp->queue.prev             = tqp->prev;
 80023d8:	6842      	ldr	r2, [r0, #4]
 80023da:	605a      	str	r2, [r3, #4]
  tp->queue.prev->queue.next = tp;
 80023dc:	6013      	str	r3, [r2, #0]
  tqp->prev                  = tp;
 80023de:	6043      	str	r3, [r0, #4]
    chSchGoSleepS(CH_STATE_WTSEM);
 80023e0:	2005      	movs	r0, #5
 80023e2:	f008 f865 	bl	800a4b0 <chSchGoSleepS>
    return currp->u.rdymsg;
 80023e6:	69a3      	ldr	r3, [r4, #24]
 80023e8:	6a58      	ldr	r0, [r3, #36]	; 0x24
}
 80023ea:	bd10      	pop	{r4, pc}
 80023ec:	20001040 	.word	0x20001040

080023f0 <lru_get_last_s>:
static oc_object_t *lru_get_last_s(objects_cache_t *ocp) {
 80023f0:	b510      	push	{r4, lr}
 80023f2:	4604      	mov	r4, r0
    (void) chSemWaitS(&ocp->lru_sem);
 80023f4:	f104 0030 	add.w	r0, r4, #48	; 0x30
 80023f8:	f7ff ffe2 	bl	80023c0 <chSemWaitS>
    objp = ocp->lru.lru_prev;
 80023fc:	6a21      	ldr	r1, [r4, #32]
    LRU_REMOVE(objp);
 80023fe:	68ca      	ldr	r2, [r1, #12]
 8002400:	688b      	ldr	r3, [r1, #8]
 8002402:	6093      	str	r3, [r2, #8]
 8002404:	68ca      	ldr	r2, [r1, #12]
 8002406:	60da      	str	r2, [r3, #12]
    objp->obj_flags &= ~OC_FLAG_INLRU;
 8002408:	6a4a      	ldr	r2, [r1, #36]	; 0x24
 800240a:	f022 0001 	bic.w	r0, r2, #1
 800240e:	6248      	str	r0, [r1, #36]	; 0x24
 */
static inline void chSemFastWaitI(semaphore_t *sp) {

  chDbgCheckClassI();

  sp->cnt--;
 8002410:	6a0b      	ldr	r3, [r1, #32]
 8002412:	3b01      	subs	r3, #1
 8002414:	620b      	str	r3, [r1, #32]
    if ((objp->obj_flags & OC_FLAG_LAZYWRITE) == 0U) {
 8002416:	f012 0f10 	tst.w	r2, #16
 800241a:	d00c      	beq.n	8002436 <lru_get_last_s+0x46>
 800241c:	2300      	movs	r3, #0
 800241e:	f383 8811 	msr	BASEPRI, r3
    objp->obj_flags = OC_FLAG_INHASH | OC_FLAG_FORGET;
 8002422:	2322      	movs	r3, #34	; 0x22
 8002424:	624b      	str	r3, [r1, #36]	; 0x24
    (void) ocp->writef(ocp, objp, true);
 8002426:	6c23      	ldr	r3, [r4, #64]	; 0x40
 8002428:	2201      	movs	r2, #1
 800242a:	4620      	mov	r0, r4
 800242c:	4798      	blx	r3
 800242e:	2320      	movs	r3, #32
 8002430:	f383 8811 	msr	BASEPRI, r3
 */
static inline void chSysLock(void) {

  port_lock();
  _stats_start_measure_crit_thd();
  _dbg_check_lock();
 8002434:	e7de      	b.n	80023f4 <lru_get_last_s+0x4>
      if ((objp->obj_flags & OC_FLAG_INHASH) != 0U) {
 8002436:	f010 0f02 	tst.w	r0, #2
 800243a:	d005      	beq.n	8002448 <lru_get_last_s+0x58>
        HASH_REMOVE(objp);
 800243c:	684b      	ldr	r3, [r1, #4]
 800243e:	680a      	ldr	r2, [r1, #0]
 8002440:	601a      	str	r2, [r3, #0]
 8002442:	680b      	ldr	r3, [r1, #0]
 8002444:	684a      	ldr	r2, [r1, #4]
 8002446:	605a      	str	r2, [r3, #4]
      objp->obj_flags = 0U;
 8002448:	2300      	movs	r3, #0
 800244a:	624b      	str	r3, [r1, #36]	; 0x24
}
 800244c:	4608      	mov	r0, r1
 800244e:	bd10      	pop	{r4, pc}

08002450 <chCacheGetObject>:
                              uint32_t key) {
 8002450:	b5f8      	push	{r3, r4, r5, r6, r7, lr}
 8002452:	4607      	mov	r7, r0
 8002454:	460e      	mov	r6, r1
 8002456:	4615      	mov	r5, r2
 8002458:	2320      	movs	r3, #32
 800245a:	f383 8811 	msr	BASEPRI, r3
  objp = hash_get_s(ocp, group, key);
 800245e:	f7ff f95f 	bl	8001720 <hash_get_s>
  if (objp != NULL) {
 8002462:	b1c0      	cbz	r0, 8002496 <chCacheGetObject+0x46>
 8002464:	4604      	mov	r4, r0
 */
static inline cnt_t chSemGetCounterI(const semaphore_t *sp) {

  chDbgCheckClassI();

  return sp->cnt;
 8002466:	6a03      	ldr	r3, [r0, #32]
    if (chSemGetCounterI(&objp->obj_sem) > (cnt_t)0) {
 8002468:	2b00      	cmp	r3, #0
 800246a:	dd10      	ble.n	800248e <chCacheGetObject+0x3e>
      LRU_REMOVE(objp);
 800246c:	68c2      	ldr	r2, [r0, #12]
 800246e:	6883      	ldr	r3, [r0, #8]
 8002470:	6093      	str	r3, [r2, #8]
 8002472:	68c2      	ldr	r2, [r0, #12]
 8002474:	60da      	str	r2, [r3, #12]
      objp->obj_flags &= ~OC_FLAG_INLRU;
 8002476:	6a43      	ldr	r3, [r0, #36]	; 0x24
 8002478:	f023 0301 	bic.w	r3, r3, #1
 800247c:	6243      	str	r3, [r0, #36]	; 0x24
  sp->cnt--;
 800247e:	6a03      	ldr	r3, [r0, #32]
 8002480:	3b01      	subs	r3, #1
 8002482:	6203      	str	r3, [r0, #32]
 8002484:	2300      	movs	r3, #0
 8002486:	f383 8811 	msr	BASEPRI, r3
}
 800248a:	4620      	mov	r0, r4
 800248c:	bdf8      	pop	{r3, r4, r5, r6, r7, pc}
      (void) chSemWaitS(&objp->obj_sem);
 800248e:	3018      	adds	r0, #24
 8002490:	f7ff ff96 	bl	80023c0 <chSemWaitS>
 8002494:	e7f6      	b.n	8002484 <chCacheGetObject+0x34>
    objp = lru_get_last_s(ocp);
 8002496:	4638      	mov	r0, r7
 8002498:	f7ff ffaa 	bl	80023f0 <lru_get_last_s>
 800249c:	4604      	mov	r4, r0
    objp->obj_group = group;
 800249e:	6106      	str	r6, [r0, #16]
    objp->obj_key   = key;
 80024a0:	6145      	str	r5, [r0, #20]
    objp->obj_flags = OC_FLAG_INHASH | OC_FLAG_NOTSYNC;
 80024a2:	230a      	movs	r3, #10
 80024a4:	6243      	str	r3, [r0, #36]	; 0x24
    HASH_INSERT(ocp, objp, group, key);
 80024a6:	683a      	ldr	r2, [r7, #0]
 80024a8:	1e51      	subs	r1, r2, #1
 80024aa:	1972      	adds	r2, r6, r5
 80024ac:	400a      	ands	r2, r1
 80024ae:	687b      	ldr	r3, [r7, #4]
 80024b0:	eb03 01c2 	add.w	r1, r3, r2, lsl #3
 80024b4:	f853 0032 	ldr.w	r0, [r3, r2, lsl #3]
 80024b8:	6020      	str	r0, [r4, #0]
 80024ba:	6061      	str	r1, [r4, #4]
 80024bc:	f853 1032 	ldr.w	r1, [r3, r2, lsl #3]
 80024c0:	604c      	str	r4, [r1, #4]
 80024c2:	f843 4032 	str.w	r4, [r3, r2, lsl #3]
 80024c6:	e7dd      	b.n	8002484 <chCacheGetObject+0x34>
	...

080024d0 <chSemWait>:
msg_t chSemWait(semaphore_t *sp) {
 80024d0:	b508      	push	{r3, lr}
 80024d2:	2320      	movs	r3, #32
 80024d4:	f383 8811 	msr	BASEPRI, r3
  msg = chSemWaitS(sp);
 80024d8:	f7ff ff72 	bl	80023c0 <chSemWaitS>
 80024dc:	2300      	movs	r3, #0
 80024de:	f383 8811 	msr	BASEPRI, r3
}
 80024e2:	bd08      	pop	{r3, pc}
	...

080024f0 <bmk_thread7>:
static THD_FUNCTION(bmk_thread7, p) {
 80024f0:	b508      	push	{r3, lr}
 80024f2:	4b06      	ldr	r3, [pc, #24]	; (800250c <bmk_thread7+0x1c>)
 80024f4:	699b      	ldr	r3, [r3, #24]
 *
 * @xclass
 */
static inline bool chThdShouldTerminateX(void) {

  return (bool)((chThdGetSelfX()->flags & CH_FLAG_TERMINATE) != (tmode_t)0);
 80024f6:	f893 3021 	ldrb.w	r3, [r3, #33]	; 0x21
  while (!chThdShouldTerminateX())
 80024fa:	f013 0f04 	tst.w	r3, #4
 80024fe:	d103      	bne.n	8002508 <bmk_thread7+0x18>
    chSemWait(&sem1);
 8002500:	4803      	ldr	r0, [pc, #12]	; (8002510 <bmk_thread7+0x20>)
 8002502:	f7ff ffe5 	bl	80024d0 <chSemWait>
 8002506:	e7f4      	b.n	80024f2 <bmk_thread7+0x2>
}
 8002508:	bd08      	pop	{r3, pc}
 800250a:	bf00      	nop
 800250c:	20001040 	.word	0x20001040
 8002510:	20001354 	.word	0x20001354
	...

08002520 <thread3>:
static THD_FUNCTION(thread3, p) {
 8002520:	b510      	push	{r4, lr}
  chSemWait(&sem1);
 8002522:	4c04      	ldr	r4, [pc, #16]	; (8002534 <thread3+0x14>)
 8002524:	4620      	mov	r0, r4
 8002526:	f7ff ffd3 	bl	80024d0 <chSemWait>
  chSemSignal(&sem1);
 800252a:	4620      	mov	r0, r4
 800252c:	f7ff fe50 	bl	80021d0 <chSemSignal>
}
 8002530:	bd10      	pop	{r4, pc}
 8002532:	bf00      	nop
 8002534:	20001348 	.word	0x20001348
	...

08002540 <thread1.lto_priv.1>:
static THD_FUNCTION(thread1, p) {
 8002540:	b510      	push	{r4, lr}
 8002542:	4604      	mov	r4, r0
  chSemWait(&sem1);
 8002544:	4803      	ldr	r0, [pc, #12]	; (8002554 <thread1.lto_priv.1+0x14>)
 8002546:	f7ff ffc3 	bl	80024d0 <chSemWait>
  test_emit_token(*(char *)p);
 800254a:	7820      	ldrb	r0, [r4, #0]
 800254c:	f7fe f960 	bl	8000810 <test_emit_token>
}
 8002550:	bd10      	pop	{r4, pc}
 8002552:	bf00      	nop
 8002554:	20001348 	.word	0x20001348
	...

08002560 <vtcb>:
static void vtcb(void *p) {
 8002560:	b510      	push	{r4, lr}
 8002562:	2320      	movs	r3, #32
 8002564:	f383 8811 	msr	BASEPRI, r3
 8002568:	2400      	movs	r4, #0
 800256a:	f384 8811 	msr	BASEPRI, r4
 800256e:	f383 8811 	msr	BASEPRI, r3
  sts = chSysGetStatusAndLockX();
 8002572:	f008 f845 	bl	800a600 <chSysGetStatusAndLockX>
  chSysRestoreStatusX(sts);
 8002576:	f008 f82b 	bl	800a5d0 <chSysRestoreStatusX>
 800257a:	f384 8811 	msr	BASEPRI, r4
}
 800257e:	bd10      	pop	{r4, pc}

08002580 <rt_test_002_001_execute>:
static void rt_test_002_001_execute(void) {
 8002580:	b508      	push	{r3, lr}
  test_set_step(1);
 8002582:	2001      	movs	r0, #1
 8002584:	4b25      	ldr	r3, [pc, #148]	; (800261c <rt_test_002_001_execute+0x9c>)
 8002586:	6018      	str	r0, [r3, #0]
 8002588:	2320      	movs	r3, #32
 800258a:	f383 8811 	msr	BASEPRI, r3
    result = chSysIntegrityCheckI(CH_INTEGRITY_RLIST);
 800258e:	f008 f847 	bl	800a620 <chSysIntegrityCheckI>
 8002592:	2300      	movs	r3, #0
 8002594:	f383 8811 	msr	BASEPRI, r3
    test_assert(result == false, "ready list check failed");
 8002598:	f080 0001 	eor.w	r0, r0, #1
 800259c:	4920      	ldr	r1, [pc, #128]	; (8002620 <rt_test_002_001_execute+0xa0>)
 800259e:	b2c0      	uxtb	r0, r0
 80025a0:	f7fe fe26 	bl	80011f0 <_test_assert>
 80025a4:	b100      	cbz	r0, 80025a8 <rt_test_002_001_execute+0x28>
}
 80025a6:	bd08      	pop	{r3, pc}
  test_set_step(2);
 80025a8:	2002      	movs	r0, #2
 80025aa:	4b1c      	ldr	r3, [pc, #112]	; (800261c <rt_test_002_001_execute+0x9c>)
 80025ac:	6018      	str	r0, [r3, #0]
 80025ae:	2320      	movs	r3, #32
 80025b0:	f383 8811 	msr	BASEPRI, r3
    result = chSysIntegrityCheckI(CH_INTEGRITY_VTLIST);
 80025b4:	f008 f834 	bl	800a620 <chSysIntegrityCheckI>
 80025b8:	2300      	movs	r3, #0
 80025ba:	f383 8811 	msr	BASEPRI, r3
    test_assert(result == false, "virtual timers list check failed");
 80025be:	f080 0001 	eor.w	r0, r0, #1
 80025c2:	4918      	ldr	r1, [pc, #96]	; (8002624 <rt_test_002_001_execute+0xa4>)
 80025c4:	b2c0      	uxtb	r0, r0
 80025c6:	f7fe fe13 	bl	80011f0 <_test_assert>
 80025ca:	2800      	cmp	r0, #0
 80025cc:	d1eb      	bne.n	80025a6 <rt_test_002_001_execute+0x26>
  test_set_step(3);
 80025ce:	4b13      	ldr	r3, [pc, #76]	; (800261c <rt_test_002_001_execute+0x9c>)
 80025d0:	2203      	movs	r2, #3
 80025d2:	601a      	str	r2, [r3, #0]
 80025d4:	2320      	movs	r3, #32
 80025d6:	f383 8811 	msr	BASEPRI, r3
    result = chSysIntegrityCheckI(CH_INTEGRITY_REGISTRY);
 80025da:	2004      	movs	r0, #4
 80025dc:	f008 f820 	bl	800a620 <chSysIntegrityCheckI>
 80025e0:	2300      	movs	r3, #0
 80025e2:	f383 8811 	msr	BASEPRI, r3
    test_assert(result == false, "registry list check failed");
 80025e6:	f080 0001 	eor.w	r0, r0, #1
 80025ea:	490f      	ldr	r1, [pc, #60]	; (8002628 <rt_test_002_001_execute+0xa8>)
 80025ec:	b2c0      	uxtb	r0, r0
 80025ee:	f7fe fdff 	bl	80011f0 <_test_assert>
 80025f2:	2800      	cmp	r0, #0
 80025f4:	d1d7      	bne.n	80025a6 <rt_test_002_001_execute+0x26>
  test_set_step(4);
 80025f6:	4b09      	ldr	r3, [pc, #36]	; (800261c <rt_test_002_001_execute+0x9c>)
 80025f8:	2204      	movs	r2, #4
 80025fa:	601a      	str	r2, [r3, #0]
 80025fc:	2320      	movs	r3, #32
 80025fe:	f383 8811 	msr	BASEPRI, r3
    result = chSysIntegrityCheckI(CH_INTEGRITY_PORT);
 8002602:	2008      	movs	r0, #8
 8002604:	f008 f80c 	bl	800a620 <chSysIntegrityCheckI>
 8002608:	2300      	movs	r3, #0
 800260a:	f383 8811 	msr	BASEPRI, r3
    test_assert(result == false, "port layer check failed");
 800260e:	f080 0001 	eor.w	r0, r0, #1
 8002612:	4906      	ldr	r1, [pc, #24]	; (800262c <rt_test_002_001_execute+0xac>)
 8002614:	b2c0      	uxtb	r0, r0
 8002616:	f7fe fdeb 	bl	80011f0 <_test_assert>
  test_end_step(4);
 800261a:	e7c4      	b.n	80025a6 <rt_test_002_001_execute+0x26>
 800261c:	20001a7c 	.word	0x20001a7c
 8002620:	0800c1d0 	.word	0x0800c1d0
 8002624:	0800c1e8 	.word	0x0800c1e8
 8002628:	0800c20c 	.word	0x0800c20c
 800262c:	0800c228 	.word	0x0800c228

08002630 <save_history>:
  if (shp == NULL)
 8002630:	2800      	cmp	r0, #0
 8002632:	d04d      	beq.n	80026d0 <save_history+0xa0>
static void save_history(ShellHistory *shp, char *line, int length) {
 8002634:	e92d 41f0 	stmdb	sp!, {r4, r5, r6, r7, r8, lr}
 8002638:	460e      	mov	r6, r1
 800263a:	4614      	mov	r4, r2
 800263c:	4605      	mov	r5, r0
  if (length > shp->sh_size - 2)
 800263e:	6843      	ldr	r3, [r0, #4]
 8002640:	3b01      	subs	r3, #1
 8002642:	4293      	cmp	r3, r2
 8002644:	dc01      	bgt.n	800264a <save_history+0x1a>
 8002646:	e032      	b.n	80026ae <save_history+0x7e>
    length--;
 8002648:	3c01      	subs	r4, #1
  while ((*(line + length -1) == ' ') && (length > 0))
 800264a:	4627      	mov	r7, r4
 800264c:	1e63      	subs	r3, r4, #1
 800264e:	5cf3      	ldrb	r3, [r6, r3]
 8002650:	2b20      	cmp	r3, #32
 8002652:	d101      	bne.n	8002658 <save_history+0x28>
 8002654:	2c00      	cmp	r4, #0
 8002656:	dcf7      	bgt.n	8002648 <save_history+0x18>
  if (length <= 0)
 8002658:	2c00      	cmp	r4, #0
 800265a:	dc03      	bgt.n	8002664 <save_history+0x34>
 800265c:	e027      	b.n	80026ae <save_history+0x7e>
    del_histbuff_entry(shp);
 800265e:	4628      	mov	r0, r5
 8002660:	f7fe fece 	bl	8001400 <del_histbuff_entry>
  while (!is_histbuff_space(shp, length))
 8002664:	4621      	mov	r1, r4
 8002666:	4628      	mov	r0, r5
 8002668:	f7fe feb2 	bl	80013d0 <is_histbuff_space>
 800266c:	2800      	cmp	r0, #0
 800266e:	d0f6      	beq.n	800265e <save_history+0x2e>
  if (length < shp->sh_size - shp->sh_end - 1)
 8002670:	686b      	ldr	r3, [r5, #4]
 8002672:	68e8      	ldr	r0, [r5, #12]
 8002674:	1a1b      	subs	r3, r3, r0
 8002676:	f103 38ff 	add.w	r8, r3, #4294967295	; 0xffffffff
 800267a:	45a0      	cmp	r8, r4
 800267c:	dd19      	ble.n	80026b2 <save_history+0x82>
    memcpy(shp->sh_buffer + shp->sh_end + 1, line, length);
 800267e:	682b      	ldr	r3, [r5, #0]
 8002680:	3001      	adds	r0, #1
 8002682:	463a      	mov	r2, r7
 8002684:	4631      	mov	r1, r6
 8002686:	4418      	add	r0, r3
 8002688:	f7fd fe30 	bl	80002ec <memcpy>
  *(shp->sh_buffer + shp->sh_end) = (char)length;
 800268c:	682a      	ldr	r2, [r5, #0]
 800268e:	68eb      	ldr	r3, [r5, #12]
 8002690:	54d4      	strb	r4, [r2, r3]
  shp->sh_end += length + 1;
 8002692:	3401      	adds	r4, #1
 8002694:	68eb      	ldr	r3, [r5, #12]
 8002696:	441c      	add	r4, r3
 8002698:	60ec      	str	r4, [r5, #12]
  if (shp->sh_end >= shp->sh_size)
 800269a:	686b      	ldr	r3, [r5, #4]
 800269c:	429c      	cmp	r4, r3
 800269e:	db01      	blt.n	80026a4 <save_history+0x74>
    shp->sh_end -= shp->sh_size;
 80026a0:	1ae4      	subs	r4, r4, r3
 80026a2:	60ec      	str	r4, [r5, #12]
  *(shp->sh_buffer + shp->sh_end) = 0;
 80026a4:	6829      	ldr	r1, [r5, #0]
 80026a6:	68ea      	ldr	r2, [r5, #12]
 80026a8:	2300      	movs	r3, #0
 80026aa:	548b      	strb	r3, [r1, r2]
  shp->sh_cur = 0;
 80026ac:	612b      	str	r3, [r5, #16]
}
 80026ae:	e8bd 81f0 	ldmia.w	sp!, {r4, r5, r6, r7, r8, pc}
    memcpy(shp->sh_buffer + shp->sh_end + 1, line, part_len);
 80026b2:	682b      	ldr	r3, [r5, #0]
 80026b4:	3001      	adds	r0, #1
 80026b6:	4642      	mov	r2, r8
 80026b8:	4631      	mov	r1, r6
 80026ba:	4418      	add	r0, r3
 80026bc:	f7fd fe16 	bl	80002ec <memcpy>
    memcpy(shp->sh_buffer, line + part_len, length - part_len);
 80026c0:	eba4 0208 	sub.w	r2, r4, r8
 80026c4:	eb06 0108 	add.w	r1, r6, r8
 80026c8:	6828      	ldr	r0, [r5, #0]
 80026ca:	f7fd fe0f 	bl	80002ec <memcpy>
 80026ce:	e7dd      	b.n	800268c <save_history+0x5c>
 80026d0:	4770      	bx	lr
 80026d2:	bf00      	nop
	...

080026e0 <get_history>:
static int get_history(ShellHistory *shp, char *line, int dir) {
 80026e0:	e92d 43f8 	stmdb	sp!, {r3, r4, r5, r6, r7, r8, r9, lr}
  if (shp == NULL)
 80026e4:	2800      	cmp	r0, #0
 80026e6:	d067      	beq.n	80027b8 <get_history+0xd8>
 80026e8:	460e      	mov	r6, r1
 80026ea:	4605      	mov	r5, r0
  int idx = shp->sh_beg;
 80026ec:	6884      	ldr	r4, [r0, #8]
 80026ee:	4623      	mov	r3, r4
  int count=0;
 80026f0:	2700      	movs	r7, #0
 80026f2:	e000      	b.n	80026f6 <get_history+0x16>
    count++;
 80026f4:	3701      	adds	r7, #1
  while (idx != shp->sh_end) {
 80026f6:	68e9      	ldr	r1, [r5, #12]
 80026f8:	4299      	cmp	r1, r3
 80026fa:	d008      	beq.n	800270e <get_history+0x2e>
    idx += *(shp->sh_buffer + idx) + 1;
 80026fc:	6829      	ldr	r1, [r5, #0]
 80026fe:	5cc8      	ldrb	r0, [r1, r3]
 8002700:	3001      	adds	r0, #1
 8002702:	4403      	add	r3, r0
    if (idx >= shp->sh_size)
 8002704:	6869      	ldr	r1, [r5, #4]
 8002706:	4299      	cmp	r1, r3
 8002708:	dcf4      	bgt.n	80026f4 <get_history+0x14>
      idx -= shp->sh_size;
 800270a:	1a5b      	subs	r3, r3, r1
 800270c:	e7f2      	b.n	80026f4 <get_history+0x14>
  if (dir == SHELL_HIST_DIR_FW) {
 800270e:	2a01      	cmp	r2, #1
 8002710:	d005      	beq.n	800271e <get_history+0x3e>
  if (count >= shp->sh_cur) {
 8002712:	f8d5 c010 	ldr.w	ip, [r5, #16]
 8002716:	45bc      	cmp	ip, r7
 8002718:	dc07      	bgt.n	800272a <get_history+0x4a>
    int i = 0;
 800271a:	2000      	movs	r0, #0
 800271c:	e009      	b.n	8002732 <get_history+0x52>
    if (shp->sh_cur > 0)
 800271e:	692b      	ldr	r3, [r5, #16]
 8002720:	2b00      	cmp	r3, #0
 8002722:	dd4c      	ble.n	80027be <get_history+0xde>
      shp->sh_cur -= 2;
 8002724:	3b02      	subs	r3, #2
 8002726:	612b      	str	r3, [r5, #16]
 8002728:	e7f3      	b.n	8002712 <get_history+0x32>
  return -1;
 800272a:	f04f 38ff 	mov.w	r8, #4294967295	; 0xffffffff
 800272e:	e01b      	b.n	8002768 <get_history+0x88>
      i++;
 8002730:	3001      	adds	r0, #1
    while (idx != shp->sh_end && shp->sh_cur != (count - i - 1)) {
 8002732:	42a1      	cmp	r1, r4
 8002734:	d00c      	beq.n	8002750 <get_history+0x70>
 8002736:	1a3b      	subs	r3, r7, r0
 8002738:	3b01      	subs	r3, #1
 800273a:	459c      	cmp	ip, r3
 800273c:	d008      	beq.n	8002750 <get_history+0x70>
      idx += *(shp->sh_buffer + idx) + 1;
 800273e:	682b      	ldr	r3, [r5, #0]
 8002740:	5d1b      	ldrb	r3, [r3, r4]
 8002742:	3301      	adds	r3, #1
 8002744:	441c      	add	r4, r3
      if (idx >= shp->sh_size)
 8002746:	686b      	ldr	r3, [r5, #4]
 8002748:	42a3      	cmp	r3, r4
 800274a:	dcf1      	bgt.n	8002730 <get_history+0x50>
        idx -= shp->sh_size;
 800274c:	1ae4      	subs	r4, r4, r3
 800274e:	e7ef      	b.n	8002730 <get_history+0x50>
    int length = *(shp->sh_buffer + idx);
 8002750:	682b      	ldr	r3, [r5, #0]
 8002752:	46a1      	mov	r9, r4
 8002754:	5d1f      	ldrb	r7, [r3, r4]
 8002756:	46b8      	mov	r8, r7
    if (length > 0) {
 8002758:	b94f      	cbnz	r7, 800276e <get_history+0x8e>
    else if (dir == SHELL_HIST_DIR_FW) {
 800275a:	2a01      	cmp	r2, #1
 800275c:	d132      	bne.n	80027c4 <get_history+0xe4>
      shp->sh_cur++;
 800275e:	f10c 0301 	add.w	r3, ip, #1
 8002762:	612b      	str	r3, [r5, #16]
      return 0;
 8002764:	f04f 0800 	mov.w	r8, #0
}
 8002768:	4640      	mov	r0, r8
 800276a:	e8bd 83f8 	ldmia.w	sp!, {r3, r4, r5, r6, r7, r8, r9, pc}
      shp->sh_cur++;
 800276e:	f10c 0301 	add.w	r3, ip, #1
 8002772:	612b      	str	r3, [r5, #16]
      memset(line, 0, SHELL_MAX_LINE_LENGTH);
 8002774:	2240      	movs	r2, #64	; 0x40
 8002776:	2100      	movs	r1, #0
 8002778:	4630      	mov	r0, r6
 800277a:	f008 fd75 	bl	800b268 <memset>
      if ((idx + length) < shp->sh_size) {
 800277e:	19e2      	adds	r2, r4, r7
 8002780:	686b      	ldr	r3, [r5, #4]
 8002782:	429a      	cmp	r2, r3
 8002784:	da08      	bge.n	8002798 <get_history+0xb8>
        memcpy(line, (shp->sh_buffer + idx + 1), length);
 8002786:	6829      	ldr	r1, [r5, #0]
 8002788:	f104 0901 	add.w	r9, r4, #1
 800278c:	463a      	mov	r2, r7
 800278e:	4449      	add	r1, r9
 8002790:	4630      	mov	r0, r6
 8002792:	f7fd fdab 	bl	80002ec <memcpy>
 8002796:	e7e7      	b.n	8002768 <get_history+0x88>
        int part_len = shp->sh_size - idx - 1;
 8002798:	1b1c      	subs	r4, r3, r4
 800279a:	3c01      	subs	r4, #1
        memcpy(line, shp->sh_buffer + idx + 1, part_len);
 800279c:	6829      	ldr	r1, [r5, #0]
 800279e:	f109 0901 	add.w	r9, r9, #1
 80027a2:	4622      	mov	r2, r4
 80027a4:	4449      	add	r1, r9
 80027a6:	4630      	mov	r0, r6
 80027a8:	f7fd fda0 	bl	80002ec <memcpy>
        memcpy(line + part_len, shp->sh_buffer, length - part_len);
 80027ac:	1b3a      	subs	r2, r7, r4
 80027ae:	6829      	ldr	r1, [r5, #0]
 80027b0:	1930      	adds	r0, r6, r4
 80027b2:	f7fd fd9b 	bl	80002ec <memcpy>
      return length;
 80027b6:	e7d7      	b.n	8002768 <get_history+0x88>
    return -1;
 80027b8:	f04f 38ff 	mov.w	r8, #4294967295	; 0xffffffff
 80027bc:	e7d4      	b.n	8002768 <get_history+0x88>
      return 0;
 80027be:	f04f 0800 	mov.w	r8, #0
 80027c2:	e7d1      	b.n	8002768 <get_history+0x88>
  return -1;
 80027c4:	f04f 38ff 	mov.w	r8, #4294967295	; 0xffffffff
 80027c8:	e7ce      	b.n	8002768 <get_history+0x88>
 80027ca:	bf00      	nop
 80027cc:	0000      	movs	r0, r0
	...

080027d0 <parse_arguments>:
static char *parse_arguments(char *str, char **saveptr) {
 80027d0:	b538      	push	{r3, r4, r5, lr}
 80027d2:	460d      	mov	r5, r1
  if (str != NULL)
 80027d4:	b100      	cbz	r0, 80027d8 <parse_arguments+0x8>
    *saveptr = str;
 80027d6:	6028      	str	r0, [r5, #0]
  p = *saveptr;
 80027d8:	682c      	ldr	r4, [r5, #0]
  if (!p) {
 80027da:	b1a4      	cbz	r4, 8002806 <parse_arguments+0x36>
  p += strspn(p, " \t");
 80027dc:	490f      	ldr	r1, [pc, #60]	; (800281c <parse_arguments+0x4c>)
 80027de:	4620      	mov	r0, r4
 80027e0:	f008 fe88 	bl	800b4f4 <strspn>
 80027e4:	4404      	add	r4, r0
  if (*p == '"') {
 80027e6:	7823      	ldrb	r3, [r4, #0]
 80027e8:	2b22      	cmp	r3, #34	; 0x22
 80027ea:	d00e      	beq.n	800280a <parse_arguments+0x3a>
    *saveptr = strpbrk(p, " \t");
 80027ec:	490b      	ldr	r1, [pc, #44]	; (800281c <parse_arguments+0x4c>)
 80027ee:	4620      	mov	r0, r4
 80027f0:	f008 fe64 	bl	800b4bc <strpbrk>
 80027f4:	6028      	str	r0, [r5, #0]
  if (*saveptr != NULL) {
 80027f6:	682b      	ldr	r3, [r5, #0]
 80027f8:	b11b      	cbz	r3, 8002802 <parse_arguments+0x32>
    *(*saveptr)++ = '\0';
 80027fa:	1c5a      	adds	r2, r3, #1
 80027fc:	602a      	str	r2, [r5, #0]
 80027fe:	2200      	movs	r2, #0
 8002800:	701a      	strb	r2, [r3, #0]
  return *p != '\0' ? p : NULL;
 8002802:	7823      	ldrb	r3, [r4, #0]
 8002804:	b143      	cbz	r3, 8002818 <parse_arguments+0x48>
}
 8002806:	4620      	mov	r0, r4
 8002808:	bd38      	pop	{r3, r4, r5, pc}
    p++;
 800280a:	3401      	adds	r4, #1
    *saveptr = strpbrk(p, "\"");
 800280c:	2122      	movs	r1, #34	; 0x22
 800280e:	4620      	mov	r0, r4
 8002810:	f008 fd7a 	bl	800b308 <strchr>
 8002814:	6028      	str	r0, [r5, #0]
 8002816:	e7ee      	b.n	80027f6 <parse_arguments+0x26>
  return *p != '\0' ? p : NULL;
 8002818:	2400      	movs	r4, #0
 800281a:	e7f4      	b.n	8002806 <parse_arguments+0x36>
 800281c:	0800c240 	.word	0x0800c240

08002820 <chprintf>:
 * @return              The number of bytes that would have been
 *                      written to @p chp if no stream error occurs
 *
 * @api
 */
int chprintf(BaseSequentialStream *chp, const char *fmt, ...) {
 8002820:	b40e      	push	{r1, r2, r3}
 8002822:	b500      	push	{lr}
 8002824:	b082      	sub	sp, #8
 8002826:	aa03      	add	r2, sp, #12
 8002828:	f852 1b04 	ldr.w	r1, [r2], #4
  va_list ap;
  int formatted_bytes;

  va_start(ap, fmt);
 800282c:	9201      	str	r2, [sp, #4]
  formatted_bytes = chvprintf(chp, fmt, ap);
 800282e:	f7fe fe27 	bl	8001480 <chvprintf>
  va_end(ap);

  return formatted_bytes;
}
 8002832:	b002      	add	sp, #8
 8002834:	f85d eb04 	ldr.w	lr, [sp], #4
 8002838:	b003      	add	sp, #12
 800283a:	4770      	bx	lr
 800283c:	0000      	movs	r0, r0
	...

08002840 <ti_help>:

/*
 * shell commands for user entry
 * Provides a list of comamnds and their description to Chibios shell user.
 */
static void ti_help(BaseSequentialStream *sd, int argc, char *argv[]) {
 8002840:	b510      	push	{r4, lr}
 8002842:	4604      	mov	r4, r0

  (void) argc;
  (void) argv;
  
  chprintf(sd, "Available commands:\r\n");
 8002844:	4905      	ldr	r1, [pc, #20]	; (800285c <ti_help+0x1c>)
 8002846:	f7ff ffeb 	bl	8002820 <chprintf>
  chprintf(sd, "    reg:   Update registers,Usage reg <value> register address concated with its value\r\n");
 800284a:	4905      	ldr	r1, [pc, #20]	; (8002860 <ti_help+0x20>)
 800284c:	4620      	mov	r0, r4
 800284e:	f7ff ffe7 	bl	8002820 <chprintf>
  chprintf(sd, "    ?:   provides list of commands\n\n\r\n");
 8002852:	4904      	ldr	r1, [pc, #16]	; (8002864 <ti_help+0x24>)
 8002854:	4620      	mov	r0, r4
 8002856:	f7ff ffe3 	bl	8002820 <chprintf>
}
 800285a:	bd10      	pop	{r4, pc}
 800285c:	0800c244 	.word	0x0800c244
 8002860:	0800c25c 	.word	0x0800c25c
 8002864:	0800c2b8 	.word	0x0800c2b8
	...

08002870 <app_init>:
{
 8002870:	b510      	push	{r4, lr}
    sdStart(&DEBUG_SERIAL, &ser_cfg);
 8002872:	4c09      	ldr	r4, [pc, #36]	; (8002898 <app_init+0x28>)
 8002874:	4909      	ldr	r1, [pc, #36]	; (800289c <app_init+0x2c>)
 8002876:	4620      	mov	r0, r4
 8002878:	f008 fa9a 	bl	800adb0 <sdStart>
    chprintf(DEBUG_CHP, "\r\n Initializing ChibiOS\r\n");
 800287c:	4908      	ldr	r1, [pc, #32]	; (80028a0 <app_init+0x30>)
 800287e:	4620      	mov	r0, r4
 8002880:	f7ff ffce 	bl	8002820 <chprintf>
    spiStart(&SPID1, &spicfg_rx);
 8002884:	4907      	ldr	r1, [pc, #28]	; (80028a4 <app_init+0x34>)
 8002886:	4808      	ldr	r0, [pc, #32]	; (80028a8 <app_init+0x38>)
 8002888:	f008 fa82 	bl	800ad90 <spiStart>
    spiStart(&SPID2, &spicfg_tx);
 800288c:	4907      	ldr	r1, [pc, #28]	; (80028ac <app_init+0x3c>)
 800288e:	4808      	ldr	r0, [pc, #32]	; (80028b0 <app_init+0x40>)
 8002890:	f008 fa7e 	bl	800ad90 <spiStart>
}
 8002894:	bd10      	pop	{r4, pc}
 8002896:	bf00      	nop
 8002898:	20000f10 	.word	0x20000f10
 800289c:	20000ad4 	.word	0x20000ad4
 80028a0:	0800c2e0 	.word	0x0800c2e0
 80028a4:	0800dfcc 	.word	0x0800dfcc
 80028a8:	20000f8c 	.word	0x20000f8c
 80028ac:	0800dfe0 	.word	0x0800dfe0
 80028b0:	20000fbc 	.word	0x20000fbc
	...

080028c0 <cmd_systime>:
  chprintf(chp, "%s" SHELL_NEWLINE_STR, argv[0]);
}
#endif

#if (SHELL_CMD_SYSTIME_ENABLED == TRUE) || defined(__DOXYGEN__)
static void cmd_systime(BaseSequentialStream *chp, int argc, char *argv[]) {
 80028c0:	b510      	push	{r4, lr}
 80028c2:	4604      	mov	r4, r0

  (void)argv;
  if (argc > 0) {
 80028c4:	2900      	cmp	r1, #0
 80028c6:	dc0d      	bgt.n	80028e4 <cmd_systime+0x24>
 80028c8:	2320      	movs	r3, #32
 80028ca:	f383 8811 	msr	BASEPRI, r3
 80028ce:	f008 fa8f 	bl	800adf0 <stGetCounter>
 80028d2:	4602      	mov	r2, r0
 80028d4:	2300      	movs	r3, #0
 80028d6:	f383 8811 	msr	BASEPRI, r3
    shellUsage(chp, "systime");
    return;
  }
  chprintf(chp, "%lu" SHELL_NEWLINE_STR, (unsigned long)chVTGetSystemTime());
 80028da:	4905      	ldr	r1, [pc, #20]	; (80028f0 <cmd_systime+0x30>)
 80028dc:	4620      	mov	r0, r4
 80028de:	f7ff ff9f 	bl	8002820 <chprintf>
}
 80028e2:	bd10      	pop	{r4, pc}
    shellUsage(chp, "systime");
 80028e4:	4a03      	ldr	r2, [pc, #12]	; (80028f4 <cmd_systime+0x34>)
 80028e6:	4904      	ldr	r1, [pc, #16]	; (80028f8 <cmd_systime+0x38>)
 80028e8:	f7ff ff9a 	bl	8002820 <chprintf>
    return;
 80028ec:	e7f9      	b.n	80028e2 <cmd_systime+0x22>
 80028ee:	bf00      	nop
 80028f0:	0800c310 	.word	0x0800c310
 80028f4:	0800c2fc 	.word	0x0800c2fc
 80028f8:	0800c304 	.word	0x0800c304
 80028fc:	00000000 	.word	0x00000000

08002900 <cmd_echo>:
static void cmd_echo(BaseSequentialStream *chp, int argc, char *argv[]) {
 8002900:	b508      	push	{r3, lr}
  if (argc != 1) {
 8002902:	2901      	cmp	r1, #1
 8002904:	d004      	beq.n	8002910 <cmd_echo+0x10>
    shellUsage(chp, "echo \"message\"");
 8002906:	4a05      	ldr	r2, [pc, #20]	; (800291c <cmd_echo+0x1c>)
 8002908:	4905      	ldr	r1, [pc, #20]	; (8002920 <cmd_echo+0x20>)
 800290a:	f7ff ff89 	bl	8002820 <chprintf>
}
 800290e:	bd08      	pop	{r3, pc}
  chprintf(chp, "%s" SHELL_NEWLINE_STR, argv[0]);
 8002910:	6812      	ldr	r2, [r2, #0]
 8002912:	4904      	ldr	r1, [pc, #16]	; (8002924 <cmd_echo+0x24>)
 8002914:	f7ff ff84 	bl	8002820 <chprintf>
 8002918:	e7f9      	b.n	800290e <cmd_echo+0xe>
 800291a:	bf00      	nop
 800291c:	0800c318 	.word	0x0800c318
 8002920:	0800c304 	.word	0x0800c304
 8002924:	0800c328 	.word	0x0800c328
	...

08002930 <cmd_info>:
static void cmd_info(BaseSequentialStream *chp, int argc, char *argv[]) {
 8002930:	b510      	push	{r4, lr}
 8002932:	b082      	sub	sp, #8
 8002934:	4604      	mov	r4, r0
  if (argc > 0) {
 8002936:	2900      	cmp	r1, #0
 8002938:	dc2b      	bgt.n	8002992 <cmd_info+0x62>
  chprintf(chp, "Kernel:       %s" SHELL_NEWLINE_STR, CH_KERNEL_VERSION);
 800293a:	4a18      	ldr	r2, [pc, #96]	; (800299c <cmd_info+0x6c>)
 800293c:	4918      	ldr	r1, [pc, #96]	; (80029a0 <cmd_info+0x70>)
 800293e:	f7ff ff6f 	bl	8002820 <chprintf>
  chprintf(chp, "Compiler:     %s" SHELL_NEWLINE_STR, PORT_COMPILER_NAME);
 8002942:	4a18      	ldr	r2, [pc, #96]	; (80029a4 <cmd_info+0x74>)
 8002944:	4918      	ldr	r1, [pc, #96]	; (80029a8 <cmd_info+0x78>)
 8002946:	4620      	mov	r0, r4
 8002948:	f7ff ff6a 	bl	8002820 <chprintf>
  chprintf(chp, "Architecture: %s" SHELL_NEWLINE_STR, PORT_ARCHITECTURE_NAME);
 800294c:	4a17      	ldr	r2, [pc, #92]	; (80029ac <cmd_info+0x7c>)
 800294e:	4918      	ldr	r1, [pc, #96]	; (80029b0 <cmd_info+0x80>)
 8002950:	4620      	mov	r0, r4
 8002952:	f7ff ff65 	bl	8002820 <chprintf>
  chprintf(chp, "Core Variant: %s" SHELL_NEWLINE_STR, PORT_CORE_VARIANT_NAME);
 8002956:	4a17      	ldr	r2, [pc, #92]	; (80029b4 <cmd_info+0x84>)
 8002958:	4917      	ldr	r1, [pc, #92]	; (80029b8 <cmd_info+0x88>)
 800295a:	4620      	mov	r0, r4
 800295c:	f7ff ff60 	bl	8002820 <chprintf>
  chprintf(chp, "Port Info:    %s" SHELL_NEWLINE_STR, PORT_INFO);
 8002960:	4a16      	ldr	r2, [pc, #88]	; (80029bc <cmd_info+0x8c>)
 8002962:	4917      	ldr	r1, [pc, #92]	; (80029c0 <cmd_info+0x90>)
 8002964:	4620      	mov	r0, r4
 8002966:	f7ff ff5b 	bl	8002820 <chprintf>
  chprintf(chp, "Platform:     %s" SHELL_NEWLINE_STR, PLATFORM_NAME);
 800296a:	4a16      	ldr	r2, [pc, #88]	; (80029c4 <cmd_info+0x94>)
 800296c:	4916      	ldr	r1, [pc, #88]	; (80029c8 <cmd_info+0x98>)
 800296e:	4620      	mov	r0, r4
 8002970:	f7ff ff56 	bl	8002820 <chprintf>
  chprintf(chp, "Board:        %s" SHELL_NEWLINE_STR, BOARD_NAME);
 8002974:	4a15      	ldr	r2, [pc, #84]	; (80029cc <cmd_info+0x9c>)
 8002976:	4916      	ldr	r1, [pc, #88]	; (80029d0 <cmd_info+0xa0>)
 8002978:	4620      	mov	r0, r4
 800297a:	f7ff ff51 	bl	8002820 <chprintf>
  chprintf(chp, "Build time:   %s%s%s" SHELL_NEWLINE_STR, __DATE__, " - ", __TIME__);
 800297e:	4b15      	ldr	r3, [pc, #84]	; (80029d4 <cmd_info+0xa4>)
 8002980:	9300      	str	r3, [sp, #0]
 8002982:	4b15      	ldr	r3, [pc, #84]	; (80029d8 <cmd_info+0xa8>)
 8002984:	4a15      	ldr	r2, [pc, #84]	; (80029dc <cmd_info+0xac>)
 8002986:	4916      	ldr	r1, [pc, #88]	; (80029e0 <cmd_info+0xb0>)
 8002988:	4620      	mov	r0, r4
 800298a:	f7ff ff49 	bl	8002820 <chprintf>
}
 800298e:	b002      	add	sp, #8
 8002990:	bd10      	pop	{r4, pc}
    shellUsage(chp, "info");
 8002992:	4a14      	ldr	r2, [pc, #80]	; (80029e4 <cmd_info+0xb4>)
 8002994:	4914      	ldr	r1, [pc, #80]	; (80029e8 <cmd_info+0xb8>)
 8002996:	f7ff ff43 	bl	8002820 <chprintf>
    return;
 800299a:	e7f8      	b.n	800298e <cmd_info+0x5e>
 800299c:	0800c0bc 	.word	0x0800c0bc
 80029a0:	0800c338 	.word	0x0800c338
 80029a4:	0800b99c 	.word	0x0800b99c
 80029a8:	0800c34c 	.word	0x0800c34c
 80029ac:	0800b92c 	.word	0x0800b92c
 80029b0:	0800c360 	.word	0x0800c360
 80029b4:	0800b964 	.word	0x0800b964
 80029b8:	0800c374 	.word	0x0800c374
 80029bc:	0800b9d4 	.word	0x0800b9d4
 80029c0:	0800c388 	.word	0x0800c388
 80029c4:	0800c39c 	.word	0x0800c39c
 80029c8:	0800c3c8 	.word	0x0800c3c8
 80029cc:	0800c3dc 	.word	0x0800c3dc
 80029d0:	0800c408 	.word	0x0800c408
 80029d4:	0800c444 	.word	0x0800c444
 80029d8:	0800c41c 	.word	0x0800c41c
 80029dc:	0800c420 	.word	0x0800c420
 80029e0:	0800c42c 	.word	0x0800c42c
 80029e4:	0800c330 	.word	0x0800c330
 80029e8:	0800c304 	.word	0x0800c304
 80029ec:	00000000 	.word	0x00000000

080029f0 <shellGetLine>:
 * @retval true         the channel was reset or CTRL-D pressed.
 * @retval false        operation successful.
 *
 * @api
 */
bool shellGetLine(ShellConfig *scfg, char *line, unsigned size, ShellHistory *shp) {
 80029f0:	e92d 4ff0 	stmdb	sp!, {r4, r5, r6, r7, r8, r9, sl, fp, lr}
 80029f4:	b083      	sub	sp, #12
 80029f6:	4688      	mov	r8, r1
 80029f8:	4691      	mov	r9, r2
 80029fa:	469a      	mov	sl, r3
  char *p = line;
  BaseSequentialStream *chp = scfg->sc_channel;
 80029fc:	6804      	ldr	r4, [r0, #0]
  char *p = line;
 80029fe:	460e      	mov	r6, r1
#if SHELL_USE_ESC_SEQ == TRUE
  bool escape = false;
  bool bracket = false;
 8002a00:	2700      	movs	r7, #0
  bool escape = false;
 8002a02:	463d      	mov	r5, r7
 8002a04:	e03d      	b.n	8002a82 <shellGetLine+0x92>
      }
      if (bracket) {
        bracket = false;
#if SHELL_USE_HISTORY == TRUE
        if (c == 'A') {
          int len = get_history(shp, line, SHELL_HIST_DIR_BK);
 8002a06:	2200      	movs	r2, #0
 8002a08:	4641      	mov	r1, r8
 8002a0a:	4650      	mov	r0, sl
 8002a0c:	f7ff fe68 	bl	80026e0 <get_history>

          if (len > 0) {
 8002a10:	1e05      	subs	r5, r0, #0
 8002a12:	dc02      	bgt.n	8002a1a <shellGetLine+0x2a>
        bracket = false;
 8002a14:	2700      	movs	r7, #0
      escape = false;
 8002a16:	463d      	mov	r5, r7
 8002a18:	e033      	b.n	8002a82 <shellGetLine+0x92>
            _shell_reset_cur(chp);
 8002a1a:	2304      	movs	r3, #4
 8002a1c:	2246      	movs	r2, #70	; 0x46
 8002a1e:	4969      	ldr	r1, [pc, #420]	; (8002bc4 <shellGetLine+0x1d4>)
 8002a20:	4620      	mov	r0, r4
 8002a22:	f7ff fefd 	bl	8002820 <chprintf>
            _shell_clr_line(chp);
 8002a26:	4968      	ldr	r1, [pc, #416]	; (8002bc8 <shellGetLine+0x1d8>)
 8002a28:	4620      	mov	r0, r4
 8002a2a:	f7ff fef9 	bl	8002820 <chprintf>
            chprintf(chp, "%s", line);
 8002a2e:	4642      	mov	r2, r8
 8002a30:	4966      	ldr	r1, [pc, #408]	; (8002bcc <shellGetLine+0x1dc>)
 8002a32:	4620      	mov	r0, r4
 8002a34:	f7ff fef4 	bl	8002820 <chprintf>
            p = line + len;
 8002a38:	eb08 0605 	add.w	r6, r8, r5
 8002a3c:	e7ea      	b.n	8002a14 <shellGetLine+0x24>
          }
          continue;
        }
        if (c == 'B') {
          int len = get_history(shp, line, SHELL_HIST_DIR_FW);
 8002a3e:	2201      	movs	r2, #1
 8002a40:	4641      	mov	r1, r8
 8002a42:	4650      	mov	r0, sl
 8002a44:	f7ff fe4c 	bl	80026e0 <get_history>

          if (len == 0)
 8002a48:	4605      	mov	r5, r0
 8002a4a:	b910      	cbnz	r0, 8002a52 <shellGetLine+0x62>
            *line = 0;
 8002a4c:	2300      	movs	r3, #0
 8002a4e:	f888 3000 	strb.w	r3, [r8]

          if (len >= 0) {
 8002a52:	2d00      	cmp	r5, #0
 8002a54:	da02      	bge.n	8002a5c <shellGetLine+0x6c>
        bracket = false;
 8002a56:	2700      	movs	r7, #0
      escape = false;
 8002a58:	463d      	mov	r5, r7
 8002a5a:	e012      	b.n	8002a82 <shellGetLine+0x92>
            _shell_reset_cur(chp);
 8002a5c:	2304      	movs	r3, #4
 8002a5e:	2246      	movs	r2, #70	; 0x46
 8002a60:	4958      	ldr	r1, [pc, #352]	; (8002bc4 <shellGetLine+0x1d4>)
 8002a62:	4620      	mov	r0, r4
 8002a64:	f7ff fedc 	bl	8002820 <chprintf>
            _shell_clr_line(chp);
 8002a68:	4957      	ldr	r1, [pc, #348]	; (8002bc8 <shellGetLine+0x1d8>)
 8002a6a:	4620      	mov	r0, r4
 8002a6c:	f7ff fed8 	bl	8002820 <chprintf>
            chprintf(chp, "%s", line);
 8002a70:	4642      	mov	r2, r8
 8002a72:	4956      	ldr	r1, [pc, #344]	; (8002bcc <shellGetLine+0x1dc>)
 8002a74:	4620      	mov	r0, r4
 8002a76:	f7ff fed3 	bl	8002820 <chprintf>
            p = line + len;
 8002a7a:	eb08 0605 	add.w	r6, r8, r5
 8002a7e:	e7ea      	b.n	8002a56 <shellGetLine+0x66>
      escape = false;
 8002a80:	2500      	movs	r5, #0
    if (streamRead(chp, (uint8_t *)&c, 1) == 0)
 8002a82:	6823      	ldr	r3, [r4, #0]
 8002a84:	689b      	ldr	r3, [r3, #8]
 8002a86:	2201      	movs	r2, #1
 8002a88:	f10d 0107 	add.w	r1, sp, #7
 8002a8c:	4620      	mov	r0, r4
 8002a8e:	4798      	blx	r3
 8002a90:	2800      	cmp	r0, #0
 8002a92:	f000 808d 	beq.w	8002bb0 <shellGetLine+0x1c0>
    if (c == 27) {
 8002a96:	f89d 1007 	ldrb.w	r1, [sp, #7]
 8002a9a:	291b      	cmp	r1, #27
 8002a9c:	f000 808d 	beq.w	8002bba <shellGetLine+0x1ca>
    if (escape) {
 8002aa0:	b155      	cbz	r5, 8002ab8 <shellGetLine+0xc8>
      if (c == '[') {
 8002aa2:	295b      	cmp	r1, #91	; 0x5b
 8002aa4:	f000 808b 	beq.w	8002bbe <shellGetLine+0x1ce>
      if (bracket) {
 8002aa8:	2f00      	cmp	r7, #0
 8002aaa:	d0e9      	beq.n	8002a80 <shellGetLine+0x90>
        if (c == 'A') {
 8002aac:	2941      	cmp	r1, #65	; 0x41
 8002aae:	d0aa      	beq.n	8002a06 <shellGetLine+0x16>
        if (c == 'B') {
 8002ab0:	2942      	cmp	r1, #66	; 0x42
 8002ab2:	d0c4      	beq.n	8002a3e <shellGetLine+0x4e>
        bracket = false;
 8002ab4:	2700      	movs	r7, #0
 8002ab6:	e7e3      	b.n	8002a80 <shellGetLine+0x90>
      }
      continue;
    }
#endif
#if (SHELL_CMD_EXIT_ENABLED == TRUE) && !defined(_CHIBIOS_NIL_)
    if (c == 4) {
 8002ab8:	2904      	cmp	r1, #4
 8002aba:	d019      	beq.n	8002af0 <shellGetLine+0x100>
      chprintf(chp, "^D");
      return true;
    }
#endif
    if ((c == 8) || (c == 127)) {
 8002abc:	2908      	cmp	r1, #8
 8002abe:	d01d      	beq.n	8002afc <shellGetLine+0x10c>
 8002ac0:	297f      	cmp	r1, #127	; 0x7f
 8002ac2:	d01b      	beq.n	8002afc <shellGetLine+0x10c>
        streamPut(chp, 0x08);
        p--;
      }
      continue;
    }
    if (c == '\r') {
 8002ac4:	290d      	cmp	r1, #13
 8002ac6:	d02c      	beq.n	8002b22 <shellGetLine+0x132>
      }
      continue;
    }
#endif
#if SHELL_USE_HISTORY == TRUE
    if (c == 14) {
 8002ac8:	290e      	cmp	r1, #14
 8002aca:	d037      	beq.n	8002b3c <shellGetLine+0x14c>
        chprintf(chp, "%s", line);
        p = line + len;
      }
      continue;
    }
    if (c == 16) {
 8002acc:	2910      	cmp	r1, #16
 8002ace:	d054      	beq.n	8002b7a <shellGetLine+0x18a>
        p = line + len;
      }
      continue;
    }
#endif
    if (c < 0x20)
 8002ad0:	291f      	cmp	r1, #31
 8002ad2:	d9d6      	bls.n	8002a82 <shellGetLine+0x92>
      continue;
    if (p < line + size - 1) {
 8002ad4:	f109 33ff 	add.w	r3, r9, #4294967295	; 0xffffffff
 8002ad8:	4443      	add	r3, r8
 8002ada:	42b3      	cmp	r3, r6
 8002adc:	d9d1      	bls.n	8002a82 <shellGetLine+0x92>
      streamPut(chp, c);
 8002ade:	6823      	ldr	r3, [r4, #0]
 8002ae0:	68db      	ldr	r3, [r3, #12]
 8002ae2:	4620      	mov	r0, r4
 8002ae4:	4798      	blx	r3
      *p++ = (char)c;
 8002ae6:	f89d 3007 	ldrb.w	r3, [sp, #7]
 8002aea:	f806 3b01 	strb.w	r3, [r6], #1
 8002aee:	e7c8      	b.n	8002a82 <shellGetLine+0x92>
      chprintf(chp, "^D");
 8002af0:	4937      	ldr	r1, [pc, #220]	; (8002bd0 <shellGetLine+0x1e0>)
 8002af2:	4620      	mov	r0, r4
 8002af4:	f7ff fe94 	bl	8002820 <chprintf>
      return true;
 8002af8:	2501      	movs	r5, #1
 8002afa:	e05a      	b.n	8002bb2 <shellGetLine+0x1c2>
      if (p != line) {
 8002afc:	4546      	cmp	r6, r8
 8002afe:	d0c0      	beq.n	8002a82 <shellGetLine+0x92>
        streamPut(chp, 0x08);
 8002b00:	6823      	ldr	r3, [r4, #0]
 8002b02:	68db      	ldr	r3, [r3, #12]
 8002b04:	2108      	movs	r1, #8
 8002b06:	4620      	mov	r0, r4
 8002b08:	4798      	blx	r3
        streamPut(chp, 0x20);
 8002b0a:	6823      	ldr	r3, [r4, #0]
 8002b0c:	68db      	ldr	r3, [r3, #12]
 8002b0e:	2120      	movs	r1, #32
 8002b10:	4620      	mov	r0, r4
 8002b12:	4798      	blx	r3
        streamPut(chp, 0x08);
 8002b14:	6823      	ldr	r3, [r4, #0]
 8002b16:	68db      	ldr	r3, [r3, #12]
 8002b18:	2108      	movs	r1, #8
 8002b1a:	4620      	mov	r0, r4
 8002b1c:	4798      	blx	r3
        p--;
 8002b1e:	3e01      	subs	r6, #1
      continue;
 8002b20:	e7af      	b.n	8002a82 <shellGetLine+0x92>
      chprintf(chp, SHELL_NEWLINE_STR);
 8002b22:	492c      	ldr	r1, [pc, #176]	; (8002bd4 <shellGetLine+0x1e4>)
 8002b24:	4620      	mov	r0, r4
 8002b26:	f7ff fe7b 	bl	8002820 <chprintf>
      save_history(shp, line, p - line);
 8002b2a:	eba6 0208 	sub.w	r2, r6, r8
 8002b2e:	4641      	mov	r1, r8
 8002b30:	4650      	mov	r0, sl
 8002b32:	f7ff fd7d 	bl	8002630 <save_history>
      *p = 0;
 8002b36:	2300      	movs	r3, #0
 8002b38:	7033      	strb	r3, [r6, #0]
      return false;
 8002b3a:	e03a      	b.n	8002bb2 <shellGetLine+0x1c2>
      int len = get_history(shp, line, SHELL_HIST_DIR_FW);
 8002b3c:	2201      	movs	r2, #1
 8002b3e:	4641      	mov	r1, r8
 8002b40:	4650      	mov	r0, sl
 8002b42:	f7ff fdcd 	bl	80026e0 <get_history>
      if (len == 0)
 8002b46:	4683      	mov	fp, r0
 8002b48:	b910      	cbnz	r0, 8002b50 <shellGetLine+0x160>
        *line = 0;
 8002b4a:	2300      	movs	r3, #0
 8002b4c:	f888 3000 	strb.w	r3, [r8]
      if (len >= 0) {
 8002b50:	f1bb 0f00 	cmp.w	fp, #0
 8002b54:	db95      	blt.n	8002a82 <shellGetLine+0x92>
        _shell_reset_cur(chp);
 8002b56:	2304      	movs	r3, #4
 8002b58:	2246      	movs	r2, #70	; 0x46
 8002b5a:	491a      	ldr	r1, [pc, #104]	; (8002bc4 <shellGetLine+0x1d4>)
 8002b5c:	4620      	mov	r0, r4
 8002b5e:	f7ff fe5f 	bl	8002820 <chprintf>
        _shell_clr_line(chp);
 8002b62:	4919      	ldr	r1, [pc, #100]	; (8002bc8 <shellGetLine+0x1d8>)
 8002b64:	4620      	mov	r0, r4
 8002b66:	f7ff fe5b 	bl	8002820 <chprintf>
        chprintf(chp, "%s", line);
 8002b6a:	4642      	mov	r2, r8
 8002b6c:	4917      	ldr	r1, [pc, #92]	; (8002bcc <shellGetLine+0x1dc>)
 8002b6e:	4620      	mov	r0, r4
 8002b70:	f7ff fe56 	bl	8002820 <chprintf>
        p = line + len;
 8002b74:	eb08 060b 	add.w	r6, r8, fp
      continue;
 8002b78:	e783      	b.n	8002a82 <shellGetLine+0x92>
      int len = get_history(shp, line, SHELL_HIST_DIR_BK);
 8002b7a:	2200      	movs	r2, #0
 8002b7c:	4641      	mov	r1, r8
 8002b7e:	4650      	mov	r0, sl
 8002b80:	f7ff fdae 	bl	80026e0 <get_history>
      if (len > 0) {
 8002b84:	f1b0 0b00 	subs.w	fp, r0, #0
 8002b88:	f77f af7b 	ble.w	8002a82 <shellGetLine+0x92>
        _shell_reset_cur(chp);
 8002b8c:	2304      	movs	r3, #4
 8002b8e:	2246      	movs	r2, #70	; 0x46
 8002b90:	490c      	ldr	r1, [pc, #48]	; (8002bc4 <shellGetLine+0x1d4>)
 8002b92:	4620      	mov	r0, r4
 8002b94:	f7ff fe44 	bl	8002820 <chprintf>
        _shell_clr_line(chp);
 8002b98:	490b      	ldr	r1, [pc, #44]	; (8002bc8 <shellGetLine+0x1d8>)
 8002b9a:	4620      	mov	r0, r4
 8002b9c:	f7ff fe40 	bl	8002820 <chprintf>
        chprintf(chp, "%s", line);
 8002ba0:	4642      	mov	r2, r8
 8002ba2:	490a      	ldr	r1, [pc, #40]	; (8002bcc <shellGetLine+0x1dc>)
 8002ba4:	4620      	mov	r0, r4
 8002ba6:	f7ff fe3b 	bl	8002820 <chprintf>
        p = line + len;
 8002baa:	eb08 060b 	add.w	r6, r8, fp
      continue;
 8002bae:	e768      	b.n	8002a82 <shellGetLine+0x92>
      return true;
 8002bb0:	2501      	movs	r5, #1
    }
  }
}
 8002bb2:	4628      	mov	r0, r5
 8002bb4:	b003      	add	sp, #12
 8002bb6:	e8bd 8ff0 	ldmia.w	sp!, {r4, r5, r6, r7, r8, r9, sl, fp, pc}
      escape = true;
 8002bba:	2501      	movs	r5, #1
 8002bbc:	e761      	b.n	8002a82 <shellGetLine+0x92>
        bracket = true;
 8002bbe:	462f      	mov	r7, r5
 8002bc0:	e75f      	b.n	8002a82 <shellGetLine+0x92>
 8002bc2:	bf00      	nop
 8002bc4:	0800c450 	.word	0x0800c450
 8002bc8:	0800c45c 	.word	0x0800c45c
 8002bcc:	0800c460 	.word	0x0800c460
 8002bd0:	0800c464 	.word	0x0800c464
 8002bd4:	0800c2dc 	.word	0x0800c2dc
	...

08002be0 <list_commands>:
static void list_commands(BaseSequentialStream *chp, const ShellCommand *scp) {
 8002be0:	b538      	push	{r3, r4, r5, lr}
 8002be2:	4605      	mov	r5, r0
 8002be4:	460c      	mov	r4, r1
  while (scp->sc_name != NULL) {
 8002be6:	6822      	ldr	r2, [r4, #0]
 8002be8:	b12a      	cbz	r2, 8002bf6 <list_commands+0x16>
    chprintf(chp, "%s ", scp->sc_name);
 8002bea:	4903      	ldr	r1, [pc, #12]	; (8002bf8 <list_commands+0x18>)
 8002bec:	4628      	mov	r0, r5
 8002bee:	f7ff fe17 	bl	8002820 <chprintf>
    scp++;
 8002bf2:	3408      	adds	r4, #8
 8002bf4:	e7f7      	b.n	8002be6 <list_commands+0x6>
}
 8002bf6:	bd38      	pop	{r3, r4, r5, pc}
 8002bf8:	0800c468 	.word	0x0800c468
 8002bfc:	00000000 	.word	0x00000000

08002c00 <lmx2572_reset>:
 * @param[in]  spip               pointer to the @p SPIDriver object.
 * @param[in]  value              LMX2572 register address and value.   
 *
 * @return                        None
 */ 
void lmx2572_reset(SPIDriver * spip){
 8002c00:	b510      	push	{r4, lr}
 8002c02:	b082      	sub	sp, #8
 8002c04:	4604      	mov	r4, r0
  uint8_t spi_buf[3] = {0,0,0};
 8002c06:	4b0c      	ldr	r3, [pc, #48]	; (8002c38 <lmx2572_reset+0x38>)
 8002c08:	681b      	ldr	r3, [r3, #0]
 8002c0a:	f8ad 3004 	strh.w	r3, [sp, #4]
  
  spi_buf[2] = 0x1E;
 8002c0e:	231e      	movs	r3, #30
 8002c10:	f88d 3006 	strb.w	r3, [sp, #6]
  spi_buf[1] = 0x21;
 8002c14:	2321      	movs	r3, #33	; 0x21
 8002c16:	f88d 3005 	strb.w	r3, [sp, #5]
  spi_buf[0] = 0x00;
  spiSelect(spip);
 8002c1a:	f008 f8a9 	bl	800ad70 <spiSelect>
  spiStartSend(spip, 3, spi_buf);
 8002c1e:	aa01      	add	r2, sp, #4
 8002c20:	2103      	movs	r1, #3
 8002c22:	4620      	mov	r0, r4
 8002c24:	f008 f884 	bl	800ad30 <spiStartSend>
  while((*spip).state != SPI_READY) { }
 8002c28:	7823      	ldrb	r3, [r4, #0]
 8002c2a:	2b02      	cmp	r3, #2
 8002c2c:	d1fc      	bne.n	8002c28 <lmx2572_reset+0x28>
  spiUnselect(spip);
 8002c2e:	4620      	mov	r0, r4
 8002c30:	f008 f88e 	bl	800ad50 <spiUnselect>

}
 8002c34:	b002      	add	sp, #8
 8002c36:	bd10      	pop	{r4, pc}
 8002c38:	0800b524 	.word	0x0800b524
 8002c3c:	00000000 	.word	0x00000000

08002c40 <lmx2572_write_reg>:
void lmx2572_write_reg(SPIDriver * spip, uint32_t value){
 8002c40:	b510      	push	{r4, lr}
 8002c42:	b082      	sub	sp, #8
 8002c44:	4604      	mov	r4, r0
  spi_buf[2] = value;
 8002c46:	f88d 1006 	strb.w	r1, [sp, #6]
  spi_buf[1] = value >> 8;
 8002c4a:	0a0b      	lsrs	r3, r1, #8
 8002c4c:	f88d 3005 	strb.w	r3, [sp, #5]
  spi_buf[0] = value >> 16;
 8002c50:	0c09      	lsrs	r1, r1, #16
 8002c52:	f88d 1004 	strb.w	r1, [sp, #4]
  spiSelect(spip);
 8002c56:	f008 f88b 	bl	800ad70 <spiSelect>
  spiStartSend(spip, 3, spi_buf);
 8002c5a:	aa01      	add	r2, sp, #4
 8002c5c:	2103      	movs	r1, #3
 8002c5e:	4620      	mov	r0, r4
 8002c60:	f008 f866 	bl	800ad30 <spiStartSend>
  while((*spip).state != SPI_READY) { }
 8002c64:	7823      	ldrb	r3, [r4, #0]
 8002c66:	2b02      	cmp	r3, #2
 8002c68:	d1fc      	bne.n	8002c64 <lmx2572_write_reg+0x24>
  spiUnselect(spip);
 8002c6a:	4620      	mov	r0, r4
 8002c6c:	f008 f870 	bl	800ad50 <spiUnselect>
}
 8002c70:	b002      	add	sp, #8
 8002c72:	bd10      	pop	{r4, pc}
	...

08002c80 <reg>:
static void reg(BaseSequentialStream *sd, int argc, char *argv[]) {
 8002c80:	b538      	push	{r3, r4, r5, lr}
 8002c82:	4604      	mov	r4, r0
 8002c84:	4615      	mov	r5, r2
  if (argc != 1) {
 8002c86:	2901      	cmp	r1, #1
 8002c88:	d115      	bne.n	8002cb6 <reg+0x36>
  value = strtoul((argv[0][0] == '0' && argv[0][1] == 'b') ?  argv[0]+2: argv[0], NULL, (argv[0][0] == '0' && argv[0][1] == 'b') ? 2 : 0);
 8002c8a:	682b      	ldr	r3, [r5, #0]
 8002c8c:	781a      	ldrb	r2, [r3, #0]
 8002c8e:	2a30      	cmp	r2, #48	; 0x30
 8002c90:	d021      	beq.n	8002cd6 <reg+0x56>
 8002c92:	4618      	mov	r0, r3
 8002c94:	2a30      	cmp	r2, #48	; 0x30
 8002c96:	d025      	beq.n	8002ce4 <reg+0x64>
 8002c98:	2200      	movs	r2, #0
 8002c9a:	2100      	movs	r1, #0
 8002c9c:	f008 faa8 	bl	800b1f0 <strtoul>
 8002ca0:	4605      	mov	r5, r0
  lmx2572_write_reg(&SPID1, value);
 8002ca2:	4601      	mov	r1, r0
 8002ca4:	4813      	ldr	r0, [pc, #76]	; (8002cf4 <reg+0x74>)
 8002ca6:	f7ff ffcb 	bl	8002c40 <lmx2572_write_reg>
  chprintf(sd, "INFO: Updated with value 0x%x.\r\n", value);
 8002caa:	462a      	mov	r2, r5
 8002cac:	4912      	ldr	r1, [pc, #72]	; (8002cf8 <reg+0x78>)
 8002cae:	4620      	mov	r0, r4
 8002cb0:	f7ff fdb6 	bl	8002820 <chprintf>
}
 8002cb4:	bd38      	pop	{r3, r4, r5, pc}
    chprintf(sd, "Usage: reg <value> register address concated with its value\r\n");
 8002cb6:	4911      	ldr	r1, [pc, #68]	; (8002cfc <reg+0x7c>)
 8002cb8:	f7ff fdb2 	bl	8002820 <chprintf>
    chprintf(sd, "Example:   reg 12\r\n");
 8002cbc:	4910      	ldr	r1, [pc, #64]	; (8002d00 <reg+0x80>)
 8002cbe:	4620      	mov	r0, r4
 8002cc0:	f7ff fdae 	bl	8002820 <chprintf>
    chprintf(sd, "           reg 0xCA\r\n");
 8002cc4:	490f      	ldr	r1, [pc, #60]	; (8002d04 <reg+0x84>)
 8002cc6:	4620      	mov	r0, r4
 8002cc8:	f7ff fdaa 	bl	8002820 <chprintf>
    chprintf(sd, "           reg 0b10\r\n");
 8002ccc:	490e      	ldr	r1, [pc, #56]	; (8002d08 <reg+0x88>)
 8002cce:	4620      	mov	r0, r4
 8002cd0:	f7ff fda6 	bl	8002820 <chprintf>
 8002cd4:	e7d9      	b.n	8002c8a <reg+0xa>
  value = strtoul((argv[0][0] == '0' && argv[0][1] == 'b') ?  argv[0]+2: argv[0], NULL, (argv[0][0] == '0' && argv[0][1] == 'b') ? 2 : 0);
 8002cd6:	7859      	ldrb	r1, [r3, #1]
 8002cd8:	2962      	cmp	r1, #98	; 0x62
 8002cda:	d001      	beq.n	8002ce0 <reg+0x60>
 8002cdc:	4618      	mov	r0, r3
 8002cde:	e7d9      	b.n	8002c94 <reg+0x14>
 8002ce0:	1c98      	adds	r0, r3, #2
 8002ce2:	e7d7      	b.n	8002c94 <reg+0x14>
 8002ce4:	785b      	ldrb	r3, [r3, #1]
 8002ce6:	2b62      	cmp	r3, #98	; 0x62
 8002ce8:	d001      	beq.n	8002cee <reg+0x6e>
 8002cea:	2200      	movs	r2, #0
 8002cec:	e7d5      	b.n	8002c9a <reg+0x1a>
 8002cee:	2202      	movs	r2, #2
 8002cf0:	e7d3      	b.n	8002c9a <reg+0x1a>
 8002cf2:	bf00      	nop
 8002cf4:	20000f8c 	.word	0x20000f8c
 8002cf8:	0800c4f0 	.word	0x0800c4f0
 8002cfc:	0800c46c 	.word	0x0800c46c
 8002d00:	0800c4ac 	.word	0x0800c4ac
 8002d04:	0800c4c0 	.word	0x0800c4c0
 8002d08:	0800c4d8 	.word	0x0800c4d8
 8002d0c:	00000000 	.word	0x00000000

08002d10 <lmx2572_load_regs>:
void lmx2572_load_regs(SPIDriver * spip, uint32_t lmx2572Regs[]){
 8002d10:	b570      	push	{r4, r5, r6, lr}
 8002d12:	4606      	mov	r6, r0
 8002d14:	460d      	mov	r5, r1
  int i = 0;
 8002d16:	2400      	movs	r4, #0
  while ((lmx2572Regs[i] & 0x00FF0000) == 0) {
 8002d18:	f855 1024 	ldr.w	r1, [r5, r4, lsl #2]
 8002d1c:	f411 0f7f 	tst.w	r1, #16711680	; 0xff0000
 8002d20:	d104      	bne.n	8002d2c <lmx2572_load_regs+0x1c>
    lmx2572_write_reg(spip,lmx2572Regs[i]);
 8002d22:	4630      	mov	r0, r6
 8002d24:	f7ff ff8c 	bl	8002c40 <lmx2572_write_reg>
    i++;
 8002d28:	3401      	adds	r4, #1
 8002d2a:	e7f5      	b.n	8002d18 <lmx2572_load_regs+0x8>
}
 8002d2c:	bd70      	pop	{r4, r5, r6, pc}
 8002d2e:	bf00      	nop

08002d30 <dyn_list_find>:
static dyn_element_t *dyn_list_find(const char *name, dyn_list_t *dlp) {
 8002d30:	b570      	push	{r4, r5, r6, lr}
 8002d32:	4606      	mov	r6, r0
 8002d34:	460d      	mov	r5, r1
  dyn_element_t *p = dlp->next;
 8002d36:	680c      	ldr	r4, [r1, #0]
  while (p != (dyn_element_t *)dlp) {
 8002d38:	42ac      	cmp	r4, r5
 8002d3a:	d007      	beq.n	8002d4c <dyn_list_find+0x1c>
    if (strncmp(p->name, name, CH_CFG_FACTORY_MAX_NAMES_LENGTH) == 0) {
 8002d3c:	2208      	movs	r2, #8
 8002d3e:	4631      	mov	r1, r6
 8002d40:	18a0      	adds	r0, r4, r2
 8002d42:	f008 fb49 	bl	800b3d8 <strncmp>
 8002d46:	b110      	cbz	r0, 8002d4e <dyn_list_find+0x1e>
    p = p->next;
 8002d48:	6824      	ldr	r4, [r4, #0]
 8002d4a:	e7f5      	b.n	8002d38 <dyn_list_find+0x8>
  return NULL;
 8002d4c:	2400      	movs	r4, #0
}
 8002d4e:	4620      	mov	r0, r4
 8002d50:	bd70      	pop	{r4, r5, r6, pc}
 8002d52:	bf00      	nop
	...

08002d60 <dyn_find_object>:
#endif /* CH_FACTORY_REQUIRES_POOLS */

static dyn_element_t *dyn_find_object(const char *name, dyn_list_t *dlp) {
 8002d60:	b508      	push	{r3, lr}
  dyn_element_t *dep;

  chDbgCheck(name != NULL);

  /* Checking if an object with this name has already been created.*/
  dep = dyn_list_find(name, dlp);
 8002d62:	f7ff ffe5 	bl	8002d30 <dyn_list_find>
  if (dep != NULL) {
 8002d66:	4603      	mov	r3, r0
 8002d68:	b110      	cbz	r0, 8002d70 <dyn_find_object+0x10>
    /* Increasing references counter.*/
    dep->refs++;
 8002d6a:	6842      	ldr	r2, [r0, #4]
 8002d6c:	3201      	adds	r2, #1
 8002d6e:	6042      	str	r2, [r0, #4]
  }

  return dep;
}
 8002d70:	4618      	mov	r0, r3
 8002d72:	bd08      	pop	{r3, pc}
	...

08002d80 <dyn_create_object_pool>:
                                             memory_pool_t *mp) {
 8002d80:	b570      	push	{r4, r5, r6, lr}
 8002d82:	4605      	mov	r5, r0
 8002d84:	460e      	mov	r6, r1
 8002d86:	4614      	mov	r4, r2
  dep = dyn_list_find(name, dlp);
 8002d88:	f7ff ffd2 	bl	8002d30 <dyn_list_find>
  if (dep != NULL) {
 8002d8c:	b978      	cbnz	r0, 8002dae <dyn_create_object_pool+0x2e>
  dep = (dyn_element_t *)chPoolAlloc(mp);
 8002d8e:	4620      	mov	r0, r4
 8002d90:	f7fe fd16 	bl	80017c0 <chPoolAlloc>
  if (dep == NULL) {
 8002d94:	4604      	mov	r4, r0
 8002d96:	b158      	cbz	r0, 8002db0 <dyn_create_object_pool+0x30>
  strncpy(dep->name, name, CH_CFG_FACTORY_MAX_NAMES_LENGTH);
 8002d98:	2208      	movs	r2, #8
 8002d9a:	4629      	mov	r1, r5
 8002d9c:	4410      	add	r0, r2
 8002d9e:	f008 fb59 	bl	800b454 <strncpy>
  dep->refs = (ucnt_t)1;
 8002da2:	2301      	movs	r3, #1
 8002da4:	6063      	str	r3, [r4, #4]
  dep->next = dlp->next;
 8002da6:	6833      	ldr	r3, [r6, #0]
 8002da8:	6023      	str	r3, [r4, #0]
  dlp->next = (dyn_element_t *)dep;
 8002daa:	6034      	str	r4, [r6, #0]
  return dep;
 8002dac:	e000      	b.n	8002db0 <dyn_create_object_pool+0x30>
    return NULL;
 8002dae:	2400      	movs	r4, #0
}
 8002db0:	4620      	mov	r0, r4
 8002db2:	bd70      	pop	{r4, r5, r6, pc}
	...

08002dc0 <chMsgSend>:
msg_t chMsgSend(thread_t *tp, msg_t msg) {
 8002dc0:	b510      	push	{r4, lr}
  thread_t *ctp = currp;
 8002dc2:	4b0e      	ldr	r3, [pc, #56]	; (8002dfc <chMsgSend+0x3c>)
 8002dc4:	699c      	ldr	r4, [r3, #24]
 8002dc6:	2320      	movs	r3, #32
 8002dc8:	f383 8811 	msr	BASEPRI, r3
  ctp->u.sentmsg = msg;
 8002dcc:	6261      	str	r1, [r4, #36]	; 0x24
  msg_insert(ctp, &tp->msgqueue);
 8002dce:	f100 032c 	add.w	r3, r0, #44	; 0x2c
  tp->queue.next             = (thread_t *)tqp;
 8002dd2:	6023      	str	r3, [r4, #0]
  tp->queue.prev             = tqp->prev;
 8002dd4:	6b03      	ldr	r3, [r0, #48]	; 0x30
 8002dd6:	6063      	str	r3, [r4, #4]
  tp->queue.prev->queue.next = tp;
 8002dd8:	601c      	str	r4, [r3, #0]
  tqp->prev                  = tp;
 8002dda:	6304      	str	r4, [r0, #48]	; 0x30
  if (tp->state == CH_STATE_WTMSG) {
 8002ddc:	f890 3020 	ldrb.w	r3, [r0, #32]
 8002de0:	2b0e      	cmp	r3, #14
 8002de2:	d007      	beq.n	8002df4 <chMsgSend+0x34>
  chSchGoSleepS(CH_STATE_SNDMSGQ);
 8002de4:	200c      	movs	r0, #12
 8002de6:	f007 fb63 	bl	800a4b0 <chSchGoSleepS>
  msg = ctp->u.rdymsg;
 8002dea:	6a60      	ldr	r0, [r4, #36]	; 0x24
 8002dec:	2300      	movs	r3, #0
 8002dee:	f383 8811 	msr	BASEPRI, r3
}
 8002df2:	bd10      	pop	{r4, pc}
    (void) chSchReadyI(tp);
 8002df4:	f007 fb74 	bl	800a4e0 <chSchReadyI>
 8002df8:	e7f4      	b.n	8002de4 <chMsgSend+0x24>
 8002dfa:	bf00      	nop
 8002dfc:	20001040 	.word	0x20001040

08002e00 <msg_thread1>:

/****************************************************************************
 * Shared code.
 ****************************************************************************/

static THD_FUNCTION(msg_thread1, p) {
 8002e00:	b510      	push	{r4, lr}
 8002e02:	4604      	mov	r4, r0

  chMsgSend(p, 'A');
 8002e04:	2141      	movs	r1, #65	; 0x41
 8002e06:	f7ff ffdb 	bl	8002dc0 <chMsgSend>
  chMsgSend(p, 'B');
 8002e0a:	2142      	movs	r1, #66	; 0x42
 8002e0c:	4620      	mov	r0, r4
 8002e0e:	f7ff ffd7 	bl	8002dc0 <chMsgSend>
  chMsgSend(p, 'C');
 8002e12:	2143      	movs	r1, #67	; 0x43
 8002e14:	4620      	mov	r0, r4
 8002e16:	f7ff ffd3 	bl	8002dc0 <chMsgSend>
  chMsgSend(p, 'D');
 8002e1a:	2144      	movs	r1, #68	; 0x44
 8002e1c:	4620      	mov	r0, r4
 8002e1e:	f7ff ffcf 	bl	8002dc0 <chMsgSend>
}
 8002e22:	bd10      	pop	{r4, pc}
	...

08002e30 <chDelegateCallVeneer>:
msg_t chDelegateCallVeneer(thread_t *tp, delegate_veneer_t veneer, ...) {
 8002e30:	b40e      	push	{r1, r2, r3}
 8002e32:	b500      	push	{lr}
 8002e34:	b084      	sub	sp, #16
 8002e36:	ab05      	add	r3, sp, #20
 8002e38:	f853 2b04 	ldr.w	r2, [r3], #4
  va_start(args, veneer);
 8002e3c:	9303      	str	r3, [sp, #12]
  cm.veneer = veneer;
 8002e3e:	9201      	str	r2, [sp, #4]
  cm.argsp  = &args;
 8002e40:	ab03      	add	r3, sp, #12
 8002e42:	9302      	str	r3, [sp, #8]
  msg = chMsgSend(tp, (msg_t)&cm);
 8002e44:	a901      	add	r1, sp, #4
 8002e46:	f7ff ffbb 	bl	8002dc0 <chMsgSend>
}
 8002e4a:	b004      	add	sp, #16
 8002e4c:	f85d eb04 	ldr.w	lr, [sp], #4
 8002e50:	b003      	add	sp, #12
 8002e52:	4770      	bx	lr
	...

08002e60 <chEvtSignalI>:
void chEvtSignalI(thread_t *tp, eventmask_t events) {
 8002e60:	b508      	push	{r3, lr}
  tp->epending |= events;
 8002e62:	6b43      	ldr	r3, [r0, #52]	; 0x34
 8002e64:	4319      	orrs	r1, r3
 8002e66:	6341      	str	r1, [r0, #52]	; 0x34
  if (((tp->state == CH_STATE_WTOREVT) &&
 8002e68:	f890 3020 	ldrb.w	r3, [r0, #32]
 8002e6c:	2b0a      	cmp	r3, #10
 8002e6e:	d002      	beq.n	8002e76 <chEvtSignalI+0x16>
       ((tp->epending & tp->u.ewmask) != (eventmask_t)0)) ||
 8002e70:	2b0b      	cmp	r3, #11
 8002e72:	d008      	beq.n	8002e86 <chEvtSignalI+0x26>
}
 8002e74:	bd08      	pop	{r3, pc}
       ((tp->epending & tp->u.ewmask) != (eventmask_t)0)) ||
 8002e76:	6a42      	ldr	r2, [r0, #36]	; 0x24
  if (((tp->state == CH_STATE_WTOREVT) &&
 8002e78:	4211      	tst	r1, r2
 8002e7a:	d0f9      	beq.n	8002e70 <chEvtSignalI+0x10>
    tp->u.rdymsg = MSG_OK;
 8002e7c:	2300      	movs	r3, #0
 8002e7e:	6243      	str	r3, [r0, #36]	; 0x24
    (void) chSchReadyI(tp);
 8002e80:	f007 fb2e 	bl	800a4e0 <chSchReadyI>
 8002e84:	e7f6      	b.n	8002e74 <chEvtSignalI+0x14>
       ((tp->epending & tp->u.ewmask) == tp->u.ewmask))) {
 8002e86:	6a43      	ldr	r3, [r0, #36]	; 0x24
      ((tp->state == CH_STATE_WTANDEVT) &&
 8002e88:	438b      	bics	r3, r1
 8002e8a:	d1f3      	bne.n	8002e74 <chEvtSignalI+0x14>
 8002e8c:	e7f6      	b.n	8002e7c <chEvtSignalI+0x1c>
 8002e8e:	bf00      	nop

08002e90 <chEvtSignal>:
void chEvtSignal(thread_t *tp, eventmask_t events) {
 8002e90:	b508      	push	{r3, lr}
 8002e92:	2320      	movs	r3, #32
 8002e94:	f383 8811 	msr	BASEPRI, r3
  chEvtSignalI(tp, events);
 8002e98:	f7ff ffe2 	bl	8002e60 <chEvtSignalI>
  chSchRescheduleS();
 8002e9c:	f007 faf8 	bl	800a490 <chSchRescheduleS>
 8002ea0:	2300      	movs	r3, #0
 8002ea2:	f383 8811 	msr	BASEPRI, r3
}
 8002ea6:	bd08      	pop	{r3, pc}
	...

08002eb0 <chCondBroadcastI>:
 *
 * @param[in] cp        pointer to the @p condition_variable_t structure
 *
 * @iclass
 */
void chCondBroadcastI(condition_variable_t *cp) {
 8002eb0:	b510      	push	{r4, lr}
 8002eb2:	4604      	mov	r4, r0
  return (bool)(tqp->next != (const thread_t *)tqp);
 8002eb4:	6820      	ldr	r0, [r4, #0]
  chDbgCheck(cp != NULL);

  /* Empties the condition variable queue and inserts all the threads into the
     ready list in FIFO order. The wakeup message is set to @p MSG_RESET in
     order to make a chCondBroadcast() detectable from a chCondSignal().*/
  while (queue_notempty(&cp->queue)) {
 8002eb6:	4284      	cmp	r4, r0
 8002eb8:	d008      	beq.n	8002ecc <chCondBroadcastI+0x1c>
  tqp->next             = tp->queue.next;
 8002eba:	6803      	ldr	r3, [r0, #0]
 8002ebc:	6023      	str	r3, [r4, #0]
  tqp->next->queue.prev = (thread_t *)tqp;
 8002ebe:	605c      	str	r4, [r3, #4]
    chSchReadyI(queue_fifo_remove(&cp->queue))->u.rdymsg = MSG_RESET;
 8002ec0:	f007 fb0e 	bl	800a4e0 <chSchReadyI>
 8002ec4:	f06f 0301 	mvn.w	r3, #1
 8002ec8:	6243      	str	r3, [r0, #36]	; 0x24
 8002eca:	e7f3      	b.n	8002eb4 <chCondBroadcastI+0x4>
  }
}
 8002ecc:	bd10      	pop	{r4, pc}
 8002ece:	bf00      	nop

08002ed0 <chCondBroadcast>:
void chCondBroadcast(condition_variable_t *cp) {
 8002ed0:	b508      	push	{r3, lr}
 8002ed2:	2320      	movs	r3, #32
 8002ed4:	f383 8811 	msr	BASEPRI, r3
  chCondBroadcastI(cp);
 8002ed8:	f7ff ffea 	bl	8002eb0 <chCondBroadcastI>
  chSchRescheduleS();
 8002edc:	f007 fad8 	bl	800a490 <chSchRescheduleS>
 8002ee0:	2300      	movs	r3, #0
 8002ee2:	f383 8811 	msr	BASEPRI, r3
}
 8002ee6:	bd08      	pop	{r3, pc}
	...

08002ef0 <chCondSignalI>:
void chCondSignalI(condition_variable_t *cp) {
 8002ef0:	b508      	push	{r3, lr}
 8002ef2:	4603      	mov	r3, r0
  return (bool)(tqp->next != (const thread_t *)tqp);
 8002ef4:	6800      	ldr	r0, [r0, #0]
  if (queue_notempty(&cp->queue)) {
 8002ef6:	4283      	cmp	r3, r0
 8002ef8:	d006      	beq.n	8002f08 <chCondSignalI+0x18>
  tqp->next             = tp->queue.next;
 8002efa:	6802      	ldr	r2, [r0, #0]
 8002efc:	601a      	str	r2, [r3, #0]
  tqp->next->queue.prev = (thread_t *)tqp;
 8002efe:	6053      	str	r3, [r2, #4]
    tp->u.rdymsg = MSG_OK;
 8002f00:	2300      	movs	r3, #0
 8002f02:	6243      	str	r3, [r0, #36]	; 0x24
    (void) chSchReadyI(tp);
 8002f04:	f007 faec 	bl	800a4e0 <chSchReadyI>
}
 8002f08:	bd08      	pop	{r3, pc}
 8002f0a:	bf00      	nop
 8002f0c:	0000      	movs	r0, r0
	...

08002f10 <chMtxUnlockAll>:
 *          this function does not have any overhead related to the priority
 *          inheritance mechanism.
 *
 * @api
 */
void chMtxUnlockAll(void) {
 8002f10:	b510      	push	{r4, lr}
  thread_t *ctp = currp;
 8002f12:	4b12      	ldr	r3, [pc, #72]	; (8002f5c <chMtxUnlockAll+0x4c>)
 8002f14:	699c      	ldr	r4, [r3, #24]
 8002f16:	2320      	movs	r3, #32
 8002f18:	f383 8811 	msr	BASEPRI, r3

  chSysLock();
  if (ctp->mtxlist != NULL) {
 8002f1c:	6ba3      	ldr	r3, [r4, #56]	; 0x38
 8002f1e:	b95b      	cbnz	r3, 8002f38 <chMtxUnlockAll+0x28>
 8002f20:	e017      	b.n	8002f52 <chMtxUnlockAll+0x42>
  tqp->next             = tp->queue.next;
 8002f22:	6802      	ldr	r2, [r0, #0]
 8002f24:	601a      	str	r2, [r3, #0]
  tqp->next->queue.prev = (thread_t *)tqp;
 8002f26:	6053      	str	r3, [r2, #4]
      if (chMtxQueueNotEmptyS(mp)) {
#if CH_CFG_USE_MUTEXES_RECURSIVE == TRUE
        mp->cnt = (cnt_t)1;
#endif
        thread_t *tp = queue_fifo_remove(&mp->queue);
        mp->owner = tp;
 8002f28:	6098      	str	r0, [r3, #8]
        mp->next = tp->mtxlist;
 8002f2a:	6b82      	ldr	r2, [r0, #56]	; 0x38
 8002f2c:	60da      	str	r2, [r3, #12]
        tp->mtxlist = mp;
 8002f2e:	6383      	str	r3, [r0, #56]	; 0x38
        (void) chSchReadyI(tp);
 8002f30:	f007 fad6 	bl	800a4e0 <chSchReadyI>
#if CH_CFG_USE_MUTEXES_RECURSIVE == TRUE
        mp->cnt = (cnt_t)0;
#endif
        mp->owner = NULL;
      }
    } while (ctp->mtxlist != NULL);
 8002f34:	6ba3      	ldr	r3, [r4, #56]	; 0x38
 8002f36:	b143      	cbz	r3, 8002f4a <chMtxUnlockAll+0x3a>
      mutex_t *mp = ctp->mtxlist;
 8002f38:	6ba3      	ldr	r3, [r4, #56]	; 0x38
      ctp->mtxlist = mp->next;
 8002f3a:	68da      	ldr	r2, [r3, #12]
 8002f3c:	63a2      	str	r2, [r4, #56]	; 0x38
  return (bool)(tqp->next != (const thread_t *)tqp);
 8002f3e:	6818      	ldr	r0, [r3, #0]
      if (chMtxQueueNotEmptyS(mp)) {
 8002f40:	4283      	cmp	r3, r0
 8002f42:	d1ee      	bne.n	8002f22 <chMtxUnlockAll+0x12>
        mp->owner = NULL;
 8002f44:	2200      	movs	r2, #0
 8002f46:	609a      	str	r2, [r3, #8]
 8002f48:	e7f4      	b.n	8002f34 <chMtxUnlockAll+0x24>
    ctp->prio = ctp->realprio;
 8002f4a:	6be3      	ldr	r3, [r4, #60]	; 0x3c
 8002f4c:	60a3      	str	r3, [r4, #8]
    chSchRescheduleS();
 8002f4e:	f007 fa9f 	bl	800a490 <chSchRescheduleS>
 8002f52:	2300      	movs	r3, #0
 8002f54:	f383 8811 	msr	BASEPRI, r3
  }
  chSysUnlock();
}
 8002f58:	bd10      	pop	{r4, pc}
 8002f5a:	bf00      	nop
 8002f5c:	20001040 	.word	0x20001040

08002f60 <chMtxUnlockS>:
void chMtxUnlockS(mutex_t *mp) {
 8002f60:	b510      	push	{r4, lr}
 8002f62:	4601      	mov	r1, r0
  thread_t *ctp = currp;
 8002f64:	4b10      	ldr	r3, [pc, #64]	; (8002fa8 <chMtxUnlockS+0x48>)
 8002f66:	699c      	ldr	r4, [r3, #24]
    ctp->mtxlist = mp->next;
 8002f68:	68c3      	ldr	r3, [r0, #12]
 8002f6a:	63a3      	str	r3, [r4, #56]	; 0x38
 8002f6c:	6802      	ldr	r2, [r0, #0]
    if (chMtxQueueNotEmptyS(mp)) {
 8002f6e:	4282      	cmp	r2, r0
 8002f70:	d017      	beq.n	8002fa2 <chMtxUnlockS+0x42>
      tprio_t newprio = ctp->realprio;
 8002f72:	6be0      	ldr	r0, [r4, #60]	; 0x3c
      while (lmp != NULL) {
 8002f74:	e000      	b.n	8002f78 <chMtxUnlockS+0x18>
        lmp = lmp->next;
 8002f76:	68db      	ldr	r3, [r3, #12]
      while (lmp != NULL) {
 8002f78:	b13b      	cbz	r3, 8002f8a <chMtxUnlockS+0x2a>
 8002f7a:	681a      	ldr	r2, [r3, #0]
        if (chMtxQueueNotEmptyS(lmp) &&
 8002f7c:	4293      	cmp	r3, r2
 8002f7e:	d0fa      	beq.n	8002f76 <chMtxUnlockS+0x16>
            (lmp->queue.next->prio > newprio)) {
 8002f80:	6892      	ldr	r2, [r2, #8]
        if (chMtxQueueNotEmptyS(lmp) &&
 8002f82:	4290      	cmp	r0, r2
 8002f84:	d2f7      	bcs.n	8002f76 <chMtxUnlockS+0x16>
          newprio = lmp->queue.next->prio;
 8002f86:	4610      	mov	r0, r2
 8002f88:	e7f5      	b.n	8002f76 <chMtxUnlockS+0x16>
      ctp->prio = newprio;
 8002f8a:	60a0      	str	r0, [r4, #8]
  thread_t *tp = tqp->next;
 8002f8c:	6808      	ldr	r0, [r1, #0]
  tqp->next             = tp->queue.next;
 8002f8e:	6803      	ldr	r3, [r0, #0]
 8002f90:	600b      	str	r3, [r1, #0]
  tqp->next->queue.prev = (thread_t *)tqp;
 8002f92:	6059      	str	r1, [r3, #4]
      mp->owner = tp;
 8002f94:	6088      	str	r0, [r1, #8]
      mp->next = tp->mtxlist;
 8002f96:	6b83      	ldr	r3, [r0, #56]	; 0x38
 8002f98:	60cb      	str	r3, [r1, #12]
      tp->mtxlist = mp;
 8002f9a:	6381      	str	r1, [r0, #56]	; 0x38
      (void) chSchReadyI(tp);
 8002f9c:	f007 faa0 	bl	800a4e0 <chSchReadyI>
}
 8002fa0:	bd10      	pop	{r4, pc}
      mp->owner = NULL;
 8002fa2:	2300      	movs	r3, #0
 8002fa4:	6083      	str	r3, [r0, #8]
 8002fa6:	e7fb      	b.n	8002fa0 <chMtxUnlockS+0x40>
 8002fa8:	20001040 	.word	0x20001040
 8002fac:	00000000 	.word	0x00000000

08002fb0 <chMtxUnlock>:
void chMtxUnlock(mutex_t *mp) {
 8002fb0:	b510      	push	{r4, lr}
 8002fb2:	4601      	mov	r1, r0
  thread_t *ctp = currp;
 8002fb4:	4b14      	ldr	r3, [pc, #80]	; (8003008 <chMtxUnlock+0x58>)
 8002fb6:	699c      	ldr	r4, [r3, #24]
 8002fb8:	2320      	movs	r3, #32
 8002fba:	f383 8811 	msr	BASEPRI, r3
    ctp->mtxlist = mp->next;
 8002fbe:	68c3      	ldr	r3, [r0, #12]
 8002fc0:	63a3      	str	r3, [r4, #56]	; 0x38
  return (bool)(tqp->next != (const thread_t *)tqp);
 8002fc2:	6802      	ldr	r2, [r0, #0]
    if (chMtxQueueNotEmptyS(mp)) {
 8002fc4:	4282      	cmp	r2, r0
 8002fc6:	d01c      	beq.n	8003002 <chMtxUnlock+0x52>
      tprio_t newprio = ctp->realprio;
 8002fc8:	6be0      	ldr	r0, [r4, #60]	; 0x3c
      while (lmp != NULL) {
 8002fca:	e000      	b.n	8002fce <chMtxUnlock+0x1e>
        lmp = lmp->next;
 8002fcc:	68db      	ldr	r3, [r3, #12]
      while (lmp != NULL) {
 8002fce:	b13b      	cbz	r3, 8002fe0 <chMtxUnlock+0x30>
 8002fd0:	681a      	ldr	r2, [r3, #0]
        if (chMtxQueueNotEmptyS(lmp) &&
 8002fd2:	4293      	cmp	r3, r2
 8002fd4:	d0fa      	beq.n	8002fcc <chMtxUnlock+0x1c>
            (lmp->queue.next->prio > newprio)) {
 8002fd6:	6892      	ldr	r2, [r2, #8]
        if (chMtxQueueNotEmptyS(lmp) &&
 8002fd8:	4290      	cmp	r0, r2
 8002fda:	d2f7      	bcs.n	8002fcc <chMtxUnlock+0x1c>
          newprio = lmp->queue.next->prio;
 8002fdc:	4610      	mov	r0, r2
 8002fde:	e7f5      	b.n	8002fcc <chMtxUnlock+0x1c>
      ctp->prio = newprio;
 8002fe0:	60a0      	str	r0, [r4, #8]
  thread_t *tp = tqp->next;
 8002fe2:	6808      	ldr	r0, [r1, #0]
  tqp->next             = tp->queue.next;
 8002fe4:	6803      	ldr	r3, [r0, #0]
 8002fe6:	600b      	str	r3, [r1, #0]
  tqp->next->queue.prev = (thread_t *)tqp;
 8002fe8:	6059      	str	r1, [r3, #4]
      mp->owner = tp;
 8002fea:	6088      	str	r0, [r1, #8]
      mp->next = tp->mtxlist;
 8002fec:	6b83      	ldr	r3, [r0, #56]	; 0x38
 8002fee:	60cb      	str	r3, [r1, #12]
      tp->mtxlist = mp;
 8002ff0:	6381      	str	r1, [r0, #56]	; 0x38
      (void) chSchReadyI(tp);
 8002ff2:	f007 fa75 	bl	800a4e0 <chSchReadyI>
      chSchRescheduleS();
 8002ff6:	f007 fa4b 	bl	800a490 <chSchRescheduleS>
 8002ffa:	2300      	movs	r3, #0
 8002ffc:	f383 8811 	msr	BASEPRI, r3
}
 8003000:	bd10      	pop	{r4, pc}
      mp->owner = NULL;
 8003002:	2300      	movs	r3, #0
 8003004:	6083      	str	r3, [r0, #8]
 8003006:	e7f8      	b.n	8002ffa <chMtxUnlock+0x4a>
 8003008:	20001040 	.word	0x20001040
 800300c:	00000000 	.word	0x00000000

08003010 <rt_test_007_005_execute>:

static void rt_test_007_005_setup(void) {
  chMtxObjectInit(&m1);
}

static void rt_test_007_005_execute(void) {
 8003010:	b538      	push	{r3, r4, r5, lr}
  return ch.rlist.current;
 8003012:	4b3f      	ldr	r3, [pc, #252]	; (8003110 <rt_test_007_005_execute+0x100>)
 8003014:	699b      	ldr	r3, [r3, #24]
  return chThdGetSelfX()->prio;
 8003016:	689c      	ldr	r4, [r3, #8]
  }
  test_end_step(1);

  /* [7.5.2] Locking the mutex first time, it must be possible because
     it is not owned.*/
  test_set_step(2);
 8003018:	4b3e      	ldr	r3, [pc, #248]	; (8003114 <rt_test_007_005_execute+0x104>)
 800301a:	2202      	movs	r2, #2
 800301c:	601a      	str	r2, [r3, #0]
  {
    b = chMtxTryLock(&m1);
 800301e:	483e      	ldr	r0, [pc, #248]	; (8003118 <rt_test_007_005_execute+0x108>)
 8003020:	f7fe fe4e 	bl	8001cc0 <chMtxTryLock>
    test_assert(b, "already locked");
 8003024:	493d      	ldr	r1, [pc, #244]	; (800311c <rt_test_007_005_execute+0x10c>)
 8003026:	f7fe f8e3 	bl	80011f0 <_test_assert>
 800302a:	b100      	cbz	r0, 800302e <rt_test_007_005_execute+0x1e>
  test_set_step(7);
  {
    test_assert(chThdGetPriorityX() == prio, "wrong priority level");
  }
  test_end_step(7);
}
 800302c:	bd38      	pop	{r3, r4, r5, pc}
  test_set_step(3);
 800302e:	4b39      	ldr	r3, [pc, #228]	; (8003114 <rt_test_007_005_execute+0x104>)
 8003030:	2203      	movs	r2, #3
 8003032:	601a      	str	r2, [r3, #0]
    b = chMtxTryLock(&m1);
 8003034:	4838      	ldr	r0, [pc, #224]	; (8003118 <rt_test_007_005_execute+0x108>)
 8003036:	f7fe fe43 	bl	8001cc0 <chMtxTryLock>
    test_assert(!b, "not locked");
 800303a:	f080 0001 	eor.w	r0, r0, #1
 800303e:	4938      	ldr	r1, [pc, #224]	; (8003120 <rt_test_007_005_execute+0x110>)
 8003040:	b2c0      	uxtb	r0, r0
 8003042:	f7fe f8d5 	bl	80011f0 <_test_assert>
 8003046:	2800      	cmp	r0, #0
 8003048:	d1f0      	bne.n	800302c <rt_test_007_005_execute+0x1c>
  test_set_step(4);
 800304a:	4b32      	ldr	r3, [pc, #200]	; (8003114 <rt_test_007_005_execute+0x104>)
 800304c:	2204      	movs	r2, #4
 800304e:	601a      	str	r2, [r3, #0]
    chMtxUnlock(&m1);
 8003050:	4d31      	ldr	r5, [pc, #196]	; (8003118 <rt_test_007_005_execute+0x108>)
 8003052:	4628      	mov	r0, r5
 8003054:	f7ff ffac 	bl	8002fb0 <chMtxUnlock>
    test_assert(m1.owner == NULL, "still owned");
 8003058:	68a8      	ldr	r0, [r5, #8]
 800305a:	4932      	ldr	r1, [pc, #200]	; (8003124 <rt_test_007_005_execute+0x114>)
 800305c:	fab0 f080 	clz	r0, r0
 8003060:	0940      	lsrs	r0, r0, #5
 8003062:	f7fe f8c5 	bl	80011f0 <_test_assert>
 8003066:	2800      	cmp	r0, #0
 8003068:	d1e0      	bne.n	800302c <rt_test_007_005_execute+0x1c>
  return (bool)(tqp->next == (const thread_t *)tqp);
 800306a:	6828      	ldr	r0, [r5, #0]
    test_assert(queue_isempty(&m1.queue), "queue not empty");
 800306c:	492e      	ldr	r1, [pc, #184]	; (8003128 <rt_test_007_005_execute+0x118>)
 800306e:	42a8      	cmp	r0, r5
 8003070:	bf14      	ite	ne
 8003072:	2000      	movne	r0, #0
 8003074:	2001      	moveq	r0, #1
 8003076:	f7fe f8bb 	bl	80011f0 <_test_assert>
 800307a:	2800      	cmp	r0, #0
 800307c:	d1d6      	bne.n	800302c <rt_test_007_005_execute+0x1c>
  test_set_step(5);
 800307e:	4b25      	ldr	r3, [pc, #148]	; (8003114 <rt_test_007_005_execute+0x104>)
 8003080:	2205      	movs	r2, #5
 8003082:	601a      	str	r2, [r3, #0]
  return ch.rlist.current;
 8003084:	4b22      	ldr	r3, [pc, #136]	; (8003110 <rt_test_007_005_execute+0x100>)
 8003086:	699b      	ldr	r3, [r3, #24]
  return chThdGetSelfX()->prio;
 8003088:	6898      	ldr	r0, [r3, #8]
    test_assert(chThdGetPriorityX() == prio, "wrong priority level");
 800308a:	4928      	ldr	r1, [pc, #160]	; (800312c <rt_test_007_005_execute+0x11c>)
 800308c:	4284      	cmp	r4, r0
 800308e:	bf14      	ite	ne
 8003090:	2000      	movne	r0, #0
 8003092:	2001      	moveq	r0, #1
 8003094:	f7fe f8ac 	bl	80011f0 <_test_assert>
 8003098:	2800      	cmp	r0, #0
 800309a:	d1c7      	bne.n	800302c <rt_test_007_005_execute+0x1c>
  test_set_step(6);
 800309c:	4b1d      	ldr	r3, [pc, #116]	; (8003114 <rt_test_007_005_execute+0x104>)
 800309e:	2206      	movs	r2, #6
 80030a0:	601a      	str	r2, [r3, #0]
    b = chMtxTryLock(&m1);
 80030a2:	4628      	mov	r0, r5
 80030a4:	f7fe fe0c 	bl	8001cc0 <chMtxTryLock>
    test_assert(b, "already locked");
 80030a8:	491c      	ldr	r1, [pc, #112]	; (800311c <rt_test_007_005_execute+0x10c>)
 80030aa:	f7fe f8a1 	bl	80011f0 <_test_assert>
 80030ae:	2800      	cmp	r0, #0
 80030b0:	d1bc      	bne.n	800302c <rt_test_007_005_execute+0x1c>
    b = chMtxTryLock(&m1);
 80030b2:	4628      	mov	r0, r5
 80030b4:	f7fe fe04 	bl	8001cc0 <chMtxTryLock>
    test_assert(!b, "not locked");
 80030b8:	f080 0001 	eor.w	r0, r0, #1
 80030bc:	4918      	ldr	r1, [pc, #96]	; (8003120 <rt_test_007_005_execute+0x110>)
 80030be:	b2c0      	uxtb	r0, r0
 80030c0:	f7fe f896 	bl	80011f0 <_test_assert>
 80030c4:	2800      	cmp	r0, #0
 80030c6:	d1b1      	bne.n	800302c <rt_test_007_005_execute+0x1c>
    chMtxUnlockAll();
 80030c8:	f7ff ff22 	bl	8002f10 <chMtxUnlockAll>
    test_assert(m1.owner == NULL, "still owned");
 80030cc:	68a8      	ldr	r0, [r5, #8]
 80030ce:	4915      	ldr	r1, [pc, #84]	; (8003124 <rt_test_007_005_execute+0x114>)
 80030d0:	fab0 f080 	clz	r0, r0
 80030d4:	0940      	lsrs	r0, r0, #5
 80030d6:	f7fe f88b 	bl	80011f0 <_test_assert>
 80030da:	2800      	cmp	r0, #0
 80030dc:	d1a6      	bne.n	800302c <rt_test_007_005_execute+0x1c>
 80030de:	6828      	ldr	r0, [r5, #0]
    test_assert(queue_isempty(&m1.queue), "queue not empty");
 80030e0:	4911      	ldr	r1, [pc, #68]	; (8003128 <rt_test_007_005_execute+0x118>)
 80030e2:	42a8      	cmp	r0, r5
 80030e4:	bf14      	ite	ne
 80030e6:	2000      	movne	r0, #0
 80030e8:	2001      	moveq	r0, #1
 80030ea:	f7fe f881 	bl	80011f0 <_test_assert>
 80030ee:	2800      	cmp	r0, #0
 80030f0:	d19c      	bne.n	800302c <rt_test_007_005_execute+0x1c>
  test_set_step(7);
 80030f2:	4b08      	ldr	r3, [pc, #32]	; (8003114 <rt_test_007_005_execute+0x104>)
 80030f4:	2207      	movs	r2, #7
 80030f6:	601a      	str	r2, [r3, #0]
  return ch.rlist.current;
 80030f8:	4b05      	ldr	r3, [pc, #20]	; (8003110 <rt_test_007_005_execute+0x100>)
 80030fa:	699b      	ldr	r3, [r3, #24]
  return chThdGetSelfX()->prio;
 80030fc:	6898      	ldr	r0, [r3, #8]
    test_assert(chThdGetPriorityX() == prio, "wrong priority level");
 80030fe:	490b      	ldr	r1, [pc, #44]	; (800312c <rt_test_007_005_execute+0x11c>)
 8003100:	4284      	cmp	r4, r0
 8003102:	bf14      	ite	ne
 8003104:	2000      	movne	r0, #0
 8003106:	2001      	moveq	r0, #1
 8003108:	f7fe f872 	bl	80011f0 <_test_assert>
  test_end_step(7);
 800310c:	e78e      	b.n	800302c <rt_test_007_005_execute+0x1c>
 800310e:	bf00      	nop
 8003110:	20001040 	.word	0x20001040
 8003114:	20001a7c 	.word	0x20001a7c
 8003118:	2000082c 	.word	0x2000082c
 800311c:	0800c514 	.word	0x0800c514
 8003120:	0800c524 	.word	0x0800c524
 8003124:	0800c530 	.word	0x0800c530
 8003128:	0800c53c 	.word	0x0800c53c
 800312c:	0800c54c 	.word	0x0800c54c

08003130 <chMtxLockS>:
void chMtxLockS(mutex_t *mp) {
 8003130:	b570      	push	{r4, r5, r6, lr}
 8003132:	4605      	mov	r5, r0
  thread_t *ctp = currp;
 8003134:	4b2d      	ldr	r3, [pc, #180]	; (80031ec <chMtxLockS+0xbc>)
 8003136:	699c      	ldr	r4, [r3, #24]
  if (mp->owner != NULL) {
 8003138:	6880      	ldr	r0, [r0, #8]
 800313a:	2800      	cmp	r0, #0
 800313c:	d051      	beq.n	80031e2 <chMtxLockS+0xb2>
      while (tp->prio < ctp->prio) {
 800313e:	6882      	ldr	r2, [r0, #8]
 8003140:	68a3      	ldr	r3, [r4, #8]
 8003142:	429a      	cmp	r2, r3
 8003144:	d208      	bcs.n	8003158 <chMtxLockS+0x28>
        tp->prio = ctp->prio;
 8003146:	6083      	str	r3, [r0, #8]
        switch (tp->state) {
 8003148:	f890 3020 	ldrb.w	r3, [r0, #32]
 800314c:	2b06      	cmp	r3, #6
 800314e:	d016      	beq.n	800317e <chMtxLockS+0x4e>
 8003150:	2b07      	cmp	r3, #7
 8003152:	d02a      	beq.n	80031aa <chMtxLockS+0x7a>
 8003154:	2b00      	cmp	r3, #0
 8003156:	d03c      	beq.n	80031d2 <chMtxLockS+0xa2>
      queue_prio_insert(ctp, &mp->queue);
 8003158:	4628      	mov	r0, r5
  thread_t *cp = (thread_t *)tqp;
 800315a:	462b      	mov	r3, r5
    cp = cp->queue.next;
 800315c:	681b      	ldr	r3, [r3, #0]
  } while ((cp != (thread_t *)tqp) && (cp->prio >= tp->prio));
 800315e:	4298      	cmp	r0, r3
 8003160:	d003      	beq.n	800316a <chMtxLockS+0x3a>
 8003162:	6899      	ldr	r1, [r3, #8]
 8003164:	68a2      	ldr	r2, [r4, #8]
 8003166:	4291      	cmp	r1, r2
 8003168:	d2f8      	bcs.n	800315c <chMtxLockS+0x2c>
  tp->queue.next             = cp;
 800316a:	6023      	str	r3, [r4, #0]
  tp->queue.prev             = cp->queue.prev;
 800316c:	685a      	ldr	r2, [r3, #4]
 800316e:	6062      	str	r2, [r4, #4]
  tp->queue.prev->queue.next = tp;
 8003170:	6014      	str	r4, [r2, #0]
  cp->queue.prev             = tp;
 8003172:	605c      	str	r4, [r3, #4]
      ctp->u.wtmtxp = mp;
 8003174:	6265      	str	r5, [r4, #36]	; 0x24
      chSchGoSleepS(CH_STATE_WTMTX);
 8003176:	2006      	movs	r0, #6
 8003178:	f007 f99a 	bl	800a4b0 <chSchGoSleepS>
}
 800317c:	bd70      	pop	{r4, r5, r6, pc}
  return tp;
}

static inline thread_t *queue_dequeue(thread_t *tp) {

  tp->queue.prev->queue.next = tp->queue.next;
 800317e:	6842      	ldr	r2, [r0, #4]
 8003180:	6803      	ldr	r3, [r0, #0]
 8003182:	6013      	str	r3, [r2, #0]
  tp->queue.next->queue.prev = tp->queue.prev;
 8003184:	6842      	ldr	r2, [r0, #4]
 8003186:	605a      	str	r2, [r3, #4]
          queue_prio_insert(queue_dequeue(tp), &tp->u.wtmtxp->queue);
 8003188:	6a46      	ldr	r6, [r0, #36]	; 0x24
  thread_t *cp = (thread_t *)tqp;
 800318a:	4633      	mov	r3, r6
    cp = cp->queue.next;
 800318c:	681b      	ldr	r3, [r3, #0]
  } while ((cp != (thread_t *)tqp) && (cp->prio >= tp->prio));
 800318e:	429e      	cmp	r6, r3
 8003190:	d003      	beq.n	800319a <chMtxLockS+0x6a>
 8003192:	6899      	ldr	r1, [r3, #8]
 8003194:	6882      	ldr	r2, [r0, #8]
 8003196:	4291      	cmp	r1, r2
 8003198:	d2f8      	bcs.n	800318c <chMtxLockS+0x5c>
  tp->queue.next             = cp;
 800319a:	6003      	str	r3, [r0, #0]
  tp->queue.prev             = cp->queue.prev;
 800319c:	685a      	ldr	r2, [r3, #4]
 800319e:	6042      	str	r2, [r0, #4]
  tp->queue.prev->queue.next = tp;
 80031a0:	6010      	str	r0, [r2, #0]
  cp->queue.prev             = tp;
 80031a2:	6058      	str	r0, [r3, #4]
          tp = tp->u.wtmtxp->owner;
 80031a4:	6a43      	ldr	r3, [r0, #36]	; 0x24
 80031a6:	6898      	ldr	r0, [r3, #8]
          continue;
 80031a8:	e7c9      	b.n	800313e <chMtxLockS+0xe>
  tp->queue.prev->queue.next = tp->queue.next;
 80031aa:	6842      	ldr	r2, [r0, #4]
 80031ac:	6803      	ldr	r3, [r0, #0]
 80031ae:	6013      	str	r3, [r2, #0]
  tp->queue.next->queue.prev = tp->queue.prev;
 80031b0:	6842      	ldr	r2, [r0, #4]
 80031b2:	605a      	str	r2, [r3, #4]
          queue_prio_insert(queue_dequeue(tp), &tp->u.wtmtxp->queue);
 80031b4:	6a46      	ldr	r6, [r0, #36]	; 0x24
  thread_t *cp = (thread_t *)tqp;
 80031b6:	4633      	mov	r3, r6
    cp = cp->queue.next;
 80031b8:	681b      	ldr	r3, [r3, #0]
  } while ((cp != (thread_t *)tqp) && (cp->prio >= tp->prio));
 80031ba:	429e      	cmp	r6, r3
 80031bc:	d003      	beq.n	80031c6 <chMtxLockS+0x96>
 80031be:	6899      	ldr	r1, [r3, #8]
 80031c0:	6882      	ldr	r2, [r0, #8]
 80031c2:	4291      	cmp	r1, r2
 80031c4:	d2f8      	bcs.n	80031b8 <chMtxLockS+0x88>
  tp->queue.next             = cp;
 80031c6:	6003      	str	r3, [r0, #0]
  tp->queue.prev             = cp->queue.prev;
 80031c8:	685a      	ldr	r2, [r3, #4]
 80031ca:	6042      	str	r2, [r0, #4]
  tp->queue.prev->queue.next = tp;
 80031cc:	6010      	str	r0, [r2, #0]
  cp->queue.prev             = tp;
 80031ce:	6058      	str	r0, [r3, #4]
 80031d0:	e7c2      	b.n	8003158 <chMtxLockS+0x28>
  tp->queue.prev->queue.next = tp->queue.next;
 80031d2:	6842      	ldr	r2, [r0, #4]
 80031d4:	6803      	ldr	r3, [r0, #0]
 80031d6:	6013      	str	r3, [r2, #0]
  tp->queue.next->queue.prev = tp->queue.prev;
 80031d8:	6842      	ldr	r2, [r0, #4]
 80031da:	605a      	str	r2, [r3, #4]
          (void) chSchReadyI(queue_dequeue(tp));
 80031dc:	f007 f980 	bl	800a4e0 <chSchReadyI>
          break;
 80031e0:	e7ba      	b.n	8003158 <chMtxLockS+0x28>
    mp->owner = ctp;
 80031e2:	60ac      	str	r4, [r5, #8]
    mp->next = ctp->mtxlist;
 80031e4:	6ba3      	ldr	r3, [r4, #56]	; 0x38
 80031e6:	60eb      	str	r3, [r5, #12]
    ctp->mtxlist = mp;
 80031e8:	63a5      	str	r5, [r4, #56]	; 0x38
 80031ea:	e7c7      	b.n	800317c <chMtxLockS+0x4c>
 80031ec:	20001040 	.word	0x20001040

080031f0 <chCondWaitS>:
 * @retval MSG_RESET    if the condition variable has been signaled using
 *                      @p chCondBroadcast().
 *
 * @sclass
 */
msg_t chCondWaitS(condition_variable_t *cp) {
 80031f0:	b570      	push	{r4, r5, r6, lr}
 80031f2:	4604      	mov	r4, r0
  thread_t *ctp = currp;
 80031f4:	4b0e      	ldr	r3, [pc, #56]	; (8003230 <chCondWaitS+0x40>)
 80031f6:	699d      	ldr	r5, [r3, #24]
 *
 * @xclass
 */
static inline mutex_t *chMtxGetNextMutexX(void) {

  return chThdGetSelfX()->mtxlist;
 80031f8:	6bae      	ldr	r6, [r5, #56]	; 0x38
  chDbgCheckClassS();
  chDbgCheck(cp != NULL);
  chDbgAssert(mp != NULL, "not owning a mutex");

  /* Releasing "current" mutex.*/
  chMtxUnlockS(mp);
 80031fa:	4630      	mov	r0, r6
 80031fc:	f7ff feb0 	bl	8002f60 <chMtxUnlockS>

  /* Start waiting on the condition variable, on exit the mutex is taken
     again.*/
  ctp->u.wtobjp = cp;
 8003200:	626c      	str	r4, [r5, #36]	; 0x24
  queue_prio_insert(ctp, &cp->queue);
 8003202:	4621      	mov	r1, r4
    cp = cp->queue.next;
 8003204:	6824      	ldr	r4, [r4, #0]
  } while ((cp != (thread_t *)tqp) && (cp->prio >= tp->prio));
 8003206:	42a1      	cmp	r1, r4
 8003208:	d003      	beq.n	8003212 <chCondWaitS+0x22>
 800320a:	68a2      	ldr	r2, [r4, #8]
 800320c:	68ab      	ldr	r3, [r5, #8]
 800320e:	429a      	cmp	r2, r3
 8003210:	d2f8      	bcs.n	8003204 <chCondWaitS+0x14>
  tp->queue.next             = cp;
 8003212:	602c      	str	r4, [r5, #0]
  tp->queue.prev             = cp->queue.prev;
 8003214:	6863      	ldr	r3, [r4, #4]
 8003216:	606b      	str	r3, [r5, #4]
  tp->queue.prev->queue.next = tp;
 8003218:	601d      	str	r5, [r3, #0]
  cp->queue.prev             = tp;
 800321a:	6065      	str	r5, [r4, #4]
  chSchGoSleepS(CH_STATE_WTCOND);
 800321c:	2007      	movs	r0, #7
 800321e:	f007 f947 	bl	800a4b0 <chSchGoSleepS>
  msg = ctp->u.rdymsg;
 8003222:	6a6c      	ldr	r4, [r5, #36]	; 0x24
  chMtxLockS(mp);
 8003224:	4630      	mov	r0, r6
 8003226:	f7ff ff83 	bl	8003130 <chMtxLockS>

  return msg;
}
 800322a:	4620      	mov	r0, r4
 800322c:	bd70      	pop	{r4, r5, r6, pc}
 800322e:	bf00      	nop
 8003230:	20001040 	.word	0x20001040
	...

08003240 <chCondWait>:
msg_t chCondWait(condition_variable_t *cp) {
 8003240:	b508      	push	{r3, lr}
 8003242:	2320      	movs	r3, #32
 8003244:	f383 8811 	msr	BASEPRI, r3
  msg = chCondWaitS(cp);
 8003248:	f7ff ffd2 	bl	80031f0 <chCondWaitS>
 800324c:	2300      	movs	r3, #0
 800324e:	f383 8811 	msr	BASEPRI, r3
}
 8003252:	bd08      	pop	{r3, pc}
	...

08003260 <chMtxLock>:
void chMtxLock(mutex_t *mp) {
 8003260:	b508      	push	{r3, lr}
 8003262:	2320      	movs	r3, #32
 8003264:	f383 8811 	msr	BASEPRI, r3
  chMtxLockS(mp);
 8003268:	f7ff ff62 	bl	8003130 <chMtxLockS>
 800326c:	2300      	movs	r3, #0
 800326e:	f383 8811 	msr	BASEPRI, r3
}
 8003272:	bd08      	pop	{r3, pc}
	...

08003280 <thread6>:
static THD_FUNCTION(thread6, p) {
 8003280:	b538      	push	{r3, r4, r5, lr}
 8003282:	4604      	mov	r4, r0
  chMtxLock(&m1);
 8003284:	4d06      	ldr	r5, [pc, #24]	; (80032a0 <thread6+0x20>)
 8003286:	4628      	mov	r0, r5
 8003288:	f7ff ffea 	bl	8003260 <chMtxLock>
  chCondWait(&c1);
 800328c:	4805      	ldr	r0, [pc, #20]	; (80032a4 <thread6+0x24>)
 800328e:	f7ff ffd7 	bl	8003240 <chCondWait>
  test_emit_token(*(char *)p);
 8003292:	7820      	ldrb	r0, [r4, #0]
 8003294:	f7fd fabc 	bl	8000810 <test_emit_token>
  chMtxUnlock(&m1);
 8003298:	4628      	mov	r0, r5
 800329a:	f7ff fe89 	bl	8002fb0 <chMtxUnlock>
}
 800329e:	bd38      	pop	{r3, r4, r5, pc}
 80032a0:	2000082c 	.word	0x2000082c
 80032a4:	20000800 	.word	0x20000800
	...

080032b0 <thread9>:
static THD_FUNCTION(thread9, p) {
 80032b0:	b538      	push	{r3, r4, r5, lr}
 80032b2:	4604      	mov	r4, r0
  chMtxLock(&m2);
 80032b4:	4d05      	ldr	r5, [pc, #20]	; (80032cc <thread9+0x1c>)
 80032b6:	4628      	mov	r0, r5
 80032b8:	f7ff ffd2 	bl	8003260 <chMtxLock>
  test_emit_token(*(char *)p);
 80032bc:	7820      	ldrb	r0, [r4, #0]
 80032be:	f7fd faa7 	bl	8000810 <test_emit_token>
  chMtxUnlock(&m2);
 80032c2:	4628      	mov	r0, r5
 80032c4:	f7ff fe74 	bl	8002fb0 <chMtxUnlock>
}
 80032c8:	bd38      	pop	{r3, r4, r5, pc}
 80032ca:	bf00      	nop
 80032cc:	2000083c 	.word	0x2000083c

080032d0 <thread1.lto_priv.2>:
static THD_FUNCTION(thread1, p) {
 80032d0:	b538      	push	{r3, r4, r5, lr}
 80032d2:	4604      	mov	r4, r0
  chMtxLock(&m1);
 80032d4:	4d05      	ldr	r5, [pc, #20]	; (80032ec <thread1.lto_priv.2+0x1c>)
 80032d6:	4628      	mov	r0, r5
 80032d8:	f7ff ffc2 	bl	8003260 <chMtxLock>
  test_emit_token(*(char *)p);
 80032dc:	7820      	ldrb	r0, [r4, #0]
 80032de:	f7fd fa97 	bl	8000810 <test_emit_token>
  chMtxUnlock(&m1);
 80032e2:	4628      	mov	r0, r5
 80032e4:	f7ff fe64 	bl	8002fb0 <chMtxUnlock>
}
 80032e8:	bd38      	pop	{r3, r4, r5, pc}
 80032ea:	bf00      	nop
 80032ec:	2000082c 	.word	0x2000082c

080032f0 <chFactoryFindPipe>:
 * @retval NULL         if a dynamic pipe object with the specified
 *                      name does not exist.
 *
 * @api
 */
dyn_pipe_t *chFactoryFindPipe(const char *name) {
 80032f0:	b538      	push	{r3, r4, r5, lr}
 80032f2:	4604      	mov	r4, r0
  dyn_pipe_t *dpp;

  F_LOCK();
 80032f4:	4d07      	ldr	r5, [pc, #28]	; (8003314 <chFactoryFindPipe+0x24>)
 80032f6:	4628      	mov	r0, r5
 80032f8:	f7ff ffb2 	bl	8003260 <chMtxLock>

  dpp = (dyn_pipe_t *)dyn_find_object(name, &ch_factory.pipe_list);
 80032fc:	f105 0144 	add.w	r1, r5, #68	; 0x44
 8003300:	4620      	mov	r0, r4
 8003302:	f7ff fd2d 	bl	8002d60 <dyn_find_object>
 8003306:	4604      	mov	r4, r0

  F_UNLOCK();
 8003308:	4628      	mov	r0, r5
 800330a:	f7ff fe51 	bl	8002fb0 <chMtxUnlock>

  return dpp;
}
 800330e:	4620      	mov	r0, r4
 8003310:	bd38      	pop	{r3, r4, r5, pc}
 8003312:	bf00      	nop
 8003314:	200010b8 	.word	0x200010b8
	...

08003320 <chFactoryFindObjectsFIFO>:
dyn_objects_fifo_t *chFactoryFindObjectsFIFO(const char *name) {
 8003320:	b538      	push	{r3, r4, r5, lr}
 8003322:	4604      	mov	r4, r0
  F_LOCK();
 8003324:	4d07      	ldr	r5, [pc, #28]	; (8003344 <chFactoryFindObjectsFIFO+0x24>)
 8003326:	4628      	mov	r0, r5
 8003328:	f7ff ff9a 	bl	8003260 <chMtxLock>
  dofp = (dyn_objects_fifo_t *)dyn_find_object(name, &ch_factory.fifo_list);
 800332c:	f105 0140 	add.w	r1, r5, #64	; 0x40
 8003330:	4620      	mov	r0, r4
 8003332:	f7ff fd15 	bl	8002d60 <dyn_find_object>
 8003336:	4604      	mov	r4, r0
  F_UNLOCK();
 8003338:	4628      	mov	r0, r5
 800333a:	f7ff fe39 	bl	8002fb0 <chMtxUnlock>
}
 800333e:	4620      	mov	r0, r4
 8003340:	bd38      	pop	{r3, r4, r5, pc}
 8003342:	bf00      	nop
 8003344:	200010b8 	.word	0x200010b8
	...

08003350 <chFactoryFindMailbox>:
dyn_mailbox_t *chFactoryFindMailbox(const char *name) {
 8003350:	b538      	push	{r3, r4, r5, lr}
 8003352:	4604      	mov	r4, r0
  F_LOCK();
 8003354:	4d07      	ldr	r5, [pc, #28]	; (8003374 <chFactoryFindMailbox+0x24>)
 8003356:	4628      	mov	r0, r5
 8003358:	f7ff ff82 	bl	8003260 <chMtxLock>
  dmp = (dyn_mailbox_t *)dyn_find_object(name, &ch_factory.mbx_list);
 800335c:	f105 013c 	add.w	r1, r5, #60	; 0x3c
 8003360:	4620      	mov	r0, r4
 8003362:	f7ff fcfd 	bl	8002d60 <dyn_find_object>
 8003366:	4604      	mov	r4, r0
  F_UNLOCK();
 8003368:	4628      	mov	r0, r5
 800336a:	f7ff fe21 	bl	8002fb0 <chMtxUnlock>
}
 800336e:	4620      	mov	r0, r4
 8003370:	bd38      	pop	{r3, r4, r5, pc}
 8003372:	bf00      	nop
 8003374:	200010b8 	.word	0x200010b8
	...

08003380 <chFactoryReleaseSemaphore>:
void chFactoryReleaseSemaphore(dyn_semaphore_t *dsp) {
 8003380:	b538      	push	{r3, r4, r5, lr}
 8003382:	4605      	mov	r5, r0
  F_LOCK();
 8003384:	4c07      	ldr	r4, [pc, #28]	; (80033a4 <chFactoryReleaseSemaphore+0x24>)
 8003386:	4620      	mov	r0, r4
 8003388:	f7ff ff6a 	bl	8003260 <chMtxLock>
  dyn_release_object_pool(&dsp->element,
 800338c:	f104 022c 	add.w	r2, r4, #44	; 0x2c
 8003390:	f104 0128 	add.w	r1, r4, #40	; 0x28
 8003394:	4628      	mov	r0, r5
 8003396:	f7fe f9f3 	bl	8001780 <dyn_release_object_pool>
  F_UNLOCK();
 800339a:	4620      	mov	r0, r4
 800339c:	f7ff fe08 	bl	8002fb0 <chMtxUnlock>
}
 80033a0:	bd38      	pop	{r3, r4, r5, pc}
 80033a2:	bf00      	nop
 80033a4:	200010b8 	.word	0x200010b8
	...

080033b0 <chFactoryFindSemaphore>:
dyn_semaphore_t *chFactoryFindSemaphore(const char *name) {
 80033b0:	b538      	push	{r3, r4, r5, lr}
 80033b2:	4604      	mov	r4, r0
  F_LOCK();
 80033b4:	4d07      	ldr	r5, [pc, #28]	; (80033d4 <chFactoryFindSemaphore+0x24>)
 80033b6:	4628      	mov	r0, r5
 80033b8:	f7ff ff52 	bl	8003260 <chMtxLock>
  dsp = (dyn_semaphore_t *)dyn_find_object(name, &ch_factory.sem_list);
 80033bc:	f105 0128 	add.w	r1, r5, #40	; 0x28
 80033c0:	4620      	mov	r0, r4
 80033c2:	f7ff fccd 	bl	8002d60 <dyn_find_object>
 80033c6:	4604      	mov	r4, r0
  F_UNLOCK();
 80033c8:	4628      	mov	r0, r5
 80033ca:	f7ff fdf1 	bl	8002fb0 <chMtxUnlock>
}
 80033ce:	4620      	mov	r0, r4
 80033d0:	bd38      	pop	{r3, r4, r5, pc}
 80033d2:	bf00      	nop
 80033d4:	200010b8 	.word	0x200010b8
	...

080033e0 <oslib_test_009_003_teardown>:
 * - [9.3.6] Retrieving the dynamic semaphore by name again, must not
 *   exist.
 * .
 */

static void oslib_test_009_003_teardown(void) {
 80033e0:	b510      	push	{r4, lr}
  dyn_semaphore_t *dsp;

  dsp = chFactoryFindSemaphore("mysem");
 80033e2:	4806      	ldr	r0, [pc, #24]	; (80033fc <oslib_test_009_003_teardown+0x1c>)
 80033e4:	f7ff ffe4 	bl	80033b0 <chFactoryFindSemaphore>
  if (dsp != NULL) {
 80033e8:	4604      	mov	r4, r0
 80033ea:	b918      	cbnz	r0, 80033f4 <oslib_test_009_003_teardown+0x14>
 80033ec:	e005      	b.n	80033fa <oslib_test_009_003_teardown+0x1a>
    while (dsp->element.refs > 0U) {
      chFactoryReleaseSemaphore(dsp);
 80033ee:	4620      	mov	r0, r4
 80033f0:	f7ff ffc6 	bl	8003380 <chFactoryReleaseSemaphore>
    while (dsp->element.refs > 0U) {
 80033f4:	6863      	ldr	r3, [r4, #4]
 80033f6:	2b00      	cmp	r3, #0
 80033f8:	d1f9      	bne.n	80033ee <oslib_test_009_003_teardown+0xe>
    }
  }
}
 80033fa:	bd10      	pop	{r4, pc}
 80033fc:	0800c564 	.word	0x0800c564

08003400 <chFactoryCreateSemaphore>:
dyn_semaphore_t *chFactoryCreateSemaphore(const char *name, cnt_t n) {
 8003400:	b570      	push	{r4, r5, r6, lr}
 8003402:	4604      	mov	r4, r0
 8003404:	460e      	mov	r6, r1
  F_LOCK();
 8003406:	4d0b      	ldr	r5, [pc, #44]	; (8003434 <chFactoryCreateSemaphore+0x34>)
 8003408:	4628      	mov	r0, r5
 800340a:	f7ff ff29 	bl	8003260 <chMtxLock>
  dsp = (dyn_semaphore_t *)dyn_create_object_pool(name,
 800340e:	f105 022c 	add.w	r2, r5, #44	; 0x2c
 8003412:	f105 0128 	add.w	r1, r5, #40	; 0x28
 8003416:	4620      	mov	r0, r4
 8003418:	f7ff fcb2 	bl	8002d80 <dyn_create_object_pool>
  if (dsp != NULL) {
 800341c:	4604      	mov	r4, r0
 800341e:	b118      	cbz	r0, 8003428 <chFactoryCreateSemaphore+0x28>
    chSemObjectInit(&dsp->sem, n);
 8003420:	4631      	mov	r1, r6
 8003422:	3010      	adds	r0, #16
 8003424:	f7fe fc5c 	bl	8001ce0 <chSemObjectInit>
  F_UNLOCK();
 8003428:	4802      	ldr	r0, [pc, #8]	; (8003434 <chFactoryCreateSemaphore+0x34>)
 800342a:	f7ff fdc1 	bl	8002fb0 <chMtxUnlock>
}
 800342e:	4620      	mov	r0, r4
 8003430:	bd70      	pop	{r4, r5, r6, pc}
 8003432:	bf00      	nop
 8003434:	200010b8 	.word	0x200010b8
	...

08003440 <oslib_test_009_003_execute>:

static void oslib_test_009_003_execute(void) {
 8003440:	b538      	push	{r3, r4, r5, lr}
  dyn_semaphore_t *dsp;

  /* [9.3.1] Retrieving a dynamic semaphore by name, must not exist.*/
  test_set_step(1);
 8003442:	4b47      	ldr	r3, [pc, #284]	; (8003560 <oslib_test_009_003_execute+0x120>)
 8003444:	2201      	movs	r2, #1
 8003446:	601a      	str	r2, [r3, #0]
  {
    dsp = chFactoryFindSemaphore("mysem");
 8003448:	4846      	ldr	r0, [pc, #280]	; (8003564 <oslib_test_009_003_execute+0x124>)
 800344a:	f7ff ffb1 	bl	80033b0 <chFactoryFindSemaphore>
    test_assert(dsp == NULL, "found");
 800344e:	4946      	ldr	r1, [pc, #280]	; (8003568 <oslib_test_009_003_execute+0x128>)
 8003450:	fab0 f080 	clz	r0, r0
 8003454:	0940      	lsrs	r0, r0, #5
 8003456:	f7fd fecb 	bl	80011f0 <_test_assert>
 800345a:	b100      	cbz	r0, 800345e <oslib_test_009_003_execute+0x1e>
  {
    dsp = chFactoryFindSemaphore("mysem");
    test_assert(dsp == NULL, "found");
  }
  test_end_step(6);
}
 800345c:	bd38      	pop	{r3, r4, r5, pc}
  test_set_step(2);
 800345e:	4b40      	ldr	r3, [pc, #256]	; (8003560 <oslib_test_009_003_execute+0x120>)
 8003460:	2202      	movs	r2, #2
 8003462:	601a      	str	r2, [r3, #0]
    dsp = chFactoryCreateSemaphore("mysem", 0);
 8003464:	2100      	movs	r1, #0
 8003466:	483f      	ldr	r0, [pc, #252]	; (8003564 <oslib_test_009_003_execute+0x124>)
 8003468:	f7ff ffca 	bl	8003400 <chFactoryCreateSemaphore>
    test_assert(dsp != NULL, "cannot create");
 800346c:	4604      	mov	r4, r0
 800346e:	493f      	ldr	r1, [pc, #252]	; (800356c <oslib_test_009_003_execute+0x12c>)
 8003470:	3800      	subs	r0, #0
 8003472:	bf18      	it	ne
 8003474:	2001      	movne	r0, #1
 8003476:	f7fd febb 	bl	80011f0 <_test_assert>
 800347a:	2800      	cmp	r0, #0
 800347c:	d1ee      	bne.n	800345c <oslib_test_009_003_execute+0x1c>
  test_set_step(3);
 800347e:	4b38      	ldr	r3, [pc, #224]	; (8003560 <oslib_test_009_003_execute+0x120>)
 8003480:	2203      	movs	r2, #3
 8003482:	601a      	str	r2, [r3, #0]
    dsp1 = chFactoryCreateSemaphore("mysem", 0);
 8003484:	2100      	movs	r1, #0
 8003486:	4837      	ldr	r0, [pc, #220]	; (8003564 <oslib_test_009_003_execute+0x124>)
 8003488:	f7ff ffba 	bl	8003400 <chFactoryCreateSemaphore>
    test_assert(dsp1 == NULL, "can create");
 800348c:	4938      	ldr	r1, [pc, #224]	; (8003570 <oslib_test_009_003_execute+0x130>)
 800348e:	fab0 f080 	clz	r0, r0
 8003492:	0940      	lsrs	r0, r0, #5
 8003494:	f7fd feac 	bl	80011f0 <_test_assert>
 8003498:	2800      	cmp	r0, #0
 800349a:	d1df      	bne.n	800345c <oslib_test_009_003_execute+0x1c>
  test_set_step(4);
 800349c:	4b30      	ldr	r3, [pc, #192]	; (8003560 <oslib_test_009_003_execute+0x120>)
 800349e:	2204      	movs	r2, #4
 80034a0:	601a      	str	r2, [r3, #0]
    dsp1 = chFactoryFindSemaphore("mysem");
 80034a2:	4830      	ldr	r0, [pc, #192]	; (8003564 <oslib_test_009_003_execute+0x124>)
 80034a4:	f7ff ff84 	bl	80033b0 <chFactoryFindSemaphore>
    test_assert(dsp1 != NULL, "not found");
 80034a8:	4605      	mov	r5, r0
 80034aa:	4932      	ldr	r1, [pc, #200]	; (8003574 <oslib_test_009_003_execute+0x134>)
 80034ac:	3800      	subs	r0, #0
 80034ae:	bf18      	it	ne
 80034b0:	2001      	movne	r0, #1
 80034b2:	f7fd fe9d 	bl	80011f0 <_test_assert>
 80034b6:	2800      	cmp	r0, #0
 80034b8:	d1d0      	bne.n	800345c <oslib_test_009_003_execute+0x1c>
    test_assert(dsp == dsp1, "object reference mismatch");
 80034ba:	492f      	ldr	r1, [pc, #188]	; (8003578 <oslib_test_009_003_execute+0x138>)
 80034bc:	42ac      	cmp	r4, r5
 80034be:	bf14      	ite	ne
 80034c0:	2000      	movne	r0, #0
 80034c2:	2001      	moveq	r0, #1
 80034c4:	f7fd fe94 	bl	80011f0 <_test_assert>
 80034c8:	2800      	cmp	r0, #0
 80034ca:	d1c7      	bne.n	800345c <oslib_test_009_003_execute+0x1c>
    test_assert(dsp1->element.refs == 2, "object reference mismatch");
 80034cc:	6868      	ldr	r0, [r5, #4]
 80034ce:	492a      	ldr	r1, [pc, #168]	; (8003578 <oslib_test_009_003_execute+0x138>)
 80034d0:	2802      	cmp	r0, #2
 80034d2:	bf14      	ite	ne
 80034d4:	2000      	movne	r0, #0
 80034d6:	2001      	moveq	r0, #1
 80034d8:	f7fd fe8a 	bl	80011f0 <_test_assert>
 80034dc:	2800      	cmp	r0, #0
 80034de:	d1bd      	bne.n	800345c <oslib_test_009_003_execute+0x1c>
 *
 * @api
 */
static inline dyn_element_t *chFactoryDuplicateReference(dyn_element_t *dep) {

  dep->refs++;
 80034e0:	686b      	ldr	r3, [r5, #4]
 80034e2:	3301      	adds	r3, #1
 80034e4:	606b      	str	r3, [r5, #4]
    test_assert(dsp1 == dsp2, "object reference mismatch");
 80034e6:	4924      	ldr	r1, [pc, #144]	; (8003578 <oslib_test_009_003_execute+0x138>)
 80034e8:	2001      	movs	r0, #1
 80034ea:	f7fd fe81 	bl	80011f0 <_test_assert>
 80034ee:	2800      	cmp	r0, #0
 80034f0:	d1b4      	bne.n	800345c <oslib_test_009_003_execute+0x1c>
    test_assert(dsp2->element.refs == 3, "object reference mismatch");
 80034f2:	6868      	ldr	r0, [r5, #4]
 80034f4:	4920      	ldr	r1, [pc, #128]	; (8003578 <oslib_test_009_003_execute+0x138>)
 80034f6:	2803      	cmp	r0, #3
 80034f8:	bf14      	ite	ne
 80034fa:	2000      	movne	r0, #0
 80034fc:	2001      	moveq	r0, #1
 80034fe:	f7fd fe77 	bl	80011f0 <_test_assert>
 8003502:	2800      	cmp	r0, #0
 8003504:	d1aa      	bne.n	800345c <oslib_test_009_003_execute+0x1c>
    chFactoryReleaseSemaphore(dsp2);
 8003506:	4628      	mov	r0, r5
 8003508:	f7ff ff3a 	bl	8003380 <chFactoryReleaseSemaphore>
    test_assert(dsp1->element.refs == 2, "references mismatch");
 800350c:	6868      	ldr	r0, [r5, #4]
 800350e:	491b      	ldr	r1, [pc, #108]	; (800357c <oslib_test_009_003_execute+0x13c>)
 8003510:	2802      	cmp	r0, #2
 8003512:	bf14      	ite	ne
 8003514:	2000      	movne	r0, #0
 8003516:	2001      	moveq	r0, #1
 8003518:	f7fd fe6a 	bl	80011f0 <_test_assert>
 800351c:	2800      	cmp	r0, #0
 800351e:	d19d      	bne.n	800345c <oslib_test_009_003_execute+0x1c>
    chFactoryReleaseSemaphore(dsp1);
 8003520:	4628      	mov	r0, r5
 8003522:	f7ff ff2d 	bl	8003380 <chFactoryReleaseSemaphore>
    test_assert(dsp->element.refs == 1, "references mismatch");
 8003526:	6860      	ldr	r0, [r4, #4]
 8003528:	4914      	ldr	r1, [pc, #80]	; (800357c <oslib_test_009_003_execute+0x13c>)
 800352a:	2801      	cmp	r0, #1
 800352c:	bf14      	ite	ne
 800352e:	2000      	movne	r0, #0
 8003530:	2001      	moveq	r0, #1
 8003532:	f7fd fe5d 	bl	80011f0 <_test_assert>
 8003536:	2800      	cmp	r0, #0
 8003538:	d190      	bne.n	800345c <oslib_test_009_003_execute+0x1c>
  test_set_step(5);
 800353a:	4d09      	ldr	r5, [pc, #36]	; (8003560 <oslib_test_009_003_execute+0x120>)
 800353c:	2305      	movs	r3, #5
 800353e:	602b      	str	r3, [r5, #0]
    chFactoryReleaseSemaphore(dsp);
 8003540:	4620      	mov	r0, r4
 8003542:	f7ff ff1d 	bl	8003380 <chFactoryReleaseSemaphore>
  test_set_step(6);
 8003546:	2306      	movs	r3, #6
 8003548:	602b      	str	r3, [r5, #0]
    dsp = chFactoryFindSemaphore("mysem");
 800354a:	4806      	ldr	r0, [pc, #24]	; (8003564 <oslib_test_009_003_execute+0x124>)
 800354c:	f7ff ff30 	bl	80033b0 <chFactoryFindSemaphore>
    test_assert(dsp == NULL, "found");
 8003550:	4905      	ldr	r1, [pc, #20]	; (8003568 <oslib_test_009_003_execute+0x128>)
 8003552:	fab0 f080 	clz	r0, r0
 8003556:	0940      	lsrs	r0, r0, #5
 8003558:	f7fd fe4a 	bl	80011f0 <_test_assert>
  test_end_step(6);
 800355c:	e77e      	b.n	800345c <oslib_test_009_003_execute+0x1c>
 800355e:	bf00      	nop
 8003560:	20001a7c 	.word	0x20001a7c
 8003564:	0800c564 	.word	0x0800c564
 8003568:	0800c58c 	.word	0x0800c58c
 800356c:	0800c56c 	.word	0x0800c56c
 8003570:	0800c57c 	.word	0x0800c57c
 8003574:	0800c588 	.word	0x0800c588
 8003578:	0800c594 	.word	0x0800c594
 800357c:	0800c5b0 	.word	0x0800c5b0

08003580 <chFactoryFindBuffer>:
dyn_buffer_t *chFactoryFindBuffer(const char *name) {
 8003580:	b538      	push	{r3, r4, r5, lr}
 8003582:	4604      	mov	r4, r0
  F_LOCK();
 8003584:	4d07      	ldr	r5, [pc, #28]	; (80035a4 <chFactoryFindBuffer+0x24>)
 8003586:	4628      	mov	r0, r5
 8003588:	f7ff fe6a 	bl	8003260 <chMtxLock>
  dbp = (dyn_buffer_t *)dyn_find_object(name, &ch_factory.buf_list);
 800358c:	f105 0124 	add.w	r1, r5, #36	; 0x24
 8003590:	4620      	mov	r0, r4
 8003592:	f7ff fbe5 	bl	8002d60 <dyn_find_object>
 8003596:	4604      	mov	r4, r0
  F_UNLOCK();
 8003598:	4628      	mov	r0, r5
 800359a:	f7ff fd09 	bl	8002fb0 <chMtxUnlock>
}
 800359e:	4620      	mov	r0, r4
 80035a0:	bd38      	pop	{r3, r4, r5, pc}
 80035a2:	bf00      	nop
 80035a4:	200010b8 	.word	0x200010b8
	...

080035b0 <chFactoryReleaseObject>:
void chFactoryReleaseObject(registered_object_t *rop) {
 80035b0:	b538      	push	{r3, r4, r5, lr}
 80035b2:	4605      	mov	r5, r0
  F_LOCK();
 80035b4:	4c07      	ldr	r4, [pc, #28]	; (80035d4 <chFactoryReleaseObject+0x24>)
 80035b6:	4620      	mov	r0, r4
 80035b8:	f7ff fe52 	bl	8003260 <chMtxLock>
  dyn_release_object_pool(&rop->element,
 80035bc:	f104 0214 	add.w	r2, r4, #20
 80035c0:	f104 0110 	add.w	r1, r4, #16
 80035c4:	4628      	mov	r0, r5
 80035c6:	f7fe f8db 	bl	8001780 <dyn_release_object_pool>
  F_UNLOCK();
 80035ca:	4620      	mov	r0, r4
 80035cc:	f7ff fcf0 	bl	8002fb0 <chMtxUnlock>
}
 80035d0:	bd38      	pop	{r3, r4, r5, pc}
 80035d2:	bf00      	nop
 80035d4:	200010b8 	.word	0x200010b8
	...

080035e0 <chFactoryFindObject>:
registered_object_t *chFactoryFindObject(const char *name) {
 80035e0:	b538      	push	{r3, r4, r5, lr}
 80035e2:	4604      	mov	r4, r0
  F_LOCK();
 80035e4:	4d07      	ldr	r5, [pc, #28]	; (8003604 <chFactoryFindObject+0x24>)
 80035e6:	4628      	mov	r0, r5
 80035e8:	f7ff fe3a 	bl	8003260 <chMtxLock>
  rop = (registered_object_t *)dyn_find_object(name, &ch_factory.obj_list);
 80035ec:	f105 0110 	add.w	r1, r5, #16
 80035f0:	4620      	mov	r0, r4
 80035f2:	f7ff fbb5 	bl	8002d60 <dyn_find_object>
 80035f6:	4604      	mov	r4, r0
  F_UNLOCK();
 80035f8:	4628      	mov	r0, r5
 80035fa:	f7ff fcd9 	bl	8002fb0 <chMtxUnlock>
}
 80035fe:	4620      	mov	r0, r4
 8003600:	bd38      	pop	{r3, r4, r5, pc}
 8003602:	bf00      	nop
 8003604:	200010b8 	.word	0x200010b8
	...

08003610 <oslib_test_009_001_teardown>:
static void oslib_test_009_001_teardown(void) {
 8003610:	b510      	push	{r4, lr}
  rop = chFactoryFindObject("myobj");
 8003612:	4806      	ldr	r0, [pc, #24]	; (800362c <oslib_test_009_001_teardown+0x1c>)
 8003614:	f7ff ffe4 	bl	80035e0 <chFactoryFindObject>
  if (rop != NULL) {
 8003618:	4604      	mov	r4, r0
 800361a:	b918      	cbnz	r0, 8003624 <oslib_test_009_001_teardown+0x14>
 800361c:	e005      	b.n	800362a <oslib_test_009_001_teardown+0x1a>
      chFactoryReleaseObject(rop);
 800361e:	4620      	mov	r0, r4
 8003620:	f7ff ffc6 	bl	80035b0 <chFactoryReleaseObject>
    while (rop->element.refs > 0U) {
 8003624:	6863      	ldr	r3, [r4, #4]
 8003626:	2b00      	cmp	r3, #0
 8003628:	d1f9      	bne.n	800361e <oslib_test_009_001_teardown+0xe>
}
 800362a:	bd10      	pop	{r4, pc}
 800362c:	0800c5c4 	.word	0x0800c5c4

08003630 <chFactoryRegisterObject>:
                                             void *objp) {
 8003630:	b570      	push	{r4, r5, r6, lr}
 8003632:	4604      	mov	r4, r0
 8003634:	460e      	mov	r6, r1
  F_LOCK();
 8003636:	4d09      	ldr	r5, [pc, #36]	; (800365c <chFactoryRegisterObject+0x2c>)
 8003638:	4628      	mov	r0, r5
 800363a:	f7ff fe11 	bl	8003260 <chMtxLock>
  rop = (registered_object_t *)dyn_create_object_pool(name,
 800363e:	f105 0214 	add.w	r2, r5, #20
 8003642:	f105 0110 	add.w	r1, r5, #16
 8003646:	4620      	mov	r0, r4
 8003648:	f7ff fb9a 	bl	8002d80 <dyn_create_object_pool>
  if (rop != NULL) {
 800364c:	4604      	mov	r4, r0
 800364e:	b100      	cbz	r0, 8003652 <chFactoryRegisterObject+0x22>
    rop->objp = objp;
 8003650:	6106      	str	r6, [r0, #16]
  F_UNLOCK();
 8003652:	4802      	ldr	r0, [pc, #8]	; (800365c <chFactoryRegisterObject+0x2c>)
 8003654:	f7ff fcac 	bl	8002fb0 <chMtxUnlock>
}
 8003658:	4620      	mov	r0, r4
 800365a:	bd70      	pop	{r4, r5, r6, pc}
 800365c:	200010b8 	.word	0x200010b8

08003660 <oslib_test_009_001_execute>:
static void oslib_test_009_001_execute(void) {
 8003660:	b538      	push	{r3, r4, r5, lr}
  test_set_step(1);
 8003662:	4b54      	ldr	r3, [pc, #336]	; (80037b4 <oslib_test_009_001_execute+0x154>)
 8003664:	2201      	movs	r2, #1
 8003666:	601a      	str	r2, [r3, #0]
    rop = chFactoryFindObject("myobj");
 8003668:	4853      	ldr	r0, [pc, #332]	; (80037b8 <oslib_test_009_001_execute+0x158>)
 800366a:	f7ff ffb9 	bl	80035e0 <chFactoryFindObject>
    test_assert(rop == NULL, "found");
 800366e:	4953      	ldr	r1, [pc, #332]	; (80037bc <oslib_test_009_001_execute+0x15c>)
 8003670:	fab0 f080 	clz	r0, r0
 8003674:	0940      	lsrs	r0, r0, #5
 8003676:	f7fd fdbb 	bl	80011f0 <_test_assert>
 800367a:	b100      	cbz	r0, 800367e <oslib_test_009_001_execute+0x1e>
}
 800367c:	bd38      	pop	{r3, r4, r5, pc}
  test_set_step(2);
 800367e:	4b4d      	ldr	r3, [pc, #308]	; (80037b4 <oslib_test_009_001_execute+0x154>)
 8003680:	2202      	movs	r2, #2
 8003682:	601a      	str	r2, [r3, #0]
    rop = chFactoryRegisterObject("myobj", (void *)&myobj);
 8003684:	494e      	ldr	r1, [pc, #312]	; (80037c0 <oslib_test_009_001_execute+0x160>)
 8003686:	484c      	ldr	r0, [pc, #304]	; (80037b8 <oslib_test_009_001_execute+0x158>)
 8003688:	f7ff ffd2 	bl	8003630 <chFactoryRegisterObject>
    test_assert(rop != NULL, "cannot register");
 800368c:	4604      	mov	r4, r0
 800368e:	494d      	ldr	r1, [pc, #308]	; (80037c4 <oslib_test_009_001_execute+0x164>)
 8003690:	3800      	subs	r0, #0
 8003692:	bf18      	it	ne
 8003694:	2001      	movne	r0, #1
 8003696:	f7fd fdab 	bl	80011f0 <_test_assert>
 800369a:	2800      	cmp	r0, #0
 800369c:	d1ee      	bne.n	800367c <oslib_test_009_001_execute+0x1c>
  test_set_step(3);
 800369e:	4b45      	ldr	r3, [pc, #276]	; (80037b4 <oslib_test_009_001_execute+0x154>)
 80036a0:	2203      	movs	r2, #3
 80036a2:	601a      	str	r2, [r3, #0]
    rop1 = chFactoryRegisterObject("myobj", (void *)&myobj);
 80036a4:	4948      	ldr	r1, [pc, #288]	; (80037c8 <oslib_test_009_001_execute+0x168>)
 80036a6:	4844      	ldr	r0, [pc, #272]	; (80037b8 <oslib_test_009_001_execute+0x158>)
 80036a8:	f7ff ffc2 	bl	8003630 <chFactoryRegisterObject>
    test_assert(rop1 == NULL, "can register");
 80036ac:	4947      	ldr	r1, [pc, #284]	; (80037cc <oslib_test_009_001_execute+0x16c>)
 80036ae:	fab0 f080 	clz	r0, r0
 80036b2:	0940      	lsrs	r0, r0, #5
 80036b4:	f7fd fd9c 	bl	80011f0 <_test_assert>
 80036b8:	2800      	cmp	r0, #0
 80036ba:	d1df      	bne.n	800367c <oslib_test_009_001_execute+0x1c>
  test_set_step(4);
 80036bc:	4b3d      	ldr	r3, [pc, #244]	; (80037b4 <oslib_test_009_001_execute+0x154>)
 80036be:	2204      	movs	r2, #4
 80036c0:	601a      	str	r2, [r3, #0]
    rop1 = chFactoryFindObject("myobj");
 80036c2:	483d      	ldr	r0, [pc, #244]	; (80037b8 <oslib_test_009_001_execute+0x158>)
 80036c4:	f7ff ff8c 	bl	80035e0 <chFactoryFindObject>
    test_assert(rop1 != NULL, "not found");
 80036c8:	4605      	mov	r5, r0
 80036ca:	4941      	ldr	r1, [pc, #260]	; (80037d0 <oslib_test_009_001_execute+0x170>)
 80036cc:	3800      	subs	r0, #0
 80036ce:	bf18      	it	ne
 80036d0:	2001      	movne	r0, #1
 80036d2:	f7fd fd8d 	bl	80011f0 <_test_assert>
 80036d6:	2800      	cmp	r0, #0
 80036d8:	d1d0      	bne.n	800367c <oslib_test_009_001_execute+0x1c>
    test_assert(*(uint32_t *)(rop1->objp) == 0x55aa, "object mismatch");
 80036da:	692b      	ldr	r3, [r5, #16]
 80036dc:	6818      	ldr	r0, [r3, #0]
 80036de:	493d      	ldr	r1, [pc, #244]	; (80037d4 <oslib_test_009_001_execute+0x174>)
 80036e0:	f245 53aa 	movw	r3, #21930	; 0x55aa
 80036e4:	4298      	cmp	r0, r3
 80036e6:	bf14      	ite	ne
 80036e8:	2000      	movne	r0, #0
 80036ea:	2001      	moveq	r0, #1
 80036ec:	f7fd fd80 	bl	80011f0 <_test_assert>
 80036f0:	2800      	cmp	r0, #0
 80036f2:	d1c3      	bne.n	800367c <oslib_test_009_001_execute+0x1c>
    test_assert(rop == rop1, "object reference mismatch");
 80036f4:	4938      	ldr	r1, [pc, #224]	; (80037d8 <oslib_test_009_001_execute+0x178>)
 80036f6:	42ac      	cmp	r4, r5
 80036f8:	bf14      	ite	ne
 80036fa:	2000      	movne	r0, #0
 80036fc:	2001      	moveq	r0, #1
 80036fe:	f7fd fd77 	bl	80011f0 <_test_assert>
 8003702:	2800      	cmp	r0, #0
 8003704:	d1ba      	bne.n	800367c <oslib_test_009_001_execute+0x1c>
    test_assert(rop1->element.refs == 2, "object reference mismatch");
 8003706:	6868      	ldr	r0, [r5, #4]
 8003708:	4933      	ldr	r1, [pc, #204]	; (80037d8 <oslib_test_009_001_execute+0x178>)
 800370a:	2802      	cmp	r0, #2
 800370c:	bf14      	ite	ne
 800370e:	2000      	movne	r0, #0
 8003710:	2001      	moveq	r0, #1
 8003712:	f7fd fd6d 	bl	80011f0 <_test_assert>
 8003716:	2800      	cmp	r0, #0
 8003718:	d1b0      	bne.n	800367c <oslib_test_009_001_execute+0x1c>
 800371a:	686b      	ldr	r3, [r5, #4]
 800371c:	3301      	adds	r3, #1
 800371e:	606b      	str	r3, [r5, #4]
    test_assert(rop1 == rop2, "object reference mismatch");
 8003720:	492d      	ldr	r1, [pc, #180]	; (80037d8 <oslib_test_009_001_execute+0x178>)
 8003722:	2001      	movs	r0, #1
 8003724:	f7fd fd64 	bl	80011f0 <_test_assert>
 8003728:	2800      	cmp	r0, #0
 800372a:	d1a7      	bne.n	800367c <oslib_test_009_001_execute+0x1c>
    test_assert(*(uint32_t *)(rop2->objp) == 0x55aa, "object mismatch");
 800372c:	692b      	ldr	r3, [r5, #16]
 800372e:	6818      	ldr	r0, [r3, #0]
 8003730:	4928      	ldr	r1, [pc, #160]	; (80037d4 <oslib_test_009_001_execute+0x174>)
 8003732:	f245 53aa 	movw	r3, #21930	; 0x55aa
 8003736:	4298      	cmp	r0, r3
 8003738:	bf14      	ite	ne
 800373a:	2000      	movne	r0, #0
 800373c:	2001      	moveq	r0, #1
 800373e:	f7fd fd57 	bl	80011f0 <_test_assert>
 8003742:	2800      	cmp	r0, #0
 8003744:	d19a      	bne.n	800367c <oslib_test_009_001_execute+0x1c>
    test_assert(rop2->element.refs == 3, "object reference mismatch");
 8003746:	6868      	ldr	r0, [r5, #4]
 8003748:	4923      	ldr	r1, [pc, #140]	; (80037d8 <oslib_test_009_001_execute+0x178>)
 800374a:	2803      	cmp	r0, #3
 800374c:	bf14      	ite	ne
 800374e:	2000      	movne	r0, #0
 8003750:	2001      	moveq	r0, #1
 8003752:	f7fd fd4d 	bl	80011f0 <_test_assert>
 8003756:	2800      	cmp	r0, #0
 8003758:	d190      	bne.n	800367c <oslib_test_009_001_execute+0x1c>
    chFactoryReleaseObject(rop2);
 800375a:	4628      	mov	r0, r5
 800375c:	f7ff ff28 	bl	80035b0 <chFactoryReleaseObject>
    test_assert(rop1->element.refs == 2, "references mismatch");
 8003760:	6868      	ldr	r0, [r5, #4]
 8003762:	491e      	ldr	r1, [pc, #120]	; (80037dc <oslib_test_009_001_execute+0x17c>)
 8003764:	2802      	cmp	r0, #2
 8003766:	bf14      	ite	ne
 8003768:	2000      	movne	r0, #0
 800376a:	2001      	moveq	r0, #1
 800376c:	f7fd fd40 	bl	80011f0 <_test_assert>
 8003770:	2800      	cmp	r0, #0
 8003772:	d183      	bne.n	800367c <oslib_test_009_001_execute+0x1c>
    chFactoryReleaseObject(rop1);
 8003774:	4628      	mov	r0, r5
 8003776:	f7ff ff1b 	bl	80035b0 <chFactoryReleaseObject>
    test_assert(rop->element.refs == 1, "references mismatch");
 800377a:	6860      	ldr	r0, [r4, #4]
 800377c:	4917      	ldr	r1, [pc, #92]	; (80037dc <oslib_test_009_001_execute+0x17c>)
 800377e:	2801      	cmp	r0, #1
 8003780:	bf14      	ite	ne
 8003782:	2000      	movne	r0, #0
 8003784:	2001      	moveq	r0, #1
 8003786:	f7fd fd33 	bl	80011f0 <_test_assert>
 800378a:	2800      	cmp	r0, #0
 800378c:	f47f af76 	bne.w	800367c <oslib_test_009_001_execute+0x1c>
  test_set_step(5);
 8003790:	4d08      	ldr	r5, [pc, #32]	; (80037b4 <oslib_test_009_001_execute+0x154>)
 8003792:	2305      	movs	r3, #5
 8003794:	602b      	str	r3, [r5, #0]
    chFactoryReleaseObject(rop);
 8003796:	4620      	mov	r0, r4
 8003798:	f7ff ff0a 	bl	80035b0 <chFactoryReleaseObject>
  test_set_step(6);
 800379c:	2306      	movs	r3, #6
 800379e:	602b      	str	r3, [r5, #0]
    rop = chFactoryFindObject("myobj");
 80037a0:	4805      	ldr	r0, [pc, #20]	; (80037b8 <oslib_test_009_001_execute+0x158>)
 80037a2:	f7ff ff1d 	bl	80035e0 <chFactoryFindObject>
    test_assert(rop == NULL, "found");
 80037a6:	4905      	ldr	r1, [pc, #20]	; (80037bc <oslib_test_009_001_execute+0x15c>)
 80037a8:	fab0 f080 	clz	r0, r0
 80037ac:	0940      	lsrs	r0, r0, #5
 80037ae:	f7fd fd1f 	bl	80011f0 <_test_assert>
  test_end_step(6);
 80037b2:	e763      	b.n	800367c <oslib_test_009_001_execute+0x1c>
 80037b4:	20001a7c 	.word	0x20001a7c
 80037b8:	0800c5c4 	.word	0x0800c5c4
 80037bc:	0800c58c 	.word	0x0800c58c
 80037c0:	20000884 	.word	0x20000884
 80037c4:	0800c5cc 	.word	0x0800c5cc
 80037c8:	20000888 	.word	0x20000888
 80037cc:	0800c5dc 	.word	0x0800c5dc
 80037d0:	0800c588 	.word	0x0800c588
 80037d4:	0800c5ec 	.word	0x0800c5ec
 80037d8:	0800c594 	.word	0x0800c594
 80037dc:	0800c5b0 	.word	0x0800c5b0

080037e0 <pipe_read>:
 *                      value 0 is reserved
 * @return              The number of bytes effectively transferred.
 *
 * @notapi
 */
static size_t pipe_read(pipe_t *pp, uint8_t *bp, size_t n) {
 80037e0:	e92d 43f8 	stmdb	sp!, {r3, r4, r5, r6, r7, r8, r9, lr}
 80037e4:	4605      	mov	r5, r0
 80037e6:	460f      	mov	r7, r1
 80037e8:	4614      	mov	r4, r2
  size_t s1, s2;

  PC_LOCK(pp);
 80037ea:	f100 0820 	add.w	r8, r0, #32
 80037ee:	4640      	mov	r0, r8
 80037f0:	f7ff fd36 	bl	8003260 <chMtxLock>
 *
 * @api
 */
static inline size_t chPipeGetUsedCount(const pipe_t *pp) {

  return pp->cnt;
 80037f4:	692b      	ldr	r3, [r5, #16]

  /* Number of bytes that can be read in a single atomic operation.*/
  if (n > chPipeGetUsedCount(pp)) {
 80037f6:	429c      	cmp	r4, r3
 80037f8:	d900      	bls.n	80037fc <pipe_read+0x1c>
    n = chPipeGetUsedCount(pp);
 80037fa:	461c      	mov	r4, r3
  }
  pp->cnt -= n;
 80037fc:	1b1b      	subs	r3, r3, r4
 80037fe:	612b      	str	r3, [r5, #16]

  /* Number of bytes before buffer limit.*/
  /*lint -save -e9033 [10.8] Checked to be safe.*/
  s1 = (size_t)(pp->top - pp->rdptr);
 8003800:	686e      	ldr	r6, [r5, #4]
 8003802:	68e9      	ldr	r1, [r5, #12]
 8003804:	1a76      	subs	r6, r6, r1
  /*lint -restore*/

  if (n < s1) {
 8003806:	42b4      	cmp	r4, r6
 8003808:	d315      	bcc.n	8003836 <pipe_read+0x56>
    memcpy((void *)bp, (void *)pp->rdptr, n);
    pp->rdptr += n;
  }
  else if (n > s1) {
 800380a:	42b4      	cmp	r4, r6
 800380c:	d91b      	bls.n	8003846 <pipe_read+0x66>
    memcpy((void *)bp, (void *)pp->rdptr, s1);
 800380e:	4632      	mov	r2, r6
 8003810:	4638      	mov	r0, r7
 8003812:	f7fc fd6b 	bl	80002ec <memcpy>
    bp += s1;
    s2 = n - s1;
 8003816:	eba4 0906 	sub.w	r9, r4, r6
    memcpy((void *)bp, (void *)pp->buffer, s2);
 800381a:	464a      	mov	r2, r9
 800381c:	6829      	ldr	r1, [r5, #0]
 800381e:	19b8      	adds	r0, r7, r6
 8003820:	f7fc fd64 	bl	80002ec <memcpy>
    pp->rdptr = pp->buffer + s2;
 8003824:	682a      	ldr	r2, [r5, #0]
 8003826:	444a      	add	r2, r9
 8003828:	60ea      	str	r2, [r5, #12]
  else {
    memcpy((void *)bp, (void *)pp->rdptr, n);
    pp->rdptr = pp->buffer;
  }

  PC_UNLOCK(pp);
 800382a:	4640      	mov	r0, r8
 800382c:	f7ff fbc0 	bl	8002fb0 <chMtxUnlock>

  return n;
}
 8003830:	4620      	mov	r0, r4
 8003832:	e8bd 83f8 	ldmia.w	sp!, {r3, r4, r5, r6, r7, r8, r9, pc}
    memcpy((void *)bp, (void *)pp->rdptr, n);
 8003836:	4622      	mov	r2, r4
 8003838:	4638      	mov	r0, r7
 800383a:	f7fc fd57 	bl	80002ec <memcpy>
    pp->rdptr += n;
 800383e:	68eb      	ldr	r3, [r5, #12]
 8003840:	4423      	add	r3, r4
 8003842:	60eb      	str	r3, [r5, #12]
 8003844:	e7f1      	b.n	800382a <pipe_read+0x4a>
    memcpy((void *)bp, (void *)pp->rdptr, n);
 8003846:	4622      	mov	r2, r4
 8003848:	4638      	mov	r0, r7
 800384a:	f7fc fd4f 	bl	80002ec <memcpy>
    pp->rdptr = pp->buffer;
 800384e:	682b      	ldr	r3, [r5, #0]
 8003850:	60eb      	str	r3, [r5, #12]
 8003852:	e7ea      	b.n	800382a <pipe_read+0x4a>
	...

08003860 <pipe_write>:
static size_t pipe_write(pipe_t *pp, const uint8_t *bp, size_t n) {
 8003860:	e92d 43f8 	stmdb	sp!, {r3, r4, r5, r6, r7, r8, r9, lr}
 8003864:	4605      	mov	r5, r0
 8003866:	460f      	mov	r7, r1
 8003868:	4691      	mov	r9, r2
  PC_LOCK(pp);
 800386a:	f100 0820 	add.w	r8, r0, #32
 800386e:	4640      	mov	r0, r8
 8003870:	f7ff fcf6 	bl	8003260 <chMtxLock>
  return (size_t)(pp->top - pp->buffer);
 8003874:	686e      	ldr	r6, [r5, #4]
 8003876:	682c      	ldr	r4, [r5, #0]
 8003878:	1b34      	subs	r4, r6, r4
  return pp->cnt;
 800387a:	692b      	ldr	r3, [r5, #16]
 *
 * @api
 */
static inline size_t chPipeGetFreeCount(const pipe_t *pp) {

  return chPipeGetSize(pp) - chPipeGetUsedCount(pp);
 800387c:	1ae4      	subs	r4, r4, r3
  if (n > chPipeGetFreeCount(pp)) {
 800387e:	45a1      	cmp	r9, r4
 8003880:	d800      	bhi.n	8003884 <pipe_write+0x24>
 8003882:	464c      	mov	r4, r9
  pp->cnt += n;
 8003884:	4423      	add	r3, r4
 8003886:	612b      	str	r3, [r5, #16]
  s1 = (size_t)(pp->top - pp->wrptr);
 8003888:	68a8      	ldr	r0, [r5, #8]
 800388a:	1a36      	subs	r6, r6, r0
  if (n < s1) {
 800388c:	42b4      	cmp	r4, r6
 800388e:	d315      	bcc.n	80038bc <pipe_write+0x5c>
  else if (n > s1) {
 8003890:	42b4      	cmp	r4, r6
 8003892:	d91b      	bls.n	80038cc <pipe_write+0x6c>
    memcpy((void *)pp->wrptr, (const void *)bp, s1);
 8003894:	4632      	mov	r2, r6
 8003896:	4639      	mov	r1, r7
 8003898:	f7fc fd28 	bl	80002ec <memcpy>
    s2 = n - s1;
 800389c:	eba4 0906 	sub.w	r9, r4, r6
    memcpy((void *)pp->buffer, (const void *)bp, s2);
 80038a0:	464a      	mov	r2, r9
 80038a2:	19b9      	adds	r1, r7, r6
 80038a4:	6828      	ldr	r0, [r5, #0]
 80038a6:	f7fc fd21 	bl	80002ec <memcpy>
    pp->wrptr = pp->buffer + s2;
 80038aa:	682a      	ldr	r2, [r5, #0]
 80038ac:	444a      	add	r2, r9
 80038ae:	60aa      	str	r2, [r5, #8]
  PC_UNLOCK(pp);
 80038b0:	4640      	mov	r0, r8
 80038b2:	f7ff fb7d 	bl	8002fb0 <chMtxUnlock>
}
 80038b6:	4620      	mov	r0, r4
 80038b8:	e8bd 83f8 	ldmia.w	sp!, {r3, r4, r5, r6, r7, r8, r9, pc}
    memcpy((void *)pp->wrptr, (const void *)bp, n);
 80038bc:	4622      	mov	r2, r4
 80038be:	4639      	mov	r1, r7
 80038c0:	f7fc fd14 	bl	80002ec <memcpy>
    pp->wrptr += n;
 80038c4:	68ab      	ldr	r3, [r5, #8]
 80038c6:	4423      	add	r3, r4
 80038c8:	60ab      	str	r3, [r5, #8]
 80038ca:	e7f1      	b.n	80038b0 <pipe_write+0x50>
    memcpy((void *)pp->wrptr, (const void *)bp, n);
 80038cc:	4622      	mov	r2, r4
 80038ce:	4639      	mov	r1, r7
 80038d0:	f7fc fd0c 	bl	80002ec <memcpy>
    pp->wrptr = pp->buffer;
 80038d4:	682b      	ldr	r3, [r5, #0]
 80038d6:	60ab      	str	r3, [r5, #8]
 80038d8:	e7ea      	b.n	80038b0 <pipe_write+0x50>
 80038da:	bf00      	nop
 80038dc:	0000      	movs	r0, r0
	...

080038e0 <chHeapStatus>:
 *                      free free block found space or @p NULL
 * @return              The number of fragments in the heap.
 *
 * @api
 */
size_t chHeapStatus(memory_heap_t *heapp, size_t *totalp, size_t *largestp) {
 80038e0:	e92d 41f0 	stmdb	sp!, {r4, r5, r6, r7, r8, lr}
 80038e4:	460e      	mov	r6, r1
 80038e6:	4615      	mov	r5, r2
  heap_header_t *qp;
  size_t n, tpages, lpages;

  if (heapp == NULL) {
 80038e8:	4604      	mov	r4, r0
 80038ea:	b190      	cbz	r0, 8003912 <chHeapStatus+0x32>
    heapp = &default_heap;
  }

  H_LOCK(heapp);
 80038ec:	f104 070c 	add.w	r7, r4, #12
 80038f0:	4638      	mov	r0, r7
 80038f2:	f7ff fcb5 	bl	8003260 <chMtxLock>
  tpages = 0U;
  lpages = 0U;
  n = 0U;
  qp = &heapp->header;
 80038f6:	1d23      	adds	r3, r4, #4
  lpages = 0U;
 80038f8:	2200      	movs	r2, #0
  tpages = 0U;
 80038fa:	4614      	mov	r4, r2
  n = 0U;
 80038fc:	4690      	mov	r8, r2
  while (H_NEXT(qp) != NULL) {
 80038fe:	681b      	ldr	r3, [r3, #0]
 8003900:	b14b      	cbz	r3, 8003916 <chHeapStatus+0x36>
    size_t pages = H_PAGES(H_NEXT(qp));
 8003902:	6858      	ldr	r0, [r3, #4]

    /* Updating counters.*/
    n++;
 8003904:	f108 0801 	add.w	r8, r8, #1
    tpages += pages;
 8003908:	4404      	add	r4, r0
    if (pages > lpages) {
 800390a:	4282      	cmp	r2, r0
 800390c:	d2f7      	bcs.n	80038fe <chHeapStatus+0x1e>
      lpages = pages;
 800390e:	4602      	mov	r2, r0
 8003910:	e7f5      	b.n	80038fe <chHeapStatus+0x1e>
    heapp = &default_heap;
 8003912:	4c07      	ldr	r4, [pc, #28]	; (8003930 <chHeapStatus+0x50>)
 8003914:	e7ea      	b.n	80038ec <chHeapStatus+0xc>

    qp = H_NEXT(qp);
  }

  /* Writing out fragmented free memory.*/
  if (totalp != NULL) {
 8003916:	b10e      	cbz	r6, 800391c <chHeapStatus+0x3c>
    *totalp = tpages * CH_HEAP_ALIGNMENT;
 8003918:	00e4      	lsls	r4, r4, #3
 800391a:	6034      	str	r4, [r6, #0]
  }

  /* Writing out unfragmented free memory.*/
  if (largestp != NULL) {
 800391c:	b10d      	cbz	r5, 8003922 <chHeapStatus+0x42>
    *largestp = lpages * CH_HEAP_ALIGNMENT;
 800391e:	00d2      	lsls	r2, r2, #3
 8003920:	602a      	str	r2, [r5, #0]
  }
  H_UNLOCK(heapp);
 8003922:	4638      	mov	r0, r7
 8003924:	f7ff fb44 	bl	8002fb0 <chMtxUnlock>

  return n;
}
 8003928:	4640      	mov	r0, r8
 800392a:	e8bd 81f0 	ldmia.w	sp!, {r4, r5, r6, r7, r8, pc}
 800392e:	bf00      	nop
 8003930:	20001108 	.word	0x20001108
	...

08003940 <cmd_mem>:
#endif

#if (SHELL_CMD_MEM_ENABLED == TRUE) || defined(__DOXYGEN__)
static void cmd_mem(BaseSequentialStream *chp, int argc, char *argv[]) {
 8003940:	b530      	push	{r4, r5, lr}
 8003942:	b083      	sub	sp, #12
 8003944:	4604      	mov	r4, r0
  size_t n, total, largest;

  (void)argv;
  if (argc > 0) {
 8003946:	2900      	cmp	r1, #0
 8003948:	dc1d      	bgt.n	8003986 <cmd_mem+0x46>
    shellUsage(chp, "mem");
    return;
  }
  n = chHeapStatus(NULL, &total, &largest);
 800394a:	466a      	mov	r2, sp
 800394c:	a901      	add	r1, sp, #4
 800394e:	2000      	movs	r0, #0
 8003950:	f7ff ffc6 	bl	80038e0 <chHeapStatus>
 8003954:	4605      	mov	r5, r0
  chprintf(chp, "core free memory : %u bytes" SHELL_NEWLINE_STR, chCoreGetStatusX());
 8003956:	f7fd fff3 	bl	8001940 <chCoreGetStatusX>
 800395a:	4602      	mov	r2, r0
 800395c:	490c      	ldr	r1, [pc, #48]	; (8003990 <cmd_mem+0x50>)
 800395e:	4620      	mov	r0, r4
 8003960:	f7fe ff5e 	bl	8002820 <chprintf>
  chprintf(chp, "heap fragments   : %u" SHELL_NEWLINE_STR, n);
 8003964:	462a      	mov	r2, r5
 8003966:	490b      	ldr	r1, [pc, #44]	; (8003994 <cmd_mem+0x54>)
 8003968:	4620      	mov	r0, r4
 800396a:	f7fe ff59 	bl	8002820 <chprintf>
  chprintf(chp, "heap free total  : %u bytes" SHELL_NEWLINE_STR, total);
 800396e:	9a01      	ldr	r2, [sp, #4]
 8003970:	4909      	ldr	r1, [pc, #36]	; (8003998 <cmd_mem+0x58>)
 8003972:	4620      	mov	r0, r4
 8003974:	f7fe ff54 	bl	8002820 <chprintf>
  chprintf(chp, "heap free largest: %u bytes" SHELL_NEWLINE_STR, largest);
 8003978:	9a00      	ldr	r2, [sp, #0]
 800397a:	4908      	ldr	r1, [pc, #32]	; (800399c <cmd_mem+0x5c>)
 800397c:	4620      	mov	r0, r4
 800397e:	f7fe ff4f 	bl	8002820 <chprintf>
}
 8003982:	b003      	add	sp, #12
 8003984:	bd30      	pop	{r4, r5, pc}
    shellUsage(chp, "mem");
 8003986:	4a06      	ldr	r2, [pc, #24]	; (80039a0 <cmd_mem+0x60>)
 8003988:	4906      	ldr	r1, [pc, #24]	; (80039a4 <cmd_mem+0x64>)
 800398a:	f7fe ff49 	bl	8002820 <chprintf>
    return;
 800398e:	e7f8      	b.n	8003982 <cmd_mem+0x42>
 8003990:	0800c600 	.word	0x0800c600
 8003994:	0800c620 	.word	0x0800c620
 8003998:	0800c638 	.word	0x0800c638
 800399c:	0800c658 	.word	0x0800c658
 80039a0:	0800c5fc 	.word	0x0800c5fc
 80039a4:	0800c304 	.word	0x0800c304
	...

080039b0 <chHeapFree>:
void chHeapFree(void *p) {
 80039b0:	b5f8      	push	{r3, r4, r5, r6, r7, lr}
 80039b2:	4606      	mov	r6, r0
  hp = (heap_header_t *)p - 1U;
 80039b4:	f1a0 0408 	sub.w	r4, r0, #8
  heapp = H_HEAP(hp);
 80039b8:	f850 7c08 	ldr.w	r7, [r0, #-8]
  qp = &heapp->header;
 80039bc:	1d3d      	adds	r5, r7, #4
  H_PAGES(hp) = MEM_ALIGN_NEXT(H_SIZE(hp),
 80039be:	f850 3c04 	ldr.w	r3, [r0, #-4]
 80039c2:	3307      	adds	r3, #7
                               CH_HEAP_ALIGNMENT) / CH_HEAP_ALIGNMENT;
 80039c4:	08db      	lsrs	r3, r3, #3
  H_PAGES(hp) = MEM_ALIGN_NEXT(H_SIZE(hp),
 80039c6:	f840 3c04 	str.w	r3, [r0, #-4]
  H_LOCK(heapp);
 80039ca:	370c      	adds	r7, #12
 80039cc:	4638      	mov	r0, r7
 80039ce:	f7ff fc47 	bl	8003260 <chMtxLock>
  qp = &heapp->header;
 80039d2:	462b      	mov	r3, r5
 80039d4:	e004      	b.n	80039e0 <chHeapFree+0x30>
        ((H_NEXT(qp) == NULL) || (hp < H_NEXT(qp)))) {
 80039d6:	681a      	ldr	r2, [r3, #0]
    if (((qp == &heapp->header) || (hp > qp)) &&
 80039d8:	b13a      	cbz	r2, 80039ea <chHeapFree+0x3a>
        ((H_NEXT(qp) == NULL) || (hp < H_NEXT(qp)))) {
 80039da:	4294      	cmp	r4, r2
 80039dc:	d305      	bcc.n	80039ea <chHeapFree+0x3a>
    qp = H_NEXT(qp);
 80039de:	681b      	ldr	r3, [r3, #0]
    if (((qp == &heapp->header) || (hp > qp)) &&
 80039e0:	42ab      	cmp	r3, r5
 80039e2:	d0f8      	beq.n	80039d6 <chHeapFree+0x26>
 80039e4:	429c      	cmp	r4, r3
 80039e6:	d9fa      	bls.n	80039de <chHeapFree+0x2e>
 80039e8:	e7f5      	b.n	80039d6 <chHeapFree+0x26>
      H_NEXT(hp) = H_NEXT(qp);
 80039ea:	f846 2c08 	str.w	r2, [r6, #-8]
      H_NEXT(qp) = hp;
 80039ee:	601c      	str	r4, [r3, #0]
      if (H_LIMIT(hp) == H_NEXT(hp)) {
 80039f0:	f856 1c04 	ldr.w	r1, [r6, #-4]
 80039f4:	1c4a      	adds	r2, r1, #1
 80039f6:	eb04 02c2 	add.w	r2, r4, r2, lsl #3
 80039fa:	f856 0c08 	ldr.w	r0, [r6, #-8]
 80039fe:	4282      	cmp	r2, r0
 8003a00:	d009      	beq.n	8003a16 <chHeapFree+0x66>
      if ((H_LIMIT(qp) == hp)) {
 8003a02:	6859      	ldr	r1, [r3, #4]
 8003a04:	1c4a      	adds	r2, r1, #1
 8003a06:	eb03 02c2 	add.w	r2, r3, r2, lsl #3
 8003a0a:	4294      	cmp	r4, r2
 8003a0c:	d00c      	beq.n	8003a28 <chHeapFree+0x78>
  H_UNLOCK(heapp);
 8003a0e:	4638      	mov	r0, r7
 8003a10:	f7ff face 	bl	8002fb0 <chMtxUnlock>
}
 8003a14:	bdf8      	pop	{r3, r4, r5, r6, r7, pc}
        H_PAGES(hp) += H_PAGES(H_NEXT(hp)) + 1U;
 8003a16:	6842      	ldr	r2, [r0, #4]
 8003a18:	4411      	add	r1, r2
 8003a1a:	3101      	adds	r1, #1
 8003a1c:	f846 1c04 	str.w	r1, [r6, #-4]
        H_NEXT(hp) = H_NEXT(H_NEXT(hp));
 8003a20:	6802      	ldr	r2, [r0, #0]
 8003a22:	f846 2c08 	str.w	r2, [r6, #-8]
 8003a26:	e7ec      	b.n	8003a02 <chHeapFree+0x52>
        H_PAGES(qp) += H_PAGES(hp) + 1U;
 8003a28:	f856 2c04 	ldr.w	r2, [r6, #-4]
 8003a2c:	4411      	add	r1, r2
 8003a2e:	3101      	adds	r1, #1
 8003a30:	6059      	str	r1, [r3, #4]
        H_NEXT(qp) = H_NEXT(hp);
 8003a32:	f856 2c08 	ldr.w	r2, [r6, #-8]
 8003a36:	601a      	str	r2, [r3, #0]
 8003a38:	e7e9      	b.n	8003a0e <chHeapFree+0x5e>
 8003a3a:	bf00      	nop
 8003a3c:	0000      	movs	r0, r0
	...

08003a40 <dyn_release_object_heap>:
                                    dyn_list_t *dlp) {
 8003a40:	b508      	push	{r3, lr}
  dep->refs--;
 8003a42:	6843      	ldr	r3, [r0, #4]
 8003a44:	3b01      	subs	r3, #1
 8003a46:	6043      	str	r3, [r0, #4]
  if (dep->refs == (ucnt_t)0) {
 8003a48:	b103      	cbz	r3, 8003a4c <dyn_release_object_heap+0xc>
}
 8003a4a:	bd08      	pop	{r3, pc}
    dep = dyn_list_unlink(dep, dlp);
 8003a4c:	f7fd fe50 	bl	80016f0 <dyn_list_unlink>
    chHeapFree((void *)dep);
 8003a50:	f7ff ffae 	bl	80039b0 <chHeapFree>
 8003a54:	e7f9      	b.n	8003a4a <dyn_release_object_heap+0xa>
 8003a56:	bf00      	nop
	...

08003a60 <chFactoryReleasePipe>:
 *
 * @param[in] dpp       dynamic pipe object reference
 *
 * @api
 */
void chFactoryReleasePipe(dyn_pipe_t *dpp) {
 8003a60:	b538      	push	{r3, r4, r5, lr}
 8003a62:	4605      	mov	r5, r0

  F_LOCK();
 8003a64:	4c06      	ldr	r4, [pc, #24]	; (8003a80 <chFactoryReleasePipe+0x20>)
 8003a66:	4620      	mov	r0, r4
 8003a68:	f7ff fbfa 	bl	8003260 <chMtxLock>

  dyn_release_object_heap(&dpp->element, &ch_factory.pipe_list);
 8003a6c:	f104 0144 	add.w	r1, r4, #68	; 0x44
 8003a70:	4628      	mov	r0, r5
 8003a72:	f7ff ffe5 	bl	8003a40 <dyn_release_object_heap>

  F_UNLOCK();
 8003a76:	4620      	mov	r0, r4
 8003a78:	f7ff fa9a 	bl	8002fb0 <chMtxUnlock>
}
 8003a7c:	bd38      	pop	{r3, r4, r5, pc}
 8003a7e:	bf00      	nop
 8003a80:	200010b8 	.word	0x200010b8
	...

08003a90 <oslib_test_009_006_teardown>:
 *   trigger an assertion.
 * - [9.6.6] Retrieving the dynamic pipe by name again, must not exist.
 * .
 */

static void oslib_test_009_006_teardown(void) {
 8003a90:	b510      	push	{r4, lr}
  dyn_pipe_t *dpp;

  dpp = chFactoryFindPipe("mypipe");
 8003a92:	4806      	ldr	r0, [pc, #24]	; (8003aac <oslib_test_009_006_teardown+0x1c>)
 8003a94:	f7ff fc2c 	bl	80032f0 <chFactoryFindPipe>
  if (dpp != NULL) {
 8003a98:	4604      	mov	r4, r0
 8003a9a:	b918      	cbnz	r0, 8003aa4 <oslib_test_009_006_teardown+0x14>
 8003a9c:	e005      	b.n	8003aaa <oslib_test_009_006_teardown+0x1a>
    while (dpp->element.refs > 0U) {
      chFactoryReleasePipe(dpp);
 8003a9e:	4620      	mov	r0, r4
 8003aa0:	f7ff ffde 	bl	8003a60 <chFactoryReleasePipe>
    while (dpp->element.refs > 0U) {
 8003aa4:	6863      	ldr	r3, [r4, #4]
 8003aa6:	2b00      	cmp	r3, #0
 8003aa8:	d1f9      	bne.n	8003a9e <oslib_test_009_006_teardown+0xe>
    }
  }
}
 8003aaa:	bd10      	pop	{r4, pc}
 8003aac:	0800c678 	.word	0x0800c678

08003ab0 <chFactoryReleaseObjectsFIFO>:
void chFactoryReleaseObjectsFIFO(dyn_objects_fifo_t *dofp) {
 8003ab0:	b538      	push	{r3, r4, r5, lr}
 8003ab2:	4605      	mov	r5, r0
  F_LOCK();
 8003ab4:	4c06      	ldr	r4, [pc, #24]	; (8003ad0 <chFactoryReleaseObjectsFIFO+0x20>)
 8003ab6:	4620      	mov	r0, r4
 8003ab8:	f7ff fbd2 	bl	8003260 <chMtxLock>
  dyn_release_object_heap(&dofp->element, &ch_factory.fifo_list);
 8003abc:	f104 0140 	add.w	r1, r4, #64	; 0x40
 8003ac0:	4628      	mov	r0, r5
 8003ac2:	f7ff ffbd 	bl	8003a40 <dyn_release_object_heap>
  F_UNLOCK();
 8003ac6:	4620      	mov	r0, r4
 8003ac8:	f7ff fa72 	bl	8002fb0 <chMtxUnlock>
}
 8003acc:	bd38      	pop	{r3, r4, r5, pc}
 8003ace:	bf00      	nop
 8003ad0:	200010b8 	.word	0x200010b8
	...

08003ae0 <oslib_test_009_005_teardown>:
static void oslib_test_009_005_teardown(void) {
 8003ae0:	b510      	push	{r4, lr}
  dofp = chFactoryFindObjectsFIFO("myfifo");
 8003ae2:	4806      	ldr	r0, [pc, #24]	; (8003afc <oslib_test_009_005_teardown+0x1c>)
 8003ae4:	f7ff fc1c 	bl	8003320 <chFactoryFindObjectsFIFO>
  if (dofp != NULL) {
 8003ae8:	4604      	mov	r4, r0
 8003aea:	b918      	cbnz	r0, 8003af4 <oslib_test_009_005_teardown+0x14>
 8003aec:	e005      	b.n	8003afa <oslib_test_009_005_teardown+0x1a>
      chFactoryReleaseObjectsFIFO(dofp);
 8003aee:	4620      	mov	r0, r4
 8003af0:	f7ff ffde 	bl	8003ab0 <chFactoryReleaseObjectsFIFO>
    while (dofp->element.refs > 0U) {
 8003af4:	6863      	ldr	r3, [r4, #4]
 8003af6:	2b00      	cmp	r3, #0
 8003af8:	d1f9      	bne.n	8003aee <oslib_test_009_005_teardown+0xe>
}
 8003afa:	bd10      	pop	{r4, pc}
 8003afc:	0800c680 	.word	0x0800c680

08003b00 <chFactoryReleaseMailbox>:
void chFactoryReleaseMailbox(dyn_mailbox_t *dmp) {
 8003b00:	b538      	push	{r3, r4, r5, lr}
 8003b02:	4605      	mov	r5, r0
  F_LOCK();
 8003b04:	4c06      	ldr	r4, [pc, #24]	; (8003b20 <chFactoryReleaseMailbox+0x20>)
 8003b06:	4620      	mov	r0, r4
 8003b08:	f7ff fbaa 	bl	8003260 <chMtxLock>
  dyn_release_object_heap(&dmp->element, &ch_factory.mbx_list);
 8003b0c:	f104 013c 	add.w	r1, r4, #60	; 0x3c
 8003b10:	4628      	mov	r0, r5
 8003b12:	f7ff ff95 	bl	8003a40 <dyn_release_object_heap>
  F_UNLOCK();
 8003b16:	4620      	mov	r0, r4
 8003b18:	f7ff fa4a 	bl	8002fb0 <chMtxUnlock>
}
 8003b1c:	bd38      	pop	{r3, r4, r5, pc}
 8003b1e:	bf00      	nop
 8003b20:	200010b8 	.word	0x200010b8
	...

08003b30 <oslib_test_009_004_teardown>:
static void oslib_test_009_004_teardown(void) {
 8003b30:	b510      	push	{r4, lr}
  dmp = chFactoryFindMailbox("mymbx");
 8003b32:	4806      	ldr	r0, [pc, #24]	; (8003b4c <oslib_test_009_004_teardown+0x1c>)
 8003b34:	f7ff fc0c 	bl	8003350 <chFactoryFindMailbox>
  if (dmp != NULL) {
 8003b38:	4604      	mov	r4, r0
 8003b3a:	b918      	cbnz	r0, 8003b44 <oslib_test_009_004_teardown+0x14>
 8003b3c:	e005      	b.n	8003b4a <oslib_test_009_004_teardown+0x1a>
      chFactoryReleaseMailbox(dmp);
 8003b3e:	4620      	mov	r0, r4
 8003b40:	f7ff ffde 	bl	8003b00 <chFactoryReleaseMailbox>
    while (dmp->element.refs > 0U) {
 8003b44:	6863      	ldr	r3, [r4, #4]
 8003b46:	2b00      	cmp	r3, #0
 8003b48:	d1f9      	bne.n	8003b3e <oslib_test_009_004_teardown+0xe>
}
 8003b4a:	bd10      	pop	{r4, pc}
 8003b4c:	0800c688 	.word	0x0800c688

08003b50 <chFactoryReleaseBuffer>:
void chFactoryReleaseBuffer(dyn_buffer_t *dbp) {
 8003b50:	b538      	push	{r3, r4, r5, lr}
 8003b52:	4605      	mov	r5, r0
  F_LOCK();
 8003b54:	4c06      	ldr	r4, [pc, #24]	; (8003b70 <chFactoryReleaseBuffer+0x20>)
 8003b56:	4620      	mov	r0, r4
 8003b58:	f7ff fb82 	bl	8003260 <chMtxLock>
  dyn_release_object_heap(&dbp->element, &ch_factory.buf_list);
 8003b5c:	f104 0124 	add.w	r1, r4, #36	; 0x24
 8003b60:	4628      	mov	r0, r5
 8003b62:	f7ff ff6d 	bl	8003a40 <dyn_release_object_heap>
  F_UNLOCK();
 8003b66:	4620      	mov	r0, r4
 8003b68:	f7ff fa22 	bl	8002fb0 <chMtxUnlock>
}
 8003b6c:	bd38      	pop	{r3, r4, r5, pc}
 8003b6e:	bf00      	nop
 8003b70:	200010b8 	.word	0x200010b8
	...

08003b80 <oslib_test_009_002_teardown>:
static void oslib_test_009_002_teardown(void) {
 8003b80:	b510      	push	{r4, lr}
  dbp = chFactoryFindBuffer("mybuf");
 8003b82:	4806      	ldr	r0, [pc, #24]	; (8003b9c <oslib_test_009_002_teardown+0x1c>)
 8003b84:	f7ff fcfc 	bl	8003580 <chFactoryFindBuffer>
  if (dbp != NULL) {
 8003b88:	4604      	mov	r4, r0
 8003b8a:	b918      	cbnz	r0, 8003b94 <oslib_test_009_002_teardown+0x14>
 8003b8c:	e005      	b.n	8003b9a <oslib_test_009_002_teardown+0x1a>
      chFactoryReleaseBuffer(dbp);
 8003b8e:	4620      	mov	r0, r4
 8003b90:	f7ff ffde 	bl	8003b50 <chFactoryReleaseBuffer>
    while (dbp->element.refs > 0U) {
 8003b94:	6863      	ldr	r3, [r4, #4]
 8003b96:	2b00      	cmp	r3, #0
 8003b98:	d1f9      	bne.n	8003b8e <oslib_test_009_002_teardown+0xe>
}
 8003b9a:	bd10      	pop	{r4, pc}
 8003b9c:	0800c690 	.word	0x0800c690

08003ba0 <chThdRelease>:
void chThdRelease(thread_t *tp) {
 8003ba0:	b508      	push	{r3, lr}
 8003ba2:	2320      	movs	r3, #32
 8003ba4:	f383 8811 	msr	BASEPRI, r3
  tp->refs--;
 8003ba8:	f890 3022 	ldrb.w	r3, [r0, #34]	; 0x22
 8003bac:	3b01      	subs	r3, #1
 8003bae:	f880 3022 	strb.w	r3, [r0, #34]	; 0x22
  if ((tp->refs == (trefs_t)0) && (tp->state == CH_STATE_FINAL)) {
 8003bb2:	6a03      	ldr	r3, [r0, #32]
 8003bb4:	f003 13ff 	and.w	r3, r3, #16711935	; 0xff00ff
 8003bb8:	2b0f      	cmp	r3, #15
 8003bba:	d003      	beq.n	8003bc4 <chThdRelease+0x24>
 8003bbc:	2300      	movs	r3, #0
 8003bbe:	f383 8811 	msr	BASEPRI, r3
}
 8003bc2:	bd08      	pop	{r3, pc}
    REG_REMOVE(tp);
 8003bc4:	6943      	ldr	r3, [r0, #20]
 8003bc6:	6902      	ldr	r2, [r0, #16]
 8003bc8:	611a      	str	r2, [r3, #16]
 8003bca:	6903      	ldr	r3, [r0, #16]
 8003bcc:	6942      	ldr	r2, [r0, #20]
 8003bce:	615a      	str	r2, [r3, #20]
 8003bd0:	2300      	movs	r3, #0
 8003bd2:	f383 8811 	msr	BASEPRI, r3
    switch (tp->flags & CH_FLAG_MODE_MASK) {
 8003bd6:	f890 3021 	ldrb.w	r3, [r0, #33]	; 0x21
 8003bda:	f003 0303 	and.w	r3, r3, #3
 8003bde:	2b01      	cmp	r3, #1
 8003be0:	d006      	beq.n	8003bf0 <chThdRelease+0x50>
 8003be2:	2b02      	cmp	r3, #2
 8003be4:	d1ed      	bne.n	8003bc2 <chThdRelease+0x22>
      chPoolFree(tp->mpool, chThdGetWorkingAreaX(tp));
 8003be6:	69c1      	ldr	r1, [r0, #28]
 8003be8:	6c00      	ldr	r0, [r0, #64]	; 0x40
 8003bea:	f7fd fdb9 	bl	8001760 <chPoolFree>
    return;
 8003bee:	e7e8      	b.n	8003bc2 <chThdRelease+0x22>
      chHeapFree(chThdGetWorkingAreaX(tp));
 8003bf0:	69c0      	ldr	r0, [r0, #28]
 8003bf2:	f7ff fedd 	bl	80039b0 <chHeapFree>
      break;
 8003bf6:	e7e4      	b.n	8003bc2 <chThdRelease+0x22>
	...

08003c00 <chRegNextThread>:
 * @return              A reference to the next thread.
 * @retval NULL         if there is no next thread.
 *
 * @api
 */
thread_t *chRegNextThread(thread_t *tp) {
 8003c00:	b510      	push	{r4, lr}
 8003c02:	2320      	movs	r3, #32
 8003c04:	f383 8811 	msr	BASEPRI, r3
  thread_t *ntp;

  chSysLock();
  ntp = tp->newer;
 8003c08:	6904      	ldr	r4, [r0, #16]
  /*lint -save -e9087 -e740 [11.3, 1.3] Cast required by list handling.*/
  if (ntp == (thread_t *)&ch.rlist) {
 8003c0a:	4b08      	ldr	r3, [pc, #32]	; (8003c2c <chRegNextThread+0x2c>)
 8003c0c:	429c      	cmp	r4, r3
 8003c0e:	d00b      	beq.n	8003c28 <chRegNextThread+0x28>
    ntp = NULL;
  }
#if CH_CFG_USE_DYNAMIC == TRUE
  else {
    chDbgAssert(ntp->refs < (trefs_t)255, "too many references");
    ntp->refs++;
 8003c10:	f894 3022 	ldrb.w	r3, [r4, #34]	; 0x22
 8003c14:	3301      	adds	r3, #1
 8003c16:	f884 3022 	strb.w	r3, [r4, #34]	; 0x22
 8003c1a:	2300      	movs	r3, #0
 8003c1c:	f383 8811 	msr	BASEPRI, r3
  }
#endif
  chSysUnlock();
#if CH_CFG_USE_DYNAMIC == TRUE
  chThdRelease(tp);
 8003c20:	f7ff ffbe 	bl	8003ba0 <chThdRelease>
#endif

  return ntp;
}
 8003c24:	4620      	mov	r0, r4
 8003c26:	bd10      	pop	{r4, pc}
    ntp = NULL;
 8003c28:	2400      	movs	r4, #0
 8003c2a:	e7f6      	b.n	8003c1a <chRegNextThread+0x1a>
 8003c2c:	20001040 	.word	0x20001040

08003c30 <cmd_threads>:
#endif

#if (SHELL_CMD_THREADS_ENABLED == TRUE) || defined(__DOXYGEN__)
static void cmd_threads(BaseSequentialStream *chp, int argc, char *argv[]) {
 8003c30:	b5f0      	push	{r4, r5, r6, r7, lr}
 8003c32:	b087      	sub	sp, #28
 8003c34:	4606      	mov	r6, r0
  static const char *states[] = {CH_STATE_NAMES};
  thread_t *tp;

  (void)argv;
  if (argc > 0) {
 8003c36:	2900      	cmp	r1, #0
 8003c38:	dc06      	bgt.n	8003c48 <cmd_threads+0x18>
    shellUsage(chp, "threads");
    return;
  }
  chprintf(chp, "stklimit    stack     addr refs prio     state         name\r\n" SHELL_NEWLINE_STR);
 8003c3a:	4917      	ldr	r1, [pc, #92]	; (8003c98 <cmd_threads+0x68>)
 8003c3c:	f7fe fdf0 	bl	8002820 <chprintf>
  tp = chRegFirstThread();
 8003c40:	f7fe f906 	bl	8001e50 <chRegFirstThread>
 8003c44:	4604      	mov	r4, r0
 8003c46:	e015      	b.n	8003c74 <cmd_threads+0x44>
    shellUsage(chp, "threads");
 8003c48:	4a14      	ldr	r2, [pc, #80]	; (8003c9c <cmd_threads+0x6c>)
 8003c4a:	4915      	ldr	r1, [pc, #84]	; (8003ca0 <cmd_threads+0x70>)
 8003c4c:	f7fe fde8 	bl	8002820 <chprintf>
             stklimit, (uint32_t)tp->ctx.sp, (uint32_t)tp,
             (uint32_t)tp->refs - 1, (uint32_t)tp->prio, states[tp->state],
             tp->name == NULL ? "" : tp->name);
    tp = chRegNextThread(tp);
  } while (tp != NULL);
}
 8003c50:	b007      	add	sp, #28
 8003c52:	bdf0      	pop	{r4, r5, r6, r7, pc}
    chprintf(chp, "%08lx %08lx %08lx %4lu %4lu %9s %12s" SHELL_NEWLINE_STR,
 8003c54:	9504      	str	r5, [sp, #16]
 8003c56:	f8cd c00c 	str.w	ip, [sp, #12]
 8003c5a:	9702      	str	r7, [sp, #8]
 8003c5c:	9101      	str	r1, [sp, #4]
 8003c5e:	9000      	str	r0, [sp, #0]
 8003c60:	4910      	ldr	r1, [pc, #64]	; (8003ca4 <cmd_threads+0x74>)
 8003c62:	4630      	mov	r0, r6
 8003c64:	f7fe fddc 	bl	8002820 <chprintf>
    tp = chRegNextThread(tp);
 8003c68:	4620      	mov	r0, r4
 8003c6a:	f7ff ffc9 	bl	8003c00 <chRegNextThread>
  } while (tp != NULL);
 8003c6e:	4604      	mov	r4, r0
 8003c70:	2800      	cmp	r0, #0
 8003c72:	d0ed      	beq.n	8003c50 <cmd_threads+0x20>
    uint32_t stklimit = (uint32_t)tp->wabase;
 8003c74:	69e2      	ldr	r2, [r4, #28]
             stklimit, (uint32_t)tp->ctx.sp, (uint32_t)tp,
 8003c76:	68e3      	ldr	r3, [r4, #12]
    chprintf(chp, "%08lx %08lx %08lx %4lu %4lu %9s %12s" SHELL_NEWLINE_STR,
 8003c78:	4620      	mov	r0, r4
             (uint32_t)tp->refs - 1, (uint32_t)tp->prio, states[tp->state],
 8003c7a:	f894 1022 	ldrb.w	r1, [r4, #34]	; 0x22
    chprintf(chp, "%08lx %08lx %08lx %4lu %4lu %9s %12s" SHELL_NEWLINE_STR,
 8003c7e:	3901      	subs	r1, #1
             (uint32_t)tp->refs - 1, (uint32_t)tp->prio, states[tp->state],
 8003c80:	68a7      	ldr	r7, [r4, #8]
 8003c82:	f894 c020 	ldrb.w	ip, [r4, #32]
    chprintf(chp, "%08lx %08lx %08lx %4lu %4lu %9s %12s" SHELL_NEWLINE_STR,
 8003c86:	4d08      	ldr	r5, [pc, #32]	; (8003ca8 <cmd_threads+0x78>)
 8003c88:	f855 c02c 	ldr.w	ip, [r5, ip, lsl #2]
             tp->name == NULL ? "" : tp->name);
 8003c8c:	69a5      	ldr	r5, [r4, #24]
    chprintf(chp, "%08lx %08lx %08lx %4lu %4lu %9s %12s" SHELL_NEWLINE_STR,
 8003c8e:	2d00      	cmp	r5, #0
 8003c90:	d1e0      	bne.n	8003c54 <cmd_threads+0x24>
 8003c92:	4d06      	ldr	r5, [pc, #24]	; (8003cac <cmd_threads+0x7c>)
 8003c94:	e7de      	b.n	8003c54 <cmd_threads+0x24>
 8003c96:	bf00      	nop
 8003c98:	0800c698 	.word	0x0800c698
 8003c9c:	0800d408 	.word	0x0800d408
 8003ca0:	0800c304 	.word	0x0800c304
 8003ca4:	0800c6d8 	.word	0x0800c6d8
 8003ca8:	0800dff4 	.word	0x0800dff4
 8003cac:	0800c894 	.word	0x0800c894

08003cb0 <chThdWait>:
msg_t chThdWait(thread_t *tp) {
 8003cb0:	b538      	push	{r3, r4, r5, lr}
 8003cb2:	4604      	mov	r4, r0
 8003cb4:	2320      	movs	r3, #32
 8003cb6:	f383 8811 	msr	BASEPRI, r3
  if (tp->state != CH_STATE_FINAL) {
 8003cba:	f890 3020 	ldrb.w	r3, [r0, #32]
 8003cbe:	2b0f      	cmp	r3, #15
 8003cc0:	d108      	bne.n	8003cd4 <chThdWait+0x24>
  msg = tp->u.exitcode;
 8003cc2:	6a65      	ldr	r5, [r4, #36]	; 0x24
 8003cc4:	2300      	movs	r3, #0
 8003cc6:	f383 8811 	msr	BASEPRI, r3
  chThdRelease(tp);
 8003cca:	4620      	mov	r0, r4
 8003ccc:	f7ff ff68 	bl	8003ba0 <chThdRelease>
}
 8003cd0:	4628      	mov	r0, r5
 8003cd2:	bd38      	pop	{r3, r4, r5, pc}
    list_insert(currp, &tp->waiting);
 8003cd4:	4b04      	ldr	r3, [pc, #16]	; (8003ce8 <chThdWait+0x38>)
 8003cd6:	699b      	ldr	r3, [r3, #24]
  tp->queue.next = tlp->next;
 8003cd8:	6a82      	ldr	r2, [r0, #40]	; 0x28
 8003cda:	601a      	str	r2, [r3, #0]
  tlp->next = tp;
 8003cdc:	6283      	str	r3, [r0, #40]	; 0x28
    chSchGoSleepS(CH_STATE_WTEXIT);
 8003cde:	2009      	movs	r0, #9
 8003ce0:	f006 fbe6 	bl	800a4b0 <chSchGoSleepS>
 8003ce4:	e7ed      	b.n	8003cc2 <chThdWait+0x12>
 8003ce6:	bf00      	nop
 8003ce8:	20001040 	.word	0x20001040
 8003cec:	00000000 	.word	0x00000000

08003cf0 <test_wait_threads>:

/*
 * Waits for the completion of all the test-spawned threads.
 */
void test_wait_threads(void) {
 8003cf0:	b510      	push	{r4, lr}
  unsigned i;

  for (i = 0; i < MAX_THREADS; i++)
 8003cf2:	2400      	movs	r4, #0
 8003cf4:	e000      	b.n	8003cf8 <test_wait_threads+0x8>
 8003cf6:	3401      	adds	r4, #1
 8003cf8:	2c04      	cmp	r4, #4
 8003cfa:	d80b      	bhi.n	8003d14 <test_wait_threads+0x24>
    if (threads[i] != NULL) {
 8003cfc:	4b06      	ldr	r3, [pc, #24]	; (8003d18 <test_wait_threads+0x28>)
 8003cfe:	f853 0024 	ldr.w	r0, [r3, r4, lsl #2]
 8003d02:	2800      	cmp	r0, #0
 8003d04:	d0f7      	beq.n	8003cf6 <test_wait_threads+0x6>
      chThdWait(threads[i]);
 8003d06:	f7ff ffd3 	bl	8003cb0 <chThdWait>
      threads[i] = NULL;
 8003d0a:	4b03      	ldr	r3, [pc, #12]	; (8003d18 <test_wait_threads+0x28>)
 8003d0c:	2200      	movs	r2, #0
 8003d0e:	f843 2024 	str.w	r2, [r3, r4, lsl #2]
 8003d12:	e7f0      	b.n	8003cf6 <test_wait_threads+0x6>
    }
}
 8003d14:	bd10      	pop	{r4, pc}
 8003d16:	bf00      	nop
 8003d18:	20001a94 	.word	0x20001a94
 8003d1c:	00000000 	.word	0x00000000

08003d20 <rt_test_007_004_teardown>:
static void rt_test_007_004_teardown(void) {
 8003d20:	b508      	push	{r3, lr}
  test_wait_threads();
 8003d22:	f7ff ffe5 	bl	8003cf0 <test_wait_threads>
}
 8003d26:	bd08      	pop	{r3, pc}
	...

08003d30 <rt_test_006_006_teardown>:
 * - [6.6.6] Signaling the binary semaphore again, the internal state
 *   must not change from "not taken".
 * .
 */

static void rt_test_006_006_teardown(void) {
 8003d30:	b508      	push	{r3, lr}
  test_wait_threads();
 8003d32:	f7ff ffdd 	bl	8003cf0 <test_wait_threads>
}
 8003d36:	bd08      	pop	{r3, pc}
	...

08003d40 <rt_test_006_005_teardown>:
static void rt_test_006_005_teardown(void) {
 8003d40:	b508      	push	{r3, lr}
  test_wait_threads();
 8003d42:	f7ff ffd5 	bl	8003cf0 <test_wait_threads>
}
 8003d46:	bd08      	pop	{r3, pc}
	...

08003d50 <chHeapAllocAligned>:
void *chHeapAllocAligned(memory_heap_t *heapp, size_t size, unsigned align) {
 8003d50:	e92d 43f8 	stmdb	sp!, {r3, r4, r5, r6, r7, r8, r9, lr}
 8003d54:	460f      	mov	r7, r1
 8003d56:	4615      	mov	r5, r2
  if (heapp == NULL) {
 8003d58:	4680      	mov	r8, r0
 8003d5a:	2800      	cmp	r0, #0
 8003d5c:	d038      	beq.n	8003dd0 <chHeapAllocAligned+0x80>
  if (align < CH_HEAP_ALIGNMENT) {
 8003d5e:	2d07      	cmp	r5, #7
 8003d60:	d800      	bhi.n	8003d64 <chHeapAllocAligned+0x14>
    align = CH_HEAP_ALIGNMENT;
 8003d62:	2508      	movs	r5, #8
  pages = MEM_ALIGN_NEXT(size, CH_HEAP_ALIGNMENT) / CH_HEAP_ALIGNMENT;
 8003d64:	1dfe      	adds	r6, r7, #7
 8003d66:	08f6      	lsrs	r6, r6, #3
  H_LOCK(heapp);
 8003d68:	f108 090c 	add.w	r9, r8, #12
 8003d6c:	4648      	mov	r0, r9
 8003d6e:	f7ff fa77 	bl	8003260 <chMtxLock>
  qp = &heapp->header;
 8003d72:	f108 0404 	add.w	r4, r8, #4
  while (H_NEXT(qp) != NULL) {
 8003d76:	4621      	mov	r1, r4
 8003d78:	6824      	ldr	r4, [r4, #0]
 8003d7a:	2c00      	cmp	r4, #0
 8003d7c:	d04a      	beq.n	8003e14 <chHeapAllocAligned+0xc4>
    ahp = (heap_header_t *)MEM_ALIGN_NEXT(H_BLOCK(hp), align) - 1U;
 8003d7e:	1963      	adds	r3, r4, r5
 8003d80:	3307      	adds	r3, #7
 8003d82:	426a      	negs	r2, r5
 8003d84:	4013      	ands	r3, r2
 8003d86:	3b08      	subs	r3, #8
    if ((ahp < H_LIMIT(hp)) && (pages <= NPAGES(H_LIMIT(hp), ahp + 1U))) {
 8003d88:	6860      	ldr	r0, [r4, #4]
 8003d8a:	1c42      	adds	r2, r0, #1
 8003d8c:	eb04 02c2 	add.w	r2, r4, r2, lsl #3
 8003d90:	429a      	cmp	r2, r3
 8003d92:	d9f0      	bls.n	8003d76 <chHeapAllocAligned+0x26>
 8003d94:	f103 0c08 	add.w	ip, r3, #8
 8003d98:	eba2 020c 	sub.w	r2, r2, ip
 8003d9c:	ea4f 0ce2 	mov.w	ip, r2, asr #3
 8003da0:	ebb6 0fe2 	cmp.w	r6, r2, asr #3
 8003da4:	d8e7      	bhi.n	8003d76 <chHeapAllocAligned+0x26>
      if (ahp > hp) {
 8003da6:	429c      	cmp	r4, r3
 8003da8:	d215      	bcs.n	8003dd6 <chHeapAllocAligned+0x86>
        H_PAGES(hp) = NPAGES(ahp, H_BLOCK(hp));
 8003daa:	f104 0208 	add.w	r2, r4, #8
 8003dae:	1a9a      	subs	r2, r3, r2
 8003db0:	10d2      	asrs	r2, r2, #3
 8003db2:	6062      	str	r2, [r4, #4]
        if (bpages > pages) {
 8003db4:	45b4      	cmp	ip, r6
 8003db6:	d921      	bls.n	8003dfc <chHeapAllocAligned+0xac>
          fp = H_BLOCK(ahp) + pages;
 8003db8:	1c70      	adds	r0, r6, #1
 8003dba:	eb03 01c0 	add.w	r1, r3, r0, lsl #3
          H_PAGES(fp) = (bpages - pages) - 1U;
 8003dbe:	ebac 0206 	sub.w	r2, ip, r6
 8003dc2:	3a01      	subs	r2, #1
 8003dc4:	604a      	str	r2, [r1, #4]
          H_NEXT(fp) = H_NEXT(hp);
 8003dc6:	6822      	ldr	r2, [r4, #0]
 8003dc8:	f843 2030 	str.w	r2, [r3, r0, lsl #3]
          H_NEXT(hp) = fp;
 8003dcc:	6021      	str	r1, [r4, #0]
 8003dce:	e015      	b.n	8003dfc <chHeapAllocAligned+0xac>
    heapp = &default_heap;
 8003dd0:	f8df 8068 	ldr.w	r8, [pc, #104]	; 8003e3c <chHeapAllocAligned+0xec>
 8003dd4:	e7c3      	b.n	8003d5e <chHeapAllocAligned+0xe>
        if (H_PAGES(hp) == pages) {
 8003dd6:	42b0      	cmp	r0, r6
 8003dd8:	d018      	beq.n	8003e0c <chHeapAllocAligned+0xbc>
          fp = H_BLOCK(hp) + pages;
 8003dda:	3601      	adds	r6, #1
 8003ddc:	eb04 02c6 	add.w	r2, r4, r6, lsl #3
          H_NEXT(fp) = H_NEXT(hp);
 8003de0:	6823      	ldr	r3, [r4, #0]
 8003de2:	f844 3036 	str.w	r3, [r4, r6, lsl #3]
          H_PAGES(fp) = NPAGES(H_LIMIT(hp), H_BLOCK(fp));
 8003de6:	6863      	ldr	r3, [r4, #4]
 8003de8:	3301      	adds	r3, #1
 8003dea:	eb04 03c3 	add.w	r3, r4, r3, lsl #3
 8003dee:	f102 0008 	add.w	r0, r2, #8
 8003df2:	1a1b      	subs	r3, r3, r0
 8003df4:	10db      	asrs	r3, r3, #3
 8003df6:	6053      	str	r3, [r2, #4]
          H_NEXT(qp) = fp;
 8003df8:	600a      	str	r2, [r1, #0]
    hp = H_NEXT(qp);
 8003dfa:	4623      	mov	r3, r4
      H_SIZE(hp) = size;
 8003dfc:	605f      	str	r7, [r3, #4]
      H_HEAP(hp) = heapp;
 8003dfe:	461c      	mov	r4, r3
 8003e00:	f844 8b08 	str.w	r8, [r4], #8
      H_UNLOCK(heapp);
 8003e04:	4648      	mov	r0, r9
 8003e06:	f7ff f8d3 	bl	8002fb0 <chMtxUnlock>
      return (void *)H_BLOCK(hp);
 8003e0a:	e013      	b.n	8003e34 <chHeapAllocAligned+0xe4>
          H_NEXT(qp) = H_NEXT(hp);
 8003e0c:	6823      	ldr	r3, [r4, #0]
 8003e0e:	600b      	str	r3, [r1, #0]
    hp = H_NEXT(qp);
 8003e10:	4623      	mov	r3, r4
 8003e12:	e7f3      	b.n	8003dfc <chHeapAllocAligned+0xac>
  H_UNLOCK(heapp);
 8003e14:	4648      	mov	r0, r9
 8003e16:	f7ff f8cb 	bl	8002fb0 <chMtxUnlock>
  if (heapp->provider != NULL) {
 8003e1a:	f8d8 3000 	ldr.w	r3, [r8]
 8003e1e:	b14b      	cbz	r3, 8003e34 <chHeapAllocAligned+0xe4>
    ahp = heapp->provider(pages * CH_HEAP_ALIGNMENT,
 8003e20:	2208      	movs	r2, #8
 8003e22:	4629      	mov	r1, r5
 8003e24:	00f0      	lsls	r0, r6, #3
 8003e26:	4798      	blx	r3
    if (ahp != NULL) {
 8003e28:	4604      	mov	r4, r0
 8003e2a:	b118      	cbz	r0, 8003e34 <chHeapAllocAligned+0xe4>
      H_HEAP(hp) = heapp;
 8003e2c:	f840 8c08 	str.w	r8, [r0, #-8]
      H_SIZE(hp) = size;
 8003e30:	f840 7c04 	str.w	r7, [r0, #-4]
}
 8003e34:	4620      	mov	r0, r4
 8003e36:	e8bd 83f8 	ldmia.w	sp!, {r3, r4, r5, r6, r7, r8, r9, pc}
 8003e3a:	bf00      	nop
 8003e3c:	20001108 	.word	0x20001108

08003e40 <oslib_test_008_002_execute>:
 *   is freed using chHeapFree(), must not fail.
 * - [8.2.2] Testing allocation failure.
 * .
 */

static void oslib_test_008_002_execute(void) {
 8003e40:	b510      	push	{r4, lr}
 8003e42:	b082      	sub	sp, #8
  void *p1;
  size_t total_size, largest_size;

  /* [8.2.1] Single block allocation using chHeapAlloc() then the block
     is freed using chHeapFree(), must not fail.*/
  test_set_step(1);
 8003e44:	4b14      	ldr	r3, [pc, #80]	; (8003e98 <oslib_test_008_002_execute+0x58>)
 8003e46:	2201      	movs	r2, #1
 8003e48:	601a      	str	r2, [r3, #0]
  {
    (void)chHeapStatus(NULL, &total_size, &largest_size);
 8003e4a:	466a      	mov	r2, sp
 8003e4c:	a901      	add	r1, sp, #4
 8003e4e:	2000      	movs	r0, #0
 8003e50:	f7ff fd46 	bl	80038e0 <chHeapStatus>
 *
 * @api
 */
static inline void *chHeapAlloc(memory_heap_t *heapp, size_t size) {

  return chHeapAllocAligned(heapp, size, CH_HEAP_ALIGNMENT);
 8003e54:	2208      	movs	r2, #8
 8003e56:	2110      	movs	r1, #16
 8003e58:	4810      	ldr	r0, [pc, #64]	; (8003e9c <oslib_test_008_002_execute+0x5c>)
 8003e5a:	f7ff ff79 	bl	8003d50 <chHeapAllocAligned>
    p1 = chHeapAlloc(&test_heap, ALLOC_SIZE);
    test_assert(p1 != NULL, "allocation failed");
 8003e5e:	4604      	mov	r4, r0
 8003e60:	490f      	ldr	r1, [pc, #60]	; (8003ea0 <oslib_test_008_002_execute+0x60>)
 8003e62:	3800      	subs	r0, #0
 8003e64:	bf18      	it	ne
 8003e66:	2001      	movne	r0, #1
 8003e68:	f7fd f9c2 	bl	80011f0 <_test_assert>
 8003e6c:	b108      	cbz	r0, 8003e72 <oslib_test_008_002_execute+0x32>
  {
    p1 = chHeapAlloc(NULL, (size_t)-256);
    test_assert(p1 == NULL, "allocation not failed");
  }
  test_end_step(2);
}
 8003e6e:	b002      	add	sp, #8
 8003e70:	bd10      	pop	{r4, pc}
    chHeapFree(p1);
 8003e72:	4620      	mov	r0, r4
 8003e74:	f7ff fd9c 	bl	80039b0 <chHeapFree>
  test_set_step(2);
 8003e78:	4b07      	ldr	r3, [pc, #28]	; (8003e98 <oslib_test_008_002_execute+0x58>)
 8003e7a:	2202      	movs	r2, #2
 8003e7c:	601a      	str	r2, [r3, #0]
 8003e7e:	2208      	movs	r2, #8
 8003e80:	f06f 01ff 	mvn.w	r1, #255	; 0xff
 8003e84:	2000      	movs	r0, #0
 8003e86:	f7ff ff63 	bl	8003d50 <chHeapAllocAligned>
    test_assert(p1 == NULL, "allocation not failed");
 8003e8a:	4906      	ldr	r1, [pc, #24]	; (8003ea4 <oslib_test_008_002_execute+0x64>)
 8003e8c:	fab0 f080 	clz	r0, r0
 8003e90:	0940      	lsrs	r0, r0, #5
 8003e92:	f7fd f9ad 	bl	80011f0 <_test_assert>
 8003e96:	e7ea      	b.n	8003e6e <oslib_test_008_002_execute+0x2e>
 8003e98:	20001a7c 	.word	0x20001a7c
 8003e9c:	200019dc 	.word	0x200019dc
 8003ea0:	0800c700 	.word	0x0800c700
 8003ea4:	0800c714 	.word	0x0800c714
	...

08003eb0 <oslib_test_008_001_execute>:
static void oslib_test_008_001_execute(void) {
 8003eb0:	b5f0      	push	{r4, r5, r6, r7, lr}
 8003eb2:	b085      	sub	sp, #20
  test_set_step(1);
 8003eb4:	4b08      	ldr	r3, [pc, #32]	; (8003ed8 <oslib_test_008_001_execute+0x28>)
 8003eb6:	2201      	movs	r2, #1
 8003eb8:	601a      	str	r2, [r3, #0]
    test_assert(chHeapStatus(&test_heap, &sz, NULL) == 1, "heap fragmented");
 8003eba:	2200      	movs	r2, #0
 8003ebc:	a902      	add	r1, sp, #8
 8003ebe:	4807      	ldr	r0, [pc, #28]	; (8003edc <oslib_test_008_001_execute+0x2c>)
 8003ec0:	f7ff fd0e 	bl	80038e0 <chHeapStatus>
 8003ec4:	4906      	ldr	r1, [pc, #24]	; (8003ee0 <oslib_test_008_001_execute+0x30>)
 8003ec6:	2801      	cmp	r0, #1
 8003ec8:	bf14      	ite	ne
 8003eca:	2000      	movne	r0, #0
 8003ecc:	2001      	moveq	r0, #1
 8003ece:	f7fd f98f 	bl	80011f0 <_test_assert>
 8003ed2:	b138      	cbz	r0, 8003ee4 <oslib_test_008_001_execute+0x34>
}
 8003ed4:	b005      	add	sp, #20
 8003ed6:	bdf0      	pop	{r4, r5, r6, r7, pc}
 8003ed8:	20001a7c 	.word	0x20001a7c
 8003edc:	200019dc 	.word	0x200019dc
 8003ee0:	0800c72c 	.word	0x0800c72c
  test_set_step(2);
 8003ee4:	4bbd      	ldr	r3, [pc, #756]	; (80041dc <oslib_test_008_001_execute+0x32c>)
 8003ee6:	2202      	movs	r2, #2
 8003ee8:	601a      	str	r2, [r3, #0]
 8003eea:	2208      	movs	r2, #8
 8003eec:	f44f 7180 	mov.w	r1, #256	; 0x100
 8003ef0:	48bb      	ldr	r0, [pc, #748]	; (80041e0 <oslib_test_008_001_execute+0x330>)
 8003ef2:	f7ff ff2d 	bl	8003d50 <chHeapAllocAligned>
    test_assert(p1 == NULL, "allocation not failed");
 8003ef6:	49bb      	ldr	r1, [pc, #748]	; (80041e4 <oslib_test_008_001_execute+0x334>)
 8003ef8:	fab0 f080 	clz	r0, r0
 8003efc:	0940      	lsrs	r0, r0, #5
 8003efe:	f7fd f977 	bl	80011f0 <_test_assert>
 8003f02:	2800      	cmp	r0, #0
 8003f04:	d1e6      	bne.n	8003ed4 <oslib_test_008_001_execute+0x24>
  test_set_step(3);
 8003f06:	4bb5      	ldr	r3, [pc, #724]	; (80041dc <oslib_test_008_001_execute+0x32c>)
 8003f08:	2203      	movs	r2, #3
 8003f0a:	601a      	str	r2, [r3, #0]
 8003f0c:	2208      	movs	r2, #8
 8003f0e:	2110      	movs	r1, #16
 8003f10:	48b3      	ldr	r0, [pc, #716]	; (80041e0 <oslib_test_008_001_execute+0x330>)
 8003f12:	f7ff ff1d 	bl	8003d50 <chHeapAllocAligned>
    test_assert(p1 != NULL, "allocation failed");
 8003f16:	4604      	mov	r4, r0
 8003f18:	49b3      	ldr	r1, [pc, #716]	; (80041e8 <oslib_test_008_001_execute+0x338>)
 8003f1a:	3800      	subs	r0, #0
 8003f1c:	bf18      	it	ne
 8003f1e:	2001      	movne	r0, #1
 8003f20:	f7fd f966 	bl	80011f0 <_test_assert>
 8003f24:	2800      	cmp	r0, #0
 8003f26:	d1d5      	bne.n	8003ed4 <oslib_test_008_001_execute+0x24>
    chHeapFree(p1);
 8003f28:	4620      	mov	r0, r4
 8003f2a:	f7ff fd41 	bl	80039b0 <chHeapFree>
  test_set_step(4);
 8003f2e:	4bab      	ldr	r3, [pc, #684]	; (80041dc <oslib_test_008_001_execute+0x32c>)
 8003f30:	2204      	movs	r2, #4
 8003f32:	601a      	str	r2, [r3, #0]
    n = chHeapStatus(&test_heap, &total_size, &largest_size);
 8003f34:	466a      	mov	r2, sp
 8003f36:	a901      	add	r1, sp, #4
 8003f38:	48a9      	ldr	r0, [pc, #676]	; (80041e0 <oslib_test_008_001_execute+0x330>)
 8003f3a:	f7ff fcd1 	bl	80038e0 <chHeapStatus>
 8003f3e:	9003      	str	r0, [sp, #12]
    test_assert(n == 1, "missing free block");
 8003f40:	49aa      	ldr	r1, [pc, #680]	; (80041ec <oslib_test_008_001_execute+0x33c>)
 8003f42:	2801      	cmp	r0, #1
 8003f44:	bf14      	ite	ne
 8003f46:	2000      	movne	r0, #0
 8003f48:	2001      	moveq	r0, #1
 8003f4a:	f7fd f951 	bl	80011f0 <_test_assert>
 8003f4e:	2800      	cmp	r0, #0
 8003f50:	d1c0      	bne.n	8003ed4 <oslib_test_008_001_execute+0x24>
    test_assert(total_size >= ALLOC_SIZE, "unexpected heap state");
 8003f52:	49a7      	ldr	r1, [pc, #668]	; (80041f0 <oslib_test_008_001_execute+0x340>)
 8003f54:	9801      	ldr	r0, [sp, #4]
 8003f56:	280f      	cmp	r0, #15
 8003f58:	bf94      	ite	ls
 8003f5a:	2000      	movls	r0, #0
 8003f5c:	2001      	movhi	r0, #1
 8003f5e:	f7fd f947 	bl	80011f0 <_test_assert>
 8003f62:	2800      	cmp	r0, #0
 8003f64:	d1b6      	bne.n	8003ed4 <oslib_test_008_001_execute+0x24>
    test_assert(total_size == largest_size, "unexpected heap state");
 8003f66:	49a2      	ldr	r1, [pc, #648]	; (80041f0 <oslib_test_008_001_execute+0x340>)
 8003f68:	9801      	ldr	r0, [sp, #4]
 8003f6a:	9b00      	ldr	r3, [sp, #0]
 8003f6c:	4298      	cmp	r0, r3
 8003f6e:	bf14      	ite	ne
 8003f70:	2000      	movne	r0, #0
 8003f72:	2001      	moveq	r0, #1
 8003f74:	f7fd f93c 	bl	80011f0 <_test_assert>
 8003f78:	2800      	cmp	r0, #0
 8003f7a:	d1ab      	bne.n	8003ed4 <oslib_test_008_001_execute+0x24>
  test_set_step(5);
 8003f7c:	4b97      	ldr	r3, [pc, #604]	; (80041dc <oslib_test_008_001_execute+0x32c>)
 8003f7e:	2205      	movs	r2, #5
 8003f80:	601a      	str	r2, [r3, #0]
 8003f82:	4c97      	ldr	r4, [pc, #604]	; (80041e0 <oslib_test_008_001_execute+0x330>)
 8003f84:	2208      	movs	r2, #8
 8003f86:	2110      	movs	r1, #16
 8003f88:	4620      	mov	r0, r4
 8003f8a:	f7ff fee1 	bl	8003d50 <chHeapAllocAligned>
 8003f8e:	4607      	mov	r7, r0
 8003f90:	2208      	movs	r2, #8
 8003f92:	2110      	movs	r1, #16
 8003f94:	4620      	mov	r0, r4
 8003f96:	f7ff fedb 	bl	8003d50 <chHeapAllocAligned>
 8003f9a:	4606      	mov	r6, r0
 8003f9c:	2208      	movs	r2, #8
 8003f9e:	2110      	movs	r1, #16
 8003fa0:	4620      	mov	r0, r4
 8003fa2:	f7ff fed5 	bl	8003d50 <chHeapAllocAligned>
 8003fa6:	4605      	mov	r5, r0
    chHeapFree(p1);                                 /* Does not merge.*/
 8003fa8:	4638      	mov	r0, r7
 8003faa:	f7ff fd01 	bl	80039b0 <chHeapFree>
    chHeapFree(p2);                                 /* Merges backward.*/
 8003fae:	4630      	mov	r0, r6
 8003fb0:	f7ff fcfe 	bl	80039b0 <chHeapFree>
    chHeapFree(p3);                                 /* Merges both sides.*/
 8003fb4:	4628      	mov	r0, r5
 8003fb6:	f7ff fcfb 	bl	80039b0 <chHeapFree>
    test_assert(chHeapStatus(&test_heap, &n, NULL) == 1, "heap fragmented");
 8003fba:	2200      	movs	r2, #0
 8003fbc:	a903      	add	r1, sp, #12
 8003fbe:	4620      	mov	r0, r4
 8003fc0:	f7ff fc8e 	bl	80038e0 <chHeapStatus>
 8003fc4:	498b      	ldr	r1, [pc, #556]	; (80041f4 <oslib_test_008_001_execute+0x344>)
 8003fc6:	2801      	cmp	r0, #1
 8003fc8:	bf14      	ite	ne
 8003fca:	2000      	movne	r0, #0
 8003fcc:	2001      	moveq	r0, #1
 8003fce:	f7fd f90f 	bl	80011f0 <_test_assert>
 8003fd2:	2800      	cmp	r0, #0
 8003fd4:	f47f af7e 	bne.w	8003ed4 <oslib_test_008_001_execute+0x24>
  test_set_step(6);
 8003fd8:	4b80      	ldr	r3, [pc, #512]	; (80041dc <oslib_test_008_001_execute+0x32c>)
 8003fda:	2206      	movs	r2, #6
 8003fdc:	601a      	str	r2, [r3, #0]
 8003fde:	2208      	movs	r2, #8
 8003fe0:	2110      	movs	r1, #16
 8003fe2:	4620      	mov	r0, r4
 8003fe4:	f7ff feb4 	bl	8003d50 <chHeapAllocAligned>
 8003fe8:	4605      	mov	r5, r0
 8003fea:	2208      	movs	r2, #8
 8003fec:	2110      	movs	r1, #16
 8003fee:	4620      	mov	r0, r4
 8003ff0:	f7ff feae 	bl	8003d50 <chHeapAllocAligned>
 8003ff4:	4606      	mov	r6, r0
 8003ff6:	2208      	movs	r2, #8
 8003ff8:	2110      	movs	r1, #16
 8003ffa:	4620      	mov	r0, r4
 8003ffc:	f7ff fea8 	bl	8003d50 <chHeapAllocAligned>
    chHeapFree(p3);                                 /* Merges forward.*/
 8004000:	f7ff fcd6 	bl	80039b0 <chHeapFree>
    chHeapFree(p2);                                 /* Merges forward.*/
 8004004:	4630      	mov	r0, r6
 8004006:	f7ff fcd3 	bl	80039b0 <chHeapFree>
    chHeapFree(p1);                                 /* Merges forward.*/
 800400a:	4628      	mov	r0, r5
 800400c:	f7ff fcd0 	bl	80039b0 <chHeapFree>
    test_assert(chHeapStatus(&test_heap, &n, NULL) == 1, "heap fragmented");
 8004010:	2200      	movs	r2, #0
 8004012:	a903      	add	r1, sp, #12
 8004014:	4620      	mov	r0, r4
 8004016:	f7ff fc63 	bl	80038e0 <chHeapStatus>
 800401a:	4976      	ldr	r1, [pc, #472]	; (80041f4 <oslib_test_008_001_execute+0x344>)
 800401c:	2801      	cmp	r0, #1
 800401e:	bf14      	ite	ne
 8004020:	2000      	movne	r0, #0
 8004022:	2001      	moveq	r0, #1
 8004024:	f7fd f8e4 	bl	80011f0 <_test_assert>
 8004028:	2800      	cmp	r0, #0
 800402a:	f47f af53 	bne.w	8003ed4 <oslib_test_008_001_execute+0x24>
  test_set_step(7);
 800402e:	4b6b      	ldr	r3, [pc, #428]	; (80041dc <oslib_test_008_001_execute+0x32c>)
 8004030:	2207      	movs	r2, #7
 8004032:	601a      	str	r2, [r3, #0]
 8004034:	2208      	movs	r2, #8
 8004036:	2111      	movs	r1, #17
 8004038:	4620      	mov	r0, r4
 800403a:	f7ff fe89 	bl	8003d50 <chHeapAllocAligned>
 800403e:	4605      	mov	r5, r0
 8004040:	2208      	movs	r2, #8
 8004042:	2110      	movs	r1, #16
 8004044:	4620      	mov	r0, r4
 8004046:	f7ff fe83 	bl	8003d50 <chHeapAllocAligned>
 800404a:	4606      	mov	r6, r0
    chHeapFree(p1);
 800404c:	4628      	mov	r0, r5
 800404e:	f7ff fcaf 	bl	80039b0 <chHeapFree>
    test_assert(chHeapStatus(&test_heap, &n, NULL) == 2, "invalid state");
 8004052:	2200      	movs	r2, #0
 8004054:	a903      	add	r1, sp, #12
 8004056:	4620      	mov	r0, r4
 8004058:	f7ff fc42 	bl	80038e0 <chHeapStatus>
 800405c:	4966      	ldr	r1, [pc, #408]	; (80041f8 <oslib_test_008_001_execute+0x348>)
 800405e:	2802      	cmp	r0, #2
 8004060:	bf14      	ite	ne
 8004062:	2000      	movne	r0, #0
 8004064:	2001      	moveq	r0, #1
 8004066:	f7fd f8c3 	bl	80011f0 <_test_assert>
 800406a:	2800      	cmp	r0, #0
 800406c:	f47f af32 	bne.w	8003ed4 <oslib_test_008_001_execute+0x24>
 8004070:	4625      	mov	r5, r4
 8004072:	2208      	movs	r2, #8
 8004074:	2110      	movs	r1, #16
 8004076:	4620      	mov	r0, r4
 8004078:	f7ff fe6a 	bl	8003d50 <chHeapAllocAligned>
 800407c:	4604      	mov	r4, r0
    test_assert((chHeapStatus(&test_heap, &n, NULL) == 1) ||
 800407e:	2200      	movs	r2, #0
 8004080:	a903      	add	r1, sp, #12
 8004082:	4628      	mov	r0, r5
 8004084:	f7ff fc2c 	bl	80038e0 <chHeapStatus>
 8004088:	2801      	cmp	r0, #1
 800408a:	f040 809b 	bne.w	80041c4 <oslib_test_008_001_execute+0x314>
 800408e:	2001      	movs	r0, #1
 8004090:	4958      	ldr	r1, [pc, #352]	; (80041f4 <oslib_test_008_001_execute+0x344>)
 8004092:	f7fd f8ad 	bl	80011f0 <_test_assert>
 8004096:	2800      	cmp	r0, #0
 8004098:	f47f af1c 	bne.w	8003ed4 <oslib_test_008_001_execute+0x24>
    chHeapFree(p2);
 800409c:	4630      	mov	r0, r6
 800409e:	f7ff fc87 	bl	80039b0 <chHeapFree>
    chHeapFree(p1);
 80040a2:	4620      	mov	r0, r4
 80040a4:	f7ff fc84 	bl	80039b0 <chHeapFree>
    test_assert(chHeapStatus(&test_heap, &n, NULL) == 1, "heap fragmented");
 80040a8:	2200      	movs	r2, #0
 80040aa:	a903      	add	r1, sp, #12
 80040ac:	484c      	ldr	r0, [pc, #304]	; (80041e0 <oslib_test_008_001_execute+0x330>)
 80040ae:	f7ff fc17 	bl	80038e0 <chHeapStatus>
 80040b2:	4950      	ldr	r1, [pc, #320]	; (80041f4 <oslib_test_008_001_execute+0x344>)
 80040b4:	2801      	cmp	r0, #1
 80040b6:	bf14      	ite	ne
 80040b8:	2000      	movne	r0, #0
 80040ba:	2001      	moveq	r0, #1
 80040bc:	f7fd f898 	bl	80011f0 <_test_assert>
 80040c0:	2800      	cmp	r0, #0
 80040c2:	f47f af07 	bne.w	8003ed4 <oslib_test_008_001_execute+0x24>
  test_set_step(8);
 80040c6:	2408      	movs	r4, #8
 80040c8:	4b44      	ldr	r3, [pc, #272]	; (80041dc <oslib_test_008_001_execute+0x32c>)
 80040ca:	601c      	str	r4, [r3, #0]
 80040cc:	4d44      	ldr	r5, [pc, #272]	; (80041e0 <oslib_test_008_001_execute+0x330>)
 80040ce:	4622      	mov	r2, r4
 80040d0:	2110      	movs	r1, #16
 80040d2:	4628      	mov	r0, r5
 80040d4:	f7ff fe3c 	bl	8003d50 <chHeapAllocAligned>
 80040d8:	4606      	mov	r6, r0
 80040da:	4622      	mov	r2, r4
 80040dc:	2110      	movs	r1, #16
 80040de:	4628      	mov	r0, r5
 80040e0:	f7ff fe36 	bl	8003d50 <chHeapAllocAligned>
 80040e4:	4604      	mov	r4, r0
    chHeapFree(p1);
 80040e6:	4630      	mov	r0, r6
 80040e8:	f7ff fc62 	bl	80039b0 <chHeapFree>
    test_assert( chHeapStatus(&test_heap, &n, NULL) == 2, "invalid state");
 80040ec:	2200      	movs	r2, #0
 80040ee:	a903      	add	r1, sp, #12
 80040f0:	4628      	mov	r0, r5
 80040f2:	f7ff fbf5 	bl	80038e0 <chHeapStatus>
 80040f6:	4940      	ldr	r1, [pc, #256]	; (80041f8 <oslib_test_008_001_execute+0x348>)
 80040f8:	2802      	cmp	r0, #2
 80040fa:	bf14      	ite	ne
 80040fc:	2000      	movne	r0, #0
 80040fe:	2001      	moveq	r0, #1
 8004100:	f7fd f876 	bl	80011f0 <_test_assert>
 8004104:	2800      	cmp	r0, #0
 8004106:	f47f aee5 	bne.w	8003ed4 <oslib_test_008_001_execute+0x24>
 800410a:	2208      	movs	r2, #8
 800410c:	2120      	movs	r1, #32
 800410e:	4628      	mov	r0, r5
 8004110:	f7ff fe1e 	bl	8003d50 <chHeapAllocAligned>
    chHeapFree(p1);
 8004114:	f7ff fc4c 	bl	80039b0 <chHeapFree>
    chHeapFree(p2);
 8004118:	4620      	mov	r0, r4
 800411a:	f7ff fc49 	bl	80039b0 <chHeapFree>
    test_assert(chHeapStatus(&test_heap, &n, NULL) == 1, "heap fragmented");
 800411e:	2200      	movs	r2, #0
 8004120:	a903      	add	r1, sp, #12
 8004122:	4628      	mov	r0, r5
 8004124:	f7ff fbdc 	bl	80038e0 <chHeapStatus>
 8004128:	4932      	ldr	r1, [pc, #200]	; (80041f4 <oslib_test_008_001_execute+0x344>)
 800412a:	2801      	cmp	r0, #1
 800412c:	bf14      	ite	ne
 800412e:	2000      	movne	r0, #0
 8004130:	2001      	moveq	r0, #1
 8004132:	f7fd f85d 	bl	80011f0 <_test_assert>
 8004136:	2800      	cmp	r0, #0
 8004138:	f47f aecc 	bne.w	8003ed4 <oslib_test_008_001_execute+0x24>
  test_set_step(9);
 800413c:	4b27      	ldr	r3, [pc, #156]	; (80041dc <oslib_test_008_001_execute+0x32c>)
 800413e:	2209      	movs	r2, #9
 8004140:	601a      	str	r2, [r3, #0]
    (void)chHeapStatus(&test_heap, &n, NULL);
 8004142:	2200      	movs	r2, #0
 8004144:	a903      	add	r1, sp, #12
 8004146:	4628      	mov	r0, r5
 8004148:	f7ff fbca 	bl	80038e0 <chHeapStatus>
 800414c:	2208      	movs	r2, #8
 800414e:	9903      	ldr	r1, [sp, #12]
 8004150:	4628      	mov	r0, r5
 8004152:	f7ff fdfd 	bl	8003d50 <chHeapAllocAligned>
    test_assert(p1 != NULL, "allocation failed");
 8004156:	4604      	mov	r4, r0
 8004158:	4923      	ldr	r1, [pc, #140]	; (80041e8 <oslib_test_008_001_execute+0x338>)
 800415a:	3800      	subs	r0, #0
 800415c:	bf18      	it	ne
 800415e:	2001      	movne	r0, #1
 8004160:	f7fd f846 	bl	80011f0 <_test_assert>
 8004164:	2800      	cmp	r0, #0
 8004166:	f47f aeb5 	bne.w	8003ed4 <oslib_test_008_001_execute+0x24>
    test_assert(chHeapStatus(&test_heap, NULL, NULL) == 0, "not empty");
 800416a:	2200      	movs	r2, #0
 800416c:	4611      	mov	r1, r2
 800416e:	4628      	mov	r0, r5
 8004170:	f7ff fbb6 	bl	80038e0 <chHeapStatus>
 8004174:	4921      	ldr	r1, [pc, #132]	; (80041fc <oslib_test_008_001_execute+0x34c>)
 8004176:	fab0 f080 	clz	r0, r0
 800417a:	0940      	lsrs	r0, r0, #5
 800417c:	f7fd f838 	bl	80011f0 <_test_assert>
 8004180:	2800      	cmp	r0, #0
 8004182:	f47f aea7 	bne.w	8003ed4 <oslib_test_008_001_execute+0x24>
    chHeapFree(p1);
 8004186:	4620      	mov	r0, r4
 8004188:	f7ff fc12 	bl	80039b0 <chHeapFree>
  test_set_step(10);
 800418c:	4b13      	ldr	r3, [pc, #76]	; (80041dc <oslib_test_008_001_execute+0x32c>)
 800418e:	220a      	movs	r2, #10
 8004190:	601a      	str	r2, [r3, #0]
    test_assert(chHeapStatus(&test_heap, &n, NULL) == 1, "heap fragmented");
 8004192:	2200      	movs	r2, #0
 8004194:	a903      	add	r1, sp, #12
 8004196:	4628      	mov	r0, r5
 8004198:	f7ff fba2 	bl	80038e0 <chHeapStatus>
 800419c:	4915      	ldr	r1, [pc, #84]	; (80041f4 <oslib_test_008_001_execute+0x344>)
 800419e:	2801      	cmp	r0, #1
 80041a0:	bf14      	ite	ne
 80041a2:	2000      	movne	r0, #0
 80041a4:	2001      	moveq	r0, #1
 80041a6:	f7fd f823 	bl	80011f0 <_test_assert>
 80041aa:	2800      	cmp	r0, #0
 80041ac:	f47f ae92 	bne.w	8003ed4 <oslib_test_008_001_execute+0x24>
    test_assert(n == sz, "size changed");
 80041b0:	4913      	ldr	r1, [pc, #76]	; (8004200 <oslib_test_008_001_execute+0x350>)
 80041b2:	9803      	ldr	r0, [sp, #12]
 80041b4:	9b02      	ldr	r3, [sp, #8]
 80041b6:	4298      	cmp	r0, r3
 80041b8:	bf14      	ite	ne
 80041ba:	2000      	movne	r0, #0
 80041bc:	2001      	moveq	r0, #1
 80041be:	f7fd f817 	bl	80011f0 <_test_assert>
 80041c2:	e687      	b.n	8003ed4 <oslib_test_008_001_execute+0x24>
    test_assert((chHeapStatus(&test_heap, &n, NULL) == 1) ||
 80041c4:	2200      	movs	r2, #0
 80041c6:	a903      	add	r1, sp, #12
 80041c8:	4628      	mov	r0, r5
 80041ca:	f7ff fb89 	bl	80038e0 <chHeapStatus>
 80041ce:	2802      	cmp	r0, #2
 80041d0:	d001      	beq.n	80041d6 <oslib_test_008_001_execute+0x326>
 80041d2:	2000      	movs	r0, #0
 80041d4:	e75c      	b.n	8004090 <oslib_test_008_001_execute+0x1e0>
 80041d6:	2001      	movs	r0, #1
 80041d8:	e75a      	b.n	8004090 <oslib_test_008_001_execute+0x1e0>
 80041da:	bf00      	nop
 80041dc:	20001a7c 	.word	0x20001a7c
 80041e0:	200019dc 	.word	0x200019dc
 80041e4:	0800c714 	.word	0x0800c714
 80041e8:	0800c700 	.word	0x0800c700
 80041ec:	0800c73c 	.word	0x0800c73c
 80041f0:	0800c750 	.word	0x0800c750
 80041f4:	0800c72c 	.word	0x0800c72c
 80041f8:	0800c768 	.word	0x0800c768
 80041fc:	0800c778 	.word	0x0800c778
 8004200:	0800c784 	.word	0x0800c784
	...

08004210 <dyn_create_object_heap>:
                                             size_t size) {
 8004210:	b570      	push	{r4, r5, r6, lr}
 8004212:	4605      	mov	r5, r0
 8004214:	460e      	mov	r6, r1
 8004216:	4614      	mov	r4, r2
  dep = dyn_list_find(name, dlp);
 8004218:	f7fe fd8a 	bl	8002d30 <dyn_list_find>
  if (dep != NULL) {
 800421c:	b980      	cbnz	r0, 8004240 <dyn_create_object_heap+0x30>
 800421e:	2208      	movs	r2, #8
 8004220:	4621      	mov	r1, r4
 8004222:	f7ff fd95 	bl	8003d50 <chHeapAllocAligned>
  if (dep == NULL) {
 8004226:	4604      	mov	r4, r0
 8004228:	b158      	cbz	r0, 8004242 <dyn_create_object_heap+0x32>
  strncpy(dep->name, name, CH_CFG_FACTORY_MAX_NAMES_LENGTH);
 800422a:	2208      	movs	r2, #8
 800422c:	4629      	mov	r1, r5
 800422e:	4410      	add	r0, r2
 8004230:	f007 f910 	bl	800b454 <strncpy>
  dep->refs = (ucnt_t)1;
 8004234:	2301      	movs	r3, #1
 8004236:	6063      	str	r3, [r4, #4]
  dep->next = dlp->next;
 8004238:	6833      	ldr	r3, [r6, #0]
 800423a:	6023      	str	r3, [r4, #0]
  dlp->next = dep;
 800423c:	6034      	str	r4, [r6, #0]
  return dep;
 800423e:	e000      	b.n	8004242 <dyn_create_object_heap+0x32>
    return NULL;
 8004240:	2400      	movs	r4, #0
}
 8004242:	4620      	mov	r0, r4
 8004244:	bd70      	pop	{r4, r5, r6, pc}
 8004246:	bf00      	nop
	...

08004250 <chFactoryCreateMailbox>:
dyn_mailbox_t *chFactoryCreateMailbox(const char *name, size_t n) {
 8004250:	b570      	push	{r4, r5, r6, lr}
 8004252:	4605      	mov	r5, r0
 8004254:	460c      	mov	r4, r1
  F_LOCK();
 8004256:	4e0c      	ldr	r6, [pc, #48]	; (8004288 <chFactoryCreateMailbox+0x38>)
 8004258:	4630      	mov	r0, r6
 800425a:	f7ff f801 	bl	8003260 <chMtxLock>
                                                sizeof (dyn_mailbox_t) +
 800425e:	f104 020e 	add.w	r2, r4, #14
  dmp = (dyn_mailbox_t *)dyn_create_object_heap(name,
 8004262:	0092      	lsls	r2, r2, #2
 8004264:	f106 013c 	add.w	r1, r6, #60	; 0x3c
 8004268:	4628      	mov	r0, r5
 800426a:	f7ff ffd1 	bl	8004210 <dyn_create_object_heap>
  if (dmp != NULL) {
 800426e:	4605      	mov	r5, r0
 8004270:	b128      	cbz	r0, 800427e <chFactoryCreateMailbox+0x2e>
    chMBObjectInit(&dmp->mbx, (msg_t *)(dmp + 1), n);
 8004272:	4622      	mov	r2, r4
 8004274:	f100 0138 	add.w	r1, r0, #56	; 0x38
 8004278:	3010      	adds	r0, #16
 800427a:	f7fd fb99 	bl	80019b0 <chMBObjectInit>
  F_UNLOCK();
 800427e:	4802      	ldr	r0, [pc, #8]	; (8004288 <chFactoryCreateMailbox+0x38>)
 8004280:	f7fe fe96 	bl	8002fb0 <chMtxUnlock>
}
 8004284:	4628      	mov	r0, r5
 8004286:	bd70      	pop	{r4, r5, r6, pc}
 8004288:	200010b8 	.word	0x200010b8
 800428c:	00000000 	.word	0x00000000

08004290 <oslib_test_009_004_execute>:
static void oslib_test_009_004_execute(void) {
 8004290:	b538      	push	{r3, r4, r5, lr}
  test_set_step(1);
 8004292:	4b47      	ldr	r3, [pc, #284]	; (80043b0 <oslib_test_009_004_execute+0x120>)
 8004294:	2201      	movs	r2, #1
 8004296:	601a      	str	r2, [r3, #0]
    dmp = chFactoryFindMailbox("mymbx");
 8004298:	4846      	ldr	r0, [pc, #280]	; (80043b4 <oslib_test_009_004_execute+0x124>)
 800429a:	f7ff f859 	bl	8003350 <chFactoryFindMailbox>
    test_assert(dmp == NULL, "found");
 800429e:	4946      	ldr	r1, [pc, #280]	; (80043b8 <oslib_test_009_004_execute+0x128>)
 80042a0:	fab0 f080 	clz	r0, r0
 80042a4:	0940      	lsrs	r0, r0, #5
 80042a6:	f7fc ffa3 	bl	80011f0 <_test_assert>
 80042aa:	b100      	cbz	r0, 80042ae <oslib_test_009_004_execute+0x1e>
}
 80042ac:	bd38      	pop	{r3, r4, r5, pc}
  test_set_step(2);
 80042ae:	4b40      	ldr	r3, [pc, #256]	; (80043b0 <oslib_test_009_004_execute+0x120>)
 80042b0:	2202      	movs	r2, #2
 80042b2:	601a      	str	r2, [r3, #0]
    dmp = chFactoryCreateMailbox("mymbx", 16U);
 80042b4:	2110      	movs	r1, #16
 80042b6:	483f      	ldr	r0, [pc, #252]	; (80043b4 <oslib_test_009_004_execute+0x124>)
 80042b8:	f7ff ffca 	bl	8004250 <chFactoryCreateMailbox>
    test_assert(dmp != NULL, "cannot create");
 80042bc:	4604      	mov	r4, r0
 80042be:	493f      	ldr	r1, [pc, #252]	; (80043bc <oslib_test_009_004_execute+0x12c>)
 80042c0:	3800      	subs	r0, #0
 80042c2:	bf18      	it	ne
 80042c4:	2001      	movne	r0, #1
 80042c6:	f7fc ff93 	bl	80011f0 <_test_assert>
 80042ca:	2800      	cmp	r0, #0
 80042cc:	d1ee      	bne.n	80042ac <oslib_test_009_004_execute+0x1c>
  test_set_step(3);
 80042ce:	4b38      	ldr	r3, [pc, #224]	; (80043b0 <oslib_test_009_004_execute+0x120>)
 80042d0:	2203      	movs	r2, #3
 80042d2:	601a      	str	r2, [r3, #0]
    dmp1 = chFactoryCreateMailbox("mymbx", 16U);
 80042d4:	2110      	movs	r1, #16
 80042d6:	4837      	ldr	r0, [pc, #220]	; (80043b4 <oslib_test_009_004_execute+0x124>)
 80042d8:	f7ff ffba 	bl	8004250 <chFactoryCreateMailbox>
    test_assert(dmp1 == NULL, "can create");
 80042dc:	4938      	ldr	r1, [pc, #224]	; (80043c0 <oslib_test_009_004_execute+0x130>)
 80042de:	fab0 f080 	clz	r0, r0
 80042e2:	0940      	lsrs	r0, r0, #5
 80042e4:	f7fc ff84 	bl	80011f0 <_test_assert>
 80042e8:	2800      	cmp	r0, #0
 80042ea:	d1df      	bne.n	80042ac <oslib_test_009_004_execute+0x1c>
  test_set_step(4);
 80042ec:	4b30      	ldr	r3, [pc, #192]	; (80043b0 <oslib_test_009_004_execute+0x120>)
 80042ee:	2204      	movs	r2, #4
 80042f0:	601a      	str	r2, [r3, #0]
    dmp1 = chFactoryFindMailbox("mymbx");
 80042f2:	4830      	ldr	r0, [pc, #192]	; (80043b4 <oslib_test_009_004_execute+0x124>)
 80042f4:	f7ff f82c 	bl	8003350 <chFactoryFindMailbox>
    test_assert(dmp1 != NULL, "not found");
 80042f8:	4605      	mov	r5, r0
 80042fa:	4932      	ldr	r1, [pc, #200]	; (80043c4 <oslib_test_009_004_execute+0x134>)
 80042fc:	3800      	subs	r0, #0
 80042fe:	bf18      	it	ne
 8004300:	2001      	movne	r0, #1
 8004302:	f7fc ff75 	bl	80011f0 <_test_assert>
 8004306:	2800      	cmp	r0, #0
 8004308:	d1d0      	bne.n	80042ac <oslib_test_009_004_execute+0x1c>
    test_assert(dmp == dmp1, "object reference mismatch");
 800430a:	492f      	ldr	r1, [pc, #188]	; (80043c8 <oslib_test_009_004_execute+0x138>)
 800430c:	42ac      	cmp	r4, r5
 800430e:	bf14      	ite	ne
 8004310:	2000      	movne	r0, #0
 8004312:	2001      	moveq	r0, #1
 8004314:	f7fc ff6c 	bl	80011f0 <_test_assert>
 8004318:	2800      	cmp	r0, #0
 800431a:	d1c7      	bne.n	80042ac <oslib_test_009_004_execute+0x1c>
    test_assert(dmp1->element.refs == 2, "object reference mismatch");
 800431c:	6868      	ldr	r0, [r5, #4]
 800431e:	492a      	ldr	r1, [pc, #168]	; (80043c8 <oslib_test_009_004_execute+0x138>)
 8004320:	2802      	cmp	r0, #2
 8004322:	bf14      	ite	ne
 8004324:	2000      	movne	r0, #0
 8004326:	2001      	moveq	r0, #1
 8004328:	f7fc ff62 	bl	80011f0 <_test_assert>
 800432c:	2800      	cmp	r0, #0
 800432e:	d1bd      	bne.n	80042ac <oslib_test_009_004_execute+0x1c>
 8004330:	686b      	ldr	r3, [r5, #4]
 8004332:	3301      	adds	r3, #1
 8004334:	606b      	str	r3, [r5, #4]
    test_assert(dmp1 == dmp2, "object reference mismatch");
 8004336:	4924      	ldr	r1, [pc, #144]	; (80043c8 <oslib_test_009_004_execute+0x138>)
 8004338:	2001      	movs	r0, #1
 800433a:	f7fc ff59 	bl	80011f0 <_test_assert>
 800433e:	2800      	cmp	r0, #0
 8004340:	d1b4      	bne.n	80042ac <oslib_test_009_004_execute+0x1c>
    test_assert(dmp2->element.refs == 3, "object reference mismatch");
 8004342:	6868      	ldr	r0, [r5, #4]
 8004344:	4920      	ldr	r1, [pc, #128]	; (80043c8 <oslib_test_009_004_execute+0x138>)
 8004346:	2803      	cmp	r0, #3
 8004348:	bf14      	ite	ne
 800434a:	2000      	movne	r0, #0
 800434c:	2001      	moveq	r0, #1
 800434e:	f7fc ff4f 	bl	80011f0 <_test_assert>
 8004352:	2800      	cmp	r0, #0
 8004354:	d1aa      	bne.n	80042ac <oslib_test_009_004_execute+0x1c>
    chFactoryReleaseMailbox(dmp2);
 8004356:	4628      	mov	r0, r5
 8004358:	f7ff fbd2 	bl	8003b00 <chFactoryReleaseMailbox>
    test_assert(dmp1->element.refs == 2, "references mismatch");
 800435c:	6868      	ldr	r0, [r5, #4]
 800435e:	491b      	ldr	r1, [pc, #108]	; (80043cc <oslib_test_009_004_execute+0x13c>)
 8004360:	2802      	cmp	r0, #2
 8004362:	bf14      	ite	ne
 8004364:	2000      	movne	r0, #0
 8004366:	2001      	moveq	r0, #1
 8004368:	f7fc ff42 	bl	80011f0 <_test_assert>
 800436c:	2800      	cmp	r0, #0
 800436e:	d19d      	bne.n	80042ac <oslib_test_009_004_execute+0x1c>
    chFactoryReleaseMailbox(dmp1);
 8004370:	4628      	mov	r0, r5
 8004372:	f7ff fbc5 	bl	8003b00 <chFactoryReleaseMailbox>
    test_assert(dmp->element.refs == 1, "references mismatch");
 8004376:	6860      	ldr	r0, [r4, #4]
 8004378:	4914      	ldr	r1, [pc, #80]	; (80043cc <oslib_test_009_004_execute+0x13c>)
 800437a:	2801      	cmp	r0, #1
 800437c:	bf14      	ite	ne
 800437e:	2000      	movne	r0, #0
 8004380:	2001      	moveq	r0, #1
 8004382:	f7fc ff35 	bl	80011f0 <_test_assert>
 8004386:	2800      	cmp	r0, #0
 8004388:	d190      	bne.n	80042ac <oslib_test_009_004_execute+0x1c>
  test_set_step(5);
 800438a:	4d09      	ldr	r5, [pc, #36]	; (80043b0 <oslib_test_009_004_execute+0x120>)
 800438c:	2305      	movs	r3, #5
 800438e:	602b      	str	r3, [r5, #0]
    chFactoryReleaseMailbox(dmp);
 8004390:	4620      	mov	r0, r4
 8004392:	f7ff fbb5 	bl	8003b00 <chFactoryReleaseMailbox>
  test_set_step(6);
 8004396:	2306      	movs	r3, #6
 8004398:	602b      	str	r3, [r5, #0]
    dmp = chFactoryFindMailbox("mymbx");
 800439a:	4806      	ldr	r0, [pc, #24]	; (80043b4 <oslib_test_009_004_execute+0x124>)
 800439c:	f7fe ffd8 	bl	8003350 <chFactoryFindMailbox>
    test_assert(dmp == NULL, "found");
 80043a0:	4905      	ldr	r1, [pc, #20]	; (80043b8 <oslib_test_009_004_execute+0x128>)
 80043a2:	fab0 f080 	clz	r0, r0
 80043a6:	0940      	lsrs	r0, r0, #5
 80043a8:	f7fc ff22 	bl	80011f0 <_test_assert>
  test_end_step(6);
 80043ac:	e77e      	b.n	80042ac <oslib_test_009_004_execute+0x1c>
 80043ae:	bf00      	nop
 80043b0:	20001a7c 	.word	0x20001a7c
 80043b4:	0800c688 	.word	0x0800c688
 80043b8:	0800c58c 	.word	0x0800c58c
 80043bc:	0800c56c 	.word	0x0800c56c
 80043c0:	0800c57c 	.word	0x0800c57c
 80043c4:	0800c588 	.word	0x0800c588
 80043c8:	0800c594 	.word	0x0800c594
 80043cc:	0800c5b0 	.word	0x0800c5b0

080043d0 <chFactoryCreateBuffer>:
dyn_buffer_t *chFactoryCreateBuffer(const char *name, size_t size) {
 80043d0:	b570      	push	{r4, r5, r6, lr}
 80043d2:	4605      	mov	r5, r0
 80043d4:	460c      	mov	r4, r1
  F_LOCK();
 80043d6:	4e0b      	ldr	r6, [pc, #44]	; (8004404 <chFactoryCreateBuffer+0x34>)
 80043d8:	4630      	mov	r0, r6
 80043da:	f7fe ff41 	bl	8003260 <chMtxLock>
  dbp = (dyn_buffer_t *)dyn_create_object_heap(name,
 80043de:	4622      	mov	r2, r4
 80043e0:	f106 0124 	add.w	r1, r6, #36	; 0x24
 80043e4:	4628      	mov	r0, r5
 80043e6:	f7ff ff13 	bl	8004210 <dyn_create_object_heap>
  if (dbp != NULL) {
 80043ea:	4605      	mov	r5, r0
 80043ec:	b120      	cbz	r0, 80043f8 <chFactoryCreateBuffer+0x28>
    memset((void *)(dbp + 1), 0, size);
 80043ee:	4622      	mov	r2, r4
 80043f0:	2100      	movs	r1, #0
 80043f2:	3010      	adds	r0, #16
 80043f4:	f006 ff38 	bl	800b268 <memset>
  F_UNLOCK();
 80043f8:	4802      	ldr	r0, [pc, #8]	; (8004404 <chFactoryCreateBuffer+0x34>)
 80043fa:	f7fe fdd9 	bl	8002fb0 <chMtxUnlock>
}
 80043fe:	4628      	mov	r0, r5
 8004400:	bd70      	pop	{r4, r5, r6, pc}
 8004402:	bf00      	nop
 8004404:	200010b8 	.word	0x200010b8
	...

08004410 <oslib_test_009_002_execute>:
static void oslib_test_009_002_execute(void) {
 8004410:	b538      	push	{r3, r4, r5, lr}
  test_set_step(1);
 8004412:	4b47      	ldr	r3, [pc, #284]	; (8004530 <oslib_test_009_002_execute+0x120>)
 8004414:	2201      	movs	r2, #1
 8004416:	601a      	str	r2, [r3, #0]
    dbp = chFactoryFindBuffer("mybuf");
 8004418:	4846      	ldr	r0, [pc, #280]	; (8004534 <oslib_test_009_002_execute+0x124>)
 800441a:	f7ff f8b1 	bl	8003580 <chFactoryFindBuffer>
    test_assert(dbp == NULL, "found");
 800441e:	4946      	ldr	r1, [pc, #280]	; (8004538 <oslib_test_009_002_execute+0x128>)
 8004420:	fab0 f080 	clz	r0, r0
 8004424:	0940      	lsrs	r0, r0, #5
 8004426:	f7fc fee3 	bl	80011f0 <_test_assert>
 800442a:	b100      	cbz	r0, 800442e <oslib_test_009_002_execute+0x1e>
}
 800442c:	bd38      	pop	{r3, r4, r5, pc}
  test_set_step(2);
 800442e:	4b40      	ldr	r3, [pc, #256]	; (8004530 <oslib_test_009_002_execute+0x120>)
 8004430:	2202      	movs	r2, #2
 8004432:	601a      	str	r2, [r3, #0]
    dbp = chFactoryCreateBuffer("mybuf", 128U);
 8004434:	2180      	movs	r1, #128	; 0x80
 8004436:	483f      	ldr	r0, [pc, #252]	; (8004534 <oslib_test_009_002_execute+0x124>)
 8004438:	f7ff ffca 	bl	80043d0 <chFactoryCreateBuffer>
    test_assert(dbp != NULL, "cannot create");
 800443c:	4604      	mov	r4, r0
 800443e:	493f      	ldr	r1, [pc, #252]	; (800453c <oslib_test_009_002_execute+0x12c>)
 8004440:	3800      	subs	r0, #0
 8004442:	bf18      	it	ne
 8004444:	2001      	movne	r0, #1
 8004446:	f7fc fed3 	bl	80011f0 <_test_assert>
 800444a:	2800      	cmp	r0, #0
 800444c:	d1ee      	bne.n	800442c <oslib_test_009_002_execute+0x1c>
  test_set_step(3);
 800444e:	4b38      	ldr	r3, [pc, #224]	; (8004530 <oslib_test_009_002_execute+0x120>)
 8004450:	2203      	movs	r2, #3
 8004452:	601a      	str	r2, [r3, #0]
    dbp1 = chFactoryCreateBuffer("mybuf", 128U);
 8004454:	2180      	movs	r1, #128	; 0x80
 8004456:	4837      	ldr	r0, [pc, #220]	; (8004534 <oslib_test_009_002_execute+0x124>)
 8004458:	f7ff ffba 	bl	80043d0 <chFactoryCreateBuffer>
    test_assert(dbp1 == NULL, "can create");
 800445c:	4938      	ldr	r1, [pc, #224]	; (8004540 <oslib_test_009_002_execute+0x130>)
 800445e:	fab0 f080 	clz	r0, r0
 8004462:	0940      	lsrs	r0, r0, #5
 8004464:	f7fc fec4 	bl	80011f0 <_test_assert>
 8004468:	2800      	cmp	r0, #0
 800446a:	d1df      	bne.n	800442c <oslib_test_009_002_execute+0x1c>
  test_set_step(4);
 800446c:	4b30      	ldr	r3, [pc, #192]	; (8004530 <oslib_test_009_002_execute+0x120>)
 800446e:	2204      	movs	r2, #4
 8004470:	601a      	str	r2, [r3, #0]
    dbp1 = chFactoryFindBuffer("mybuf");
 8004472:	4830      	ldr	r0, [pc, #192]	; (8004534 <oslib_test_009_002_execute+0x124>)
 8004474:	f7ff f884 	bl	8003580 <chFactoryFindBuffer>
    test_assert(dbp1 != NULL, "not found");
 8004478:	4605      	mov	r5, r0
 800447a:	4932      	ldr	r1, [pc, #200]	; (8004544 <oslib_test_009_002_execute+0x134>)
 800447c:	3800      	subs	r0, #0
 800447e:	bf18      	it	ne
 8004480:	2001      	movne	r0, #1
 8004482:	f7fc feb5 	bl	80011f0 <_test_assert>
 8004486:	2800      	cmp	r0, #0
 8004488:	d1d0      	bne.n	800442c <oslib_test_009_002_execute+0x1c>
    test_assert(dbp == dbp1, "object reference mismatch");
 800448a:	492f      	ldr	r1, [pc, #188]	; (8004548 <oslib_test_009_002_execute+0x138>)
 800448c:	42ac      	cmp	r4, r5
 800448e:	bf14      	ite	ne
 8004490:	2000      	movne	r0, #0
 8004492:	2001      	moveq	r0, #1
 8004494:	f7fc feac 	bl	80011f0 <_test_assert>
 8004498:	2800      	cmp	r0, #0
 800449a:	d1c7      	bne.n	800442c <oslib_test_009_002_execute+0x1c>
    test_assert(dbp1->element.refs == 2, "object reference mismatch");
 800449c:	6868      	ldr	r0, [r5, #4]
 800449e:	492a      	ldr	r1, [pc, #168]	; (8004548 <oslib_test_009_002_execute+0x138>)
 80044a0:	2802      	cmp	r0, #2
 80044a2:	bf14      	ite	ne
 80044a4:	2000      	movne	r0, #0
 80044a6:	2001      	moveq	r0, #1
 80044a8:	f7fc fea2 	bl	80011f0 <_test_assert>
 80044ac:	2800      	cmp	r0, #0
 80044ae:	d1bd      	bne.n	800442c <oslib_test_009_002_execute+0x1c>
 80044b0:	686b      	ldr	r3, [r5, #4]
 80044b2:	3301      	adds	r3, #1
 80044b4:	606b      	str	r3, [r5, #4]
    test_assert(dbp1 == dbp2, "object reference mismatch");
 80044b6:	4924      	ldr	r1, [pc, #144]	; (8004548 <oslib_test_009_002_execute+0x138>)
 80044b8:	2001      	movs	r0, #1
 80044ba:	f7fc fe99 	bl	80011f0 <_test_assert>
 80044be:	2800      	cmp	r0, #0
 80044c0:	d1b4      	bne.n	800442c <oslib_test_009_002_execute+0x1c>
    test_assert(dbp2->element.refs == 3, "object reference mismatch");
 80044c2:	6868      	ldr	r0, [r5, #4]
 80044c4:	4920      	ldr	r1, [pc, #128]	; (8004548 <oslib_test_009_002_execute+0x138>)
 80044c6:	2803      	cmp	r0, #3
 80044c8:	bf14      	ite	ne
 80044ca:	2000      	movne	r0, #0
 80044cc:	2001      	moveq	r0, #1
 80044ce:	f7fc fe8f 	bl	80011f0 <_test_assert>
 80044d2:	2800      	cmp	r0, #0
 80044d4:	d1aa      	bne.n	800442c <oslib_test_009_002_execute+0x1c>
    chFactoryReleaseBuffer(dbp2);
 80044d6:	4628      	mov	r0, r5
 80044d8:	f7ff fb3a 	bl	8003b50 <chFactoryReleaseBuffer>
    test_assert(dbp1->element.refs == 2, "references mismatch");
 80044dc:	6868      	ldr	r0, [r5, #4]
 80044de:	491b      	ldr	r1, [pc, #108]	; (800454c <oslib_test_009_002_execute+0x13c>)
 80044e0:	2802      	cmp	r0, #2
 80044e2:	bf14      	ite	ne
 80044e4:	2000      	movne	r0, #0
 80044e6:	2001      	moveq	r0, #1
 80044e8:	f7fc fe82 	bl	80011f0 <_test_assert>
 80044ec:	2800      	cmp	r0, #0
 80044ee:	d19d      	bne.n	800442c <oslib_test_009_002_execute+0x1c>
    chFactoryReleaseBuffer(dbp1);
 80044f0:	4628      	mov	r0, r5
 80044f2:	f7ff fb2d 	bl	8003b50 <chFactoryReleaseBuffer>
    test_assert(dbp->element.refs == 1, "references mismatch");
 80044f6:	6860      	ldr	r0, [r4, #4]
 80044f8:	4914      	ldr	r1, [pc, #80]	; (800454c <oslib_test_009_002_execute+0x13c>)
 80044fa:	2801      	cmp	r0, #1
 80044fc:	bf14      	ite	ne
 80044fe:	2000      	movne	r0, #0
 8004500:	2001      	moveq	r0, #1
 8004502:	f7fc fe75 	bl	80011f0 <_test_assert>
 8004506:	2800      	cmp	r0, #0
 8004508:	d190      	bne.n	800442c <oslib_test_009_002_execute+0x1c>
  test_set_step(5);
 800450a:	4d09      	ldr	r5, [pc, #36]	; (8004530 <oslib_test_009_002_execute+0x120>)
 800450c:	2305      	movs	r3, #5
 800450e:	602b      	str	r3, [r5, #0]
    chFactoryReleaseBuffer(dbp);
 8004510:	4620      	mov	r0, r4
 8004512:	f7ff fb1d 	bl	8003b50 <chFactoryReleaseBuffer>
  test_set_step(6);
 8004516:	2306      	movs	r3, #6
 8004518:	602b      	str	r3, [r5, #0]
    dbp = chFactoryFindBuffer("mybuf");
 800451a:	4806      	ldr	r0, [pc, #24]	; (8004534 <oslib_test_009_002_execute+0x124>)
 800451c:	f7ff f830 	bl	8003580 <chFactoryFindBuffer>
    test_assert(dbp == NULL, "found");
 8004520:	4905      	ldr	r1, [pc, #20]	; (8004538 <oslib_test_009_002_execute+0x128>)
 8004522:	fab0 f080 	clz	r0, r0
 8004526:	0940      	lsrs	r0, r0, #5
 8004528:	f7fc fe62 	bl	80011f0 <_test_assert>
  test_end_step(6);
 800452c:	e77e      	b.n	800442c <oslib_test_009_002_execute+0x1c>
 800452e:	bf00      	nop
 8004530:	20001a7c 	.word	0x20001a7c
 8004534:	0800c690 	.word	0x0800c690
 8004538:	0800c58c 	.word	0x0800c58c
 800453c:	0800c56c 	.word	0x0800c56c
 8004540:	0800c57c 	.word	0x0800c57c
 8004544:	0800c588 	.word	0x0800c588
 8004548:	0800c594 	.word	0x0800c594
 800454c:	0800c5b0 	.word	0x0800c5b0

08004550 <chSemSignalWait>:
 *                      semaphore has been signaled.
 * @retval MSG_RESET    if the semaphore has been reset using @p chSemReset().
 *
 * @api
 */
msg_t chSemSignalWait(semaphore_t *sps, semaphore_t *spw) {
 8004550:	b538      	push	{r3, r4, r5, lr}
 8004552:	460c      	mov	r4, r1
 8004554:	2220      	movs	r2, #32
 8004556:	f382 8811 	msr	BASEPRI, r2
              ((sps->cnt < (cnt_t)0) && queue_notempty(&sps->queue)),
              "inconsistent semaphore");
  chDbgAssert(((spw->cnt >= (cnt_t)0) && queue_isempty(&spw->queue)) ||
              ((spw->cnt < (cnt_t)0) && queue_notempty(&spw->queue)),
              "inconsistent semaphore");
  if (++sps->cnt <= (cnt_t)0) {
 800455a:	6882      	ldr	r2, [r0, #8]
 800455c:	3201      	adds	r2, #1
 800455e:	6082      	str	r2, [r0, #8]
 8004560:	2a00      	cmp	r2, #0
 8004562:	dd0b      	ble.n	800457c <chSemSignalWait+0x2c>
    chSchReadyI(queue_fifo_remove(&sps->queue))->u.rdymsg = MSG_OK;
  }
  if (--spw->cnt < (cnt_t)0) {
 8004564:	68a3      	ldr	r3, [r4, #8]
 8004566:	3b01      	subs	r3, #1
 8004568:	60a3      	str	r3, [r4, #8]
 800456a:	2b00      	cmp	r3, #0
 800456c:	db10      	blt.n	8004590 <chSemSignalWait+0x40>
    ctp->u.wtsemp = spw;
    chSchGoSleepS(CH_STATE_WTSEM);
    msg = ctp->u.rdymsg;
  }
  else {
    chSchRescheduleS();
 800456e:	f005 ff8f 	bl	800a490 <chSchRescheduleS>
    msg = MSG_OK;
 8004572:	2000      	movs	r0, #0
 8004574:	2300      	movs	r3, #0
 8004576:	f383 8811 	msr	BASEPRI, r3
  }
  chSysUnlock();

  return msg;
}
 800457a:	bd38      	pop	{r3, r4, r5, pc}
 800457c:	4603      	mov	r3, r0
  thread_t *tp = tqp->next;
 800457e:	6800      	ldr	r0, [r0, #0]
  tqp->next             = tp->queue.next;
 8004580:	6802      	ldr	r2, [r0, #0]
 8004582:	601a      	str	r2, [r3, #0]
  tqp->next->queue.prev = (thread_t *)tqp;
 8004584:	6053      	str	r3, [r2, #4]
    chSchReadyI(queue_fifo_remove(&sps->queue))->u.rdymsg = MSG_OK;
 8004586:	f005 ffab 	bl	800a4e0 <chSchReadyI>
 800458a:	2300      	movs	r3, #0
 800458c:	6243      	str	r3, [r0, #36]	; 0x24
 800458e:	e7e9      	b.n	8004564 <chSemSignalWait+0x14>
    thread_t *ctp = currp;
 8004590:	4b06      	ldr	r3, [pc, #24]	; (80045ac <chSemSignalWait+0x5c>)
 8004592:	699d      	ldr	r5, [r3, #24]
  tp->queue.next             = (thread_t *)tqp;
 8004594:	602c      	str	r4, [r5, #0]
  tp->queue.prev             = tqp->prev;
 8004596:	6863      	ldr	r3, [r4, #4]
 8004598:	606b      	str	r3, [r5, #4]
  tp->queue.prev->queue.next = tp;
 800459a:	601d      	str	r5, [r3, #0]
  tqp->prev                  = tp;
 800459c:	6065      	str	r5, [r4, #4]
    ctp->u.wtsemp = spw;
 800459e:	626c      	str	r4, [r5, #36]	; 0x24
    chSchGoSleepS(CH_STATE_WTSEM);
 80045a0:	2005      	movs	r0, #5
 80045a2:	f005 ff85 	bl	800a4b0 <chSchGoSleepS>
    msg = ctp->u.rdymsg;
 80045a6:	6a68      	ldr	r0, [r5, #36]	; 0x24
 80045a8:	e7e4      	b.n	8004574 <chSemSignalWait+0x24>
 80045aa:	bf00      	nop
 80045ac:	20001040 	.word	0x20001040

080045b0 <chSemAddCounterI>:
void chSemAddCounterI(semaphore_t *sp, cnt_t n) {
 80045b0:	b538      	push	{r3, r4, r5, lr}
 80045b2:	4605      	mov	r5, r0
 80045b4:	460c      	mov	r4, r1
  chDbgAssert(((sp->cnt >= (cnt_t)0) && queue_isempty(&sp->queue)) ||
 80045b6:	e000      	b.n	80045ba <chSemAddCounterI+0xa>
    n--;
 80045b8:	3c01      	subs	r4, #1
  while (n > (cnt_t)0) {
 80045ba:	2c00      	cmp	r4, #0
 80045bc:	dd0d      	ble.n	80045da <chSemAddCounterI+0x2a>
    if (++sp->cnt <= (cnt_t)0) {
 80045be:	68ab      	ldr	r3, [r5, #8]
 80045c0:	3301      	adds	r3, #1
 80045c2:	60ab      	str	r3, [r5, #8]
 80045c4:	2b00      	cmp	r3, #0
 80045c6:	dcf7      	bgt.n	80045b8 <chSemAddCounterI+0x8>
  thread_t *tp = tqp->next;
 80045c8:	6828      	ldr	r0, [r5, #0]
  tqp->next             = tp->queue.next;
 80045ca:	6803      	ldr	r3, [r0, #0]
 80045cc:	602b      	str	r3, [r5, #0]
  tqp->next->queue.prev = (thread_t *)tqp;
 80045ce:	605d      	str	r5, [r3, #4]
      chSchReadyI(queue_fifo_remove(&sp->queue))->u.rdymsg = MSG_OK;
 80045d0:	f005 ff86 	bl	800a4e0 <chSchReadyI>
 80045d4:	2300      	movs	r3, #0
 80045d6:	6243      	str	r3, [r0, #36]	; 0x24
 80045d8:	e7ee      	b.n	80045b8 <chSemAddCounterI+0x8>
}
 80045da:	bd38      	pop	{r3, r4, r5, pc}
 80045dc:	0000      	movs	r0, r0
	...

080045e0 <chSemSignalI>:
  if (++sp->cnt <= (cnt_t)0) {
 80045e0:	6882      	ldr	r2, [r0, #8]
 80045e2:	3201      	adds	r2, #1
 80045e4:	6082      	str	r2, [r0, #8]
 80045e6:	2a00      	cmp	r2, #0
 80045e8:	dd00      	ble.n	80045ec <chSemSignalI+0xc>
 80045ea:	4770      	bx	lr
void chSemSignalI(semaphore_t *sp) {
 80045ec:	b508      	push	{r3, lr}
 80045ee:	4603      	mov	r3, r0
  thread_t *tp = tqp->next;
 80045f0:	6800      	ldr	r0, [r0, #0]
  tqp->next             = tp->queue.next;
 80045f2:	6802      	ldr	r2, [r0, #0]
 80045f4:	601a      	str	r2, [r3, #0]
  tqp->next->queue.prev = (thread_t *)tqp;
 80045f6:	6053      	str	r3, [r2, #4]
    tp->u.rdymsg = MSG_OK;
 80045f8:	2300      	movs	r3, #0
 80045fa:	6243      	str	r3, [r0, #36]	; 0x24
    (void) chSchReadyI(tp);
 80045fc:	f005 ff70 	bl	800a4e0 <chSchReadyI>
}
 8004600:	bd08      	pop	{r3, pc}
 8004602:	bf00      	nop
	...

08004610 <thread4>:
static THD_FUNCTION(thread4, p) {
 8004610:	b508      	push	{r3, lr}
 8004612:	2320      	movs	r3, #32
 8004614:	f383 8811 	msr	BASEPRI, r3
 */
static inline void chBSemSignalI(binary_semaphore_t *bsp) {

  chDbgCheckClassI();

  if (bsp->sem.cnt < (cnt_t)1) {
 8004618:	6883      	ldr	r3, [r0, #8]
 800461a:	2b00      	cmp	r3, #0
 800461c:	dd05      	ble.n	800462a <thread4+0x1a>
 */
static inline void chBSemSignal(binary_semaphore_t *bsp) {

  chSysLock();
  chBSemSignalI(bsp);
  chSchRescheduleS();
 800461e:	f005 ff37 	bl	800a490 <chSchRescheduleS>
 8004622:	2300      	movs	r3, #0
 8004624:	f383 8811 	msr	BASEPRI, r3
}
 8004628:	bd08      	pop	{r3, pc}
    chSemSignalI(&bsp->sem);
 800462a:	f7ff ffd9 	bl	80045e0 <chSemSignalI>
 800462e:	e7f6      	b.n	800461e <thread4+0xe>

08004630 <chCacheReleaseObjectI>:
                           oc_object_t *objp) {
 8004630:	b510      	push	{r4, lr}
 8004632:	460c      	mov	r4, r1
  return sp->cnt;
 8004634:	6a0b      	ldr	r3, [r1, #32]
  if (chSemGetCounterI(&objp->obj_sem) < (cnt_t)0) {
 8004636:	2b00      	cmp	r3, #0
 8004638:	db1c      	blt.n	8004674 <chCacheReleaseObjectI+0x44>
  if ((objp->obj_flags & OC_FLAG_NOTSYNC) != 0U) {
 800463a:	6a4b      	ldr	r3, [r1, #36]	; 0x24
 800463c:	f013 0f08 	tst.w	r3, #8
 8004640:	d021      	beq.n	8004686 <chCacheReleaseObjectI+0x56>
    HASH_REMOVE(objp);
 8004642:	684a      	ldr	r2, [r1, #4]
 8004644:	680b      	ldr	r3, [r1, #0]
 8004646:	6013      	str	r3, [r2, #0]
 8004648:	684a      	ldr	r2, [r1, #4]
 800464a:	605a      	str	r2, [r3, #4]
    LRU_INSERT_TAIL(ocp, objp);
 800464c:	6a03      	ldr	r3, [r0, #32]
 800464e:	60cb      	str	r3, [r1, #12]
 8004650:	f100 0314 	add.w	r3, r0, #20
 8004654:	608b      	str	r3, [r1, #8]
 8004656:	6a03      	ldr	r3, [r0, #32]
 8004658:	6099      	str	r1, [r3, #8]
 800465a:	6201      	str	r1, [r0, #32]
    objp->obj_group = 0U;
 800465c:	2300      	movs	r3, #0
 800465e:	610b      	str	r3, [r1, #16]
    objp->obj_key   = 0U;
 8004660:	614b      	str	r3, [r1, #20]
    objp->obj_flags = OC_FLAG_INLRU;
 8004662:	2301      	movs	r3, #1
 8004664:	624b      	str	r3, [r1, #36]	; 0x24
  chSemSignalI(&ocp->lru_sem);
 8004666:	3030      	adds	r0, #48	; 0x30
 8004668:	f7ff ffba 	bl	80045e0 <chSemSignalI>
  sp->cnt++;
 800466c:	6a23      	ldr	r3, [r4, #32]
 800466e:	3301      	adds	r3, #1
 8004670:	6223      	str	r3, [r4, #32]
}
 8004672:	bd10      	pop	{r4, pc}
    objp->obj_flags &= OC_FLAG_INHASH | OC_FLAG_NOTSYNC | OC_FLAG_LAZYWRITE;
 8004674:	6a4b      	ldr	r3, [r1, #36]	; 0x24
 8004676:	f003 031a 	and.w	r3, r3, #26
 800467a:	624b      	str	r3, [r1, #36]	; 0x24
    chSemSignalI(&objp->obj_sem);
 800467c:	f101 0018 	add.w	r0, r1, #24
 8004680:	f7ff ffae 	bl	80045e0 <chSemSignalI>
    return;
 8004684:	e7f5      	b.n	8004672 <chCacheReleaseObjectI+0x42>
    if ((objp->obj_flags & OC_FLAG_FORGET) == 0U) {
 8004686:	f013 0f20 	tst.w	r3, #32
 800468a:	d10e      	bne.n	80046aa <chCacheReleaseObjectI+0x7a>
      LRU_INSERT_HEAD(ocp, objp);
 800468c:	69c3      	ldr	r3, [r0, #28]
 800468e:	608b      	str	r3, [r1, #8]
 8004690:	f100 0314 	add.w	r3, r0, #20
 8004694:	60cb      	str	r3, [r1, #12]
 8004696:	69c3      	ldr	r3, [r0, #28]
 8004698:	60d9      	str	r1, [r3, #12]
 800469a:	61c1      	str	r1, [r0, #28]
    objp->obj_flags &= OC_FLAG_INHASH | OC_FLAG_LAZYWRITE;
 800469c:	6a63      	ldr	r3, [r4, #36]	; 0x24
 800469e:	f003 0312 	and.w	r3, r3, #18
    objp->obj_flags |= OC_FLAG_INLRU;
 80046a2:	f043 0301 	orr.w	r3, r3, #1
 80046a6:	6263      	str	r3, [r4, #36]	; 0x24
 80046a8:	e7dd      	b.n	8004666 <chCacheReleaseObjectI+0x36>
      LRU_INSERT_TAIL(ocp, objp);
 80046aa:	6a03      	ldr	r3, [r0, #32]
 80046ac:	60cb      	str	r3, [r1, #12]
 80046ae:	f100 0314 	add.w	r3, r0, #20
 80046b2:	608b      	str	r3, [r1, #8]
 80046b4:	6a03      	ldr	r3, [r0, #32]
 80046b6:	6099      	str	r1, [r3, #8]
 80046b8:	6201      	str	r1, [r0, #32]
 80046ba:	e7ef      	b.n	800469c <chCacheReleaseObjectI+0x6c>
 80046bc:	0000      	movs	r0, r0
	...

080046c0 <oslib_test_006_001_execute>:
 * - [6.1.5] Checking cached objects.
 * - [6.1.6] Checking non-cached objects.
 * .
 */

static void oslib_test_006_001_execute(void) {
 80046c0:	b530      	push	{r4, r5, lr}
 80046c2:	b085      	sub	sp, #20

  /* [6.1.1] Cache initialization.*/
  test_set_step(1);
 80046c4:	4ca4      	ldr	r4, [pc, #656]	; (8004958 <oslib_test_006_001_execute+0x298>)
 80046c6:	2301      	movs	r3, #1
 80046c8:	6023      	str	r3, [r4, #0]
  {
    chCacheObjectInit(&cache1,
 80046ca:	4ba4      	ldr	r3, [pc, #656]	; (800495c <oslib_test_006_001_execute+0x29c>)
 80046cc:	9303      	str	r3, [sp, #12]
 80046ce:	4ba4      	ldr	r3, [pc, #656]	; (8004960 <oslib_test_006_001_execute+0x2a0>)
 80046d0:	9302      	str	r3, [sp, #8]
 80046d2:	4ba4      	ldr	r3, [pc, #656]	; (8004964 <oslib_test_006_001_execute+0x2a4>)
 80046d4:	9301      	str	r3, [sp, #4]
 80046d6:	233c      	movs	r3, #60	; 0x3c
 80046d8:	9300      	str	r3, [sp, #0]
 80046da:	2304      	movs	r3, #4
 80046dc:	4aa2      	ldr	r2, [pc, #648]	; (8004968 <oslib_test_006_001_execute+0x2a8>)
 80046de:	2108      	movs	r1, #8
 80046e0:	48a2      	ldr	r0, [pc, #648]	; (800496c <oslib_test_006_001_execute+0x2ac>)
 80046e2:	f7fd fb3d 	bl	8001d60 <chCacheObjectInit>
                      obj_write);
  }
  test_end_step(1);

  /* [6.1.2] Getting and releasing objects without initialization.*/
  test_set_step(2);
 80046e6:	2302      	movs	r3, #2
 80046e8:	6023      	str	r3, [r4, #0]
  {
    uint32_t i;

    for (i = 0; i < (NUM_OBJECTS * 2); i++) {
 80046ea:	2500      	movs	r5, #0
 80046ec:	2d07      	cmp	r5, #7
 80046ee:	d823      	bhi.n	8004738 <oslib_test_006_001_execute+0x78>
      oc_object_t * objp = chCacheGetObject(&cache1, 0U, i);
 80046f0:	462a      	mov	r2, r5
 80046f2:	2100      	movs	r1, #0
 80046f4:	489d      	ldr	r0, [pc, #628]	; (800496c <oslib_test_006_001_execute+0x2ac>)
 80046f6:	f7fd feab 	bl	8002450 <chCacheGetObject>
 80046fa:	4604      	mov	r4, r0

      test_assert((objp->obj_flags & OC_FLAG_INHASH) != 0U, "not in hash");
 80046fc:	6a40      	ldr	r0, [r0, #36]	; 0x24
 80046fe:	499c      	ldr	r1, [pc, #624]	; (8004970 <oslib_test_006_001_execute+0x2b0>)
 8004700:	f3c0 0040 	ubfx	r0, r0, #1, #1
 8004704:	f7fc fd74 	bl	80011f0 <_test_assert>
 8004708:	2800      	cmp	r0, #0
 800470a:	d161      	bne.n	80047d0 <oslib_test_006_001_execute+0x110>
      test_assert((objp->obj_flags & OC_FLAG_NOTSYNC) != 0U, "should not be in sync");
 800470c:	6a60      	ldr	r0, [r4, #36]	; 0x24
 800470e:	4999      	ldr	r1, [pc, #612]	; (8004974 <oslib_test_006_001_execute+0x2b4>)
 8004710:	f3c0 00c0 	ubfx	r0, r0, #3, #1
 8004714:	f7fc fd6c 	bl	80011f0 <_test_assert>
 8004718:	2800      	cmp	r0, #0
 800471a:	d159      	bne.n	80047d0 <oslib_test_006_001_execute+0x110>
 800471c:	2320      	movs	r3, #32
 800471e:	f383 8811 	msr	BASEPRI, r3
 */
static inline void chCacheReleaseObject(objects_cache_t *ocp,
                                        oc_object_t *objp) {

  chSysLock();
  chCacheReleaseObjectI(ocp, objp);
 8004722:	4621      	mov	r1, r4
 8004724:	4891      	ldr	r0, [pc, #580]	; (800496c <oslib_test_006_001_execute+0x2ac>)
 8004726:	f7ff ff83 	bl	8004630 <chCacheReleaseObjectI>
  chSchRescheduleS();
 800472a:	f005 feb1 	bl	800a490 <chSchRescheduleS>
 800472e:	2300      	movs	r3, #0
 8004730:	f383 8811 	msr	BASEPRI, r3
    for (i = 0; i < (NUM_OBJECTS * 2); i++) {
 8004734:	3501      	adds	r5, #1
 8004736:	e7d9      	b.n	80046ec <oslib_test_006_001_execute+0x2c>

      chCacheReleaseObject(&cache1, objp);
    }

    test_assert_sequence("", "unexpected tokens");
 8004738:	498f      	ldr	r1, [pc, #572]	; (8004978 <oslib_test_006_001_execute+0x2b8>)
 800473a:	4890      	ldr	r0, [pc, #576]	; (800497c <oslib_test_006_001_execute+0x2bc>)
 800473c:	f7fc fe08 	bl	8001350 <_test_assert_sequence>
 8004740:	2800      	cmp	r0, #0
 8004742:	d145      	bne.n	80047d0 <oslib_test_006_001_execute+0x110>
  }
  test_end_step(2);

  /* [6.1.3] Getting and releasing objects with synchronous
     initialization.*/
  test_set_step(3);
 8004744:	4b84      	ldr	r3, [pc, #528]	; (8004958 <oslib_test_006_001_execute+0x298>)
 8004746:	2203      	movs	r2, #3
 8004748:	601a      	str	r2, [r3, #0]
  {
    uint32_t i;
    bool error;

    for (i = 0; i < (NUM_OBJECTS * 2); i++) {
 800474a:	2500      	movs	r5, #0
 800474c:	e00c      	b.n	8004768 <oslib_test_006_001_execute+0xa8>
 800474e:	2320      	movs	r3, #32
 8004750:	f383 8811 	msr	BASEPRI, r3
  chCacheReleaseObjectI(ocp, objp);
 8004754:	4621      	mov	r1, r4
 8004756:	4885      	ldr	r0, [pc, #532]	; (800496c <oslib_test_006_001_execute+0x2ac>)
 8004758:	f7ff ff6a 	bl	8004630 <chCacheReleaseObjectI>
  chSchRescheduleS();
 800475c:	f005 fe98 	bl	800a490 <chSchRescheduleS>
 8004760:	2300      	movs	r3, #0
 8004762:	f383 8811 	msr	BASEPRI, r3
 8004766:	3501      	adds	r5, #1
 8004768:	2d07      	cmp	r5, #7
 800476a:	d833      	bhi.n	80047d4 <oslib_test_006_001_execute+0x114>
      oc_object_t *objp = chCacheGetObject(&cache1, 0U, i);
 800476c:	462a      	mov	r2, r5
 800476e:	2100      	movs	r1, #0
 8004770:	487e      	ldr	r0, [pc, #504]	; (800496c <oslib_test_006_001_execute+0x2ac>)
 8004772:	f7fd fe6d 	bl	8002450 <chCacheGetObject>
 8004776:	4604      	mov	r4, r0

      test_assert((objp->obj_flags & OC_FLAG_INHASH) != 0U, "not in hash");
 8004778:	6a40      	ldr	r0, [r0, #36]	; 0x24
 800477a:	497d      	ldr	r1, [pc, #500]	; (8004970 <oslib_test_006_001_execute+0x2b0>)
 800477c:	f3c0 0040 	ubfx	r0, r0, #1, #1
 8004780:	f7fc fd36 	bl	80011f0 <_test_assert>
 8004784:	bb20      	cbnz	r0, 80047d0 <oslib_test_006_001_execute+0x110>
      test_assert((objp->obj_flags & OC_FLAG_NOTSYNC) != 0U, "in sync");
 8004786:	6a60      	ldr	r0, [r4, #36]	; 0x24
 8004788:	497d      	ldr	r1, [pc, #500]	; (8004980 <oslib_test_006_001_execute+0x2c0>)
 800478a:	f3c0 00c0 	ubfx	r0, r0, #3, #1
 800478e:	f7fc fd2f 	bl	80011f0 <_test_assert>
 8004792:	b9e8      	cbnz	r0, 80047d0 <oslib_test_006_001_execute+0x110>

      error = chCacheReadObject(&cache1, objp, false);
 8004794:	2200      	movs	r2, #0
 8004796:	4621      	mov	r1, r4
 8004798:	4874      	ldr	r0, [pc, #464]	; (800496c <oslib_test_006_001_execute+0x2ac>)
 800479a:	f7fc ffb9 	bl	8001710 <chCacheReadObject>

      test_assert(error == false, "returned error");
 800479e:	f080 0001 	eor.w	r0, r0, #1
 80047a2:	4978      	ldr	r1, [pc, #480]	; (8004984 <oslib_test_006_001_execute+0x2c4>)
 80047a4:	b2c0      	uxtb	r0, r0
 80047a6:	f7fc fd23 	bl	80011f0 <_test_assert>
 80047aa:	b988      	cbnz	r0, 80047d0 <oslib_test_006_001_execute+0x110>
      test_assert((objp->obj_flags & OC_FLAG_INHASH) != 0U, "not in hash");
 80047ac:	6a60      	ldr	r0, [r4, #36]	; 0x24
 80047ae:	4970      	ldr	r1, [pc, #448]	; (8004970 <oslib_test_006_001_execute+0x2b0>)
 80047b0:	f3c0 0040 	ubfx	r0, r0, #1, #1
 80047b4:	f7fc fd1c 	bl	80011f0 <_test_assert>
 80047b8:	b950      	cbnz	r0, 80047d0 <oslib_test_006_001_execute+0x110>
      test_assert((objp->obj_flags & OC_FLAG_NOTSYNC) == 0U, "not in sync");
 80047ba:	6a60      	ldr	r0, [r4, #36]	; 0x24
 80047bc:	08c0      	lsrs	r0, r0, #3
 80047be:	f080 0001 	eor.w	r0, r0, #1
 80047c2:	4971      	ldr	r1, [pc, #452]	; (8004988 <oslib_test_006_001_execute+0x2c8>)
 80047c4:	f000 0001 	and.w	r0, r0, #1
 80047c8:	f7fc fd12 	bl	80011f0 <_test_assert>
 80047cc:	2800      	cmp	r0, #0
 80047ce:	d0be      	beq.n	800474e <oslib_test_006_001_execute+0x8e>
    }

    test_assert_sequence("", "unexpected tokens");
  }
  test_end_step(6);
}
 80047d0:	b005      	add	sp, #20
 80047d2:	bd30      	pop	{r4, r5, pc}
    test_assert_sequence("abcdefgh", "unexpected tokens");
 80047d4:	4968      	ldr	r1, [pc, #416]	; (8004978 <oslib_test_006_001_execute+0x2b8>)
 80047d6:	486d      	ldr	r0, [pc, #436]	; (800498c <oslib_test_006_001_execute+0x2cc>)
 80047d8:	f7fc fdba 	bl	8001350 <_test_assert_sequence>
 80047dc:	2800      	cmp	r0, #0
 80047de:	d1f7      	bne.n	80047d0 <oslib_test_006_001_execute+0x110>
  test_set_step(4);
 80047e0:	4b5d      	ldr	r3, [pc, #372]	; (8004958 <oslib_test_006_001_execute+0x298>)
 80047e2:	2204      	movs	r2, #4
 80047e4:	601a      	str	r2, [r3, #0]
    for (i = 0; i < (NUM_OBJECTS * 2); i++) {
 80047e6:	2500      	movs	r5, #0
 80047e8:	e00c      	b.n	8004804 <oslib_test_006_001_execute+0x144>
 80047ea:	2320      	movs	r3, #32
 80047ec:	f383 8811 	msr	BASEPRI, r3
  chCacheReleaseObjectI(ocp, objp);
 80047f0:	4621      	mov	r1, r4
 80047f2:	485e      	ldr	r0, [pc, #376]	; (800496c <oslib_test_006_001_execute+0x2ac>)
 80047f4:	f7ff ff1c 	bl	8004630 <chCacheReleaseObjectI>
  chSchRescheduleS();
 80047f8:	f005 fe4a 	bl	800a490 <chSchRescheduleS>
 80047fc:	2300      	movs	r3, #0
 80047fe:	f383 8811 	msr	BASEPRI, r3
 8004802:	3501      	adds	r5, #1
 8004804:	2d07      	cmp	r5, #7
 8004806:	d83c      	bhi.n	8004882 <oslib_test_006_001_execute+0x1c2>
      oc_object_t *objp = chCacheGetObject(&cache1, 0U, i);
 8004808:	462a      	mov	r2, r5
 800480a:	2100      	movs	r1, #0
 800480c:	4857      	ldr	r0, [pc, #348]	; (800496c <oslib_test_006_001_execute+0x2ac>)
 800480e:	f7fd fe1f 	bl	8002450 <chCacheGetObject>
 8004812:	4604      	mov	r4, r0
      test_assert((objp->obj_flags & OC_FLAG_INHASH) != 0U, "not in hash");
 8004814:	6a40      	ldr	r0, [r0, #36]	; 0x24
 8004816:	4956      	ldr	r1, [pc, #344]	; (8004970 <oslib_test_006_001_execute+0x2b0>)
 8004818:	f3c0 0040 	ubfx	r0, r0, #1, #1
 800481c:	f7fc fce8 	bl	80011f0 <_test_assert>
 8004820:	2800      	cmp	r0, #0
 8004822:	d1d5      	bne.n	80047d0 <oslib_test_006_001_execute+0x110>
      test_assert((objp->obj_flags & OC_FLAG_NOTSYNC) != 0U, "in sync");
 8004824:	6a60      	ldr	r0, [r4, #36]	; 0x24
 8004826:	4956      	ldr	r1, [pc, #344]	; (8004980 <oslib_test_006_001_execute+0x2c0>)
 8004828:	f3c0 00c0 	ubfx	r0, r0, #3, #1
 800482c:	f7fc fce0 	bl	80011f0 <_test_assert>
 8004830:	2800      	cmp	r0, #0
 8004832:	d1cd      	bne.n	80047d0 <oslib_test_006_001_execute+0x110>
      error = chCacheReadObject(&cache1, objp, true);
 8004834:	2201      	movs	r2, #1
 8004836:	4621      	mov	r1, r4
 8004838:	484c      	ldr	r0, [pc, #304]	; (800496c <oslib_test_006_001_execute+0x2ac>)
 800483a:	f7fc ff69 	bl	8001710 <chCacheReadObject>
      test_assert(error == false, "returned error");
 800483e:	f080 0001 	eor.w	r0, r0, #1
 8004842:	4950      	ldr	r1, [pc, #320]	; (8004984 <oslib_test_006_001_execute+0x2c4>)
 8004844:	b2c0      	uxtb	r0, r0
 8004846:	f7fc fcd3 	bl	80011f0 <_test_assert>
 800484a:	2800      	cmp	r0, #0
 800484c:	d1c0      	bne.n	80047d0 <oslib_test_006_001_execute+0x110>
      objp = chCacheGetObject(&cache1, 0U, i);
 800484e:	462a      	mov	r2, r5
 8004850:	2100      	movs	r1, #0
 8004852:	4846      	ldr	r0, [pc, #280]	; (800496c <oslib_test_006_001_execute+0x2ac>)
 8004854:	f7fd fdfc 	bl	8002450 <chCacheGetObject>
 8004858:	4604      	mov	r4, r0
      test_assert((objp->obj_flags & OC_FLAG_INHASH) != 0U, "not in hash");
 800485a:	6a40      	ldr	r0, [r0, #36]	; 0x24
 800485c:	4944      	ldr	r1, [pc, #272]	; (8004970 <oslib_test_006_001_execute+0x2b0>)
 800485e:	f3c0 0040 	ubfx	r0, r0, #1, #1
 8004862:	f7fc fcc5 	bl	80011f0 <_test_assert>
 8004866:	2800      	cmp	r0, #0
 8004868:	d1b2      	bne.n	80047d0 <oslib_test_006_001_execute+0x110>
      test_assert((objp->obj_flags & OC_FLAG_NOTSYNC) == 0U, "not in sync");
 800486a:	6a60      	ldr	r0, [r4, #36]	; 0x24
 800486c:	08c0      	lsrs	r0, r0, #3
 800486e:	f080 0001 	eor.w	r0, r0, #1
 8004872:	4945      	ldr	r1, [pc, #276]	; (8004988 <oslib_test_006_001_execute+0x2c8>)
 8004874:	f000 0001 	and.w	r0, r0, #1
 8004878:	f7fc fcba 	bl	80011f0 <_test_assert>
 800487c:	2800      	cmp	r0, #0
 800487e:	d0b4      	beq.n	80047ea <oslib_test_006_001_execute+0x12a>
 8004880:	e7a6      	b.n	80047d0 <oslib_test_006_001_execute+0x110>
    test_assert_sequence("abcdefgh", "unexpected tokens");
 8004882:	493d      	ldr	r1, [pc, #244]	; (8004978 <oslib_test_006_001_execute+0x2b8>)
 8004884:	4841      	ldr	r0, [pc, #260]	; (800498c <oslib_test_006_001_execute+0x2cc>)
 8004886:	f7fc fd63 	bl	8001350 <_test_assert_sequence>
 800488a:	2800      	cmp	r0, #0
 800488c:	d1a0      	bne.n	80047d0 <oslib_test_006_001_execute+0x110>
  test_set_step(5);
 800488e:	4b32      	ldr	r3, [pc, #200]	; (8004958 <oslib_test_006_001_execute+0x298>)
 8004890:	2205      	movs	r2, #5
 8004892:	601a      	str	r2, [r3, #0]
    for (i = NUM_OBJECTS; i < (NUM_OBJECTS * 2); i++) {
 8004894:	2504      	movs	r5, #4
 8004896:	2d07      	cmp	r5, #7
 8004898:	d826      	bhi.n	80048e8 <oslib_test_006_001_execute+0x228>
      oc_object_t *objp = chCacheGetObject(&cache1, 0U, i);
 800489a:	462a      	mov	r2, r5
 800489c:	2100      	movs	r1, #0
 800489e:	4833      	ldr	r0, [pc, #204]	; (800496c <oslib_test_006_001_execute+0x2ac>)
 80048a0:	f7fd fdd6 	bl	8002450 <chCacheGetObject>
 80048a4:	4604      	mov	r4, r0
      test_assert((objp->obj_flags & OC_FLAG_INHASH) != 0U, "not in hash");
 80048a6:	6a40      	ldr	r0, [r0, #36]	; 0x24
 80048a8:	4931      	ldr	r1, [pc, #196]	; (8004970 <oslib_test_006_001_execute+0x2b0>)
 80048aa:	f3c0 0040 	ubfx	r0, r0, #1, #1
 80048ae:	f7fc fc9f 	bl	80011f0 <_test_assert>
 80048b2:	2800      	cmp	r0, #0
 80048b4:	d18c      	bne.n	80047d0 <oslib_test_006_001_execute+0x110>
      test_assert((objp->obj_flags & OC_FLAG_NOTSYNC) == 0U, "not in sync");
 80048b6:	6a63      	ldr	r3, [r4, #36]	; 0x24
 80048b8:	08db      	lsrs	r3, r3, #3
 80048ba:	f083 0001 	eor.w	r0, r3, #1
 80048be:	4932      	ldr	r1, [pc, #200]	; (8004988 <oslib_test_006_001_execute+0x2c8>)
 80048c0:	f000 0001 	and.w	r0, r0, #1
 80048c4:	f7fc fc94 	bl	80011f0 <_test_assert>
 80048c8:	2800      	cmp	r0, #0
 80048ca:	d181      	bne.n	80047d0 <oslib_test_006_001_execute+0x110>
 80048cc:	2320      	movs	r3, #32
 80048ce:	f383 8811 	msr	BASEPRI, r3
  chCacheReleaseObjectI(ocp, objp);
 80048d2:	4621      	mov	r1, r4
 80048d4:	4825      	ldr	r0, [pc, #148]	; (800496c <oslib_test_006_001_execute+0x2ac>)
 80048d6:	f7ff feab 	bl	8004630 <chCacheReleaseObjectI>
  chSchRescheduleS();
 80048da:	f005 fdd9 	bl	800a490 <chSchRescheduleS>
 80048de:	2300      	movs	r3, #0
 80048e0:	f383 8811 	msr	BASEPRI, r3
    for (i = NUM_OBJECTS; i < (NUM_OBJECTS * 2); i++) {
 80048e4:	3501      	adds	r5, #1
 80048e6:	e7d6      	b.n	8004896 <oslib_test_006_001_execute+0x1d6>
    test_assert_sequence("", "unexpected tokens");
 80048e8:	4923      	ldr	r1, [pc, #140]	; (8004978 <oslib_test_006_001_execute+0x2b8>)
 80048ea:	4824      	ldr	r0, [pc, #144]	; (800497c <oslib_test_006_001_execute+0x2bc>)
 80048ec:	f7fc fd30 	bl	8001350 <_test_assert_sequence>
 80048f0:	2800      	cmp	r0, #0
 80048f2:	f47f af6d 	bne.w	80047d0 <oslib_test_006_001_execute+0x110>
  test_set_step(6);
 80048f6:	4b18      	ldr	r3, [pc, #96]	; (8004958 <oslib_test_006_001_execute+0x298>)
 80048f8:	2206      	movs	r2, #6
 80048fa:	601a      	str	r2, [r3, #0]
    for (i = 0; i < NUM_OBJECTS; i++) {
 80048fc:	2500      	movs	r5, #0
 80048fe:	2d03      	cmp	r5, #3
 8004900:	d825      	bhi.n	800494e <oslib_test_006_001_execute+0x28e>
      oc_object_t *objp = chCacheGetObject(&cache1, 0U, i);
 8004902:	462a      	mov	r2, r5
 8004904:	2100      	movs	r1, #0
 8004906:	4819      	ldr	r0, [pc, #100]	; (800496c <oslib_test_006_001_execute+0x2ac>)
 8004908:	f7fd fda2 	bl	8002450 <chCacheGetObject>
 800490c:	4604      	mov	r4, r0
      test_assert((objp->obj_flags & OC_FLAG_INHASH) != 0U, "not in hash");
 800490e:	6a40      	ldr	r0, [r0, #36]	; 0x24
 8004910:	4917      	ldr	r1, [pc, #92]	; (8004970 <oslib_test_006_001_execute+0x2b0>)
 8004912:	f3c0 0040 	ubfx	r0, r0, #1, #1
 8004916:	f7fc fc6b 	bl	80011f0 <_test_assert>
 800491a:	2800      	cmp	r0, #0
 800491c:	f47f af58 	bne.w	80047d0 <oslib_test_006_001_execute+0x110>
      test_assert((objp->obj_flags & OC_FLAG_NOTSYNC) != 0U, "in sync");
 8004920:	6a60      	ldr	r0, [r4, #36]	; 0x24
 8004922:	4917      	ldr	r1, [pc, #92]	; (8004980 <oslib_test_006_001_execute+0x2c0>)
 8004924:	f3c0 00c0 	ubfx	r0, r0, #3, #1
 8004928:	f7fc fc62 	bl	80011f0 <_test_assert>
 800492c:	2800      	cmp	r0, #0
 800492e:	f47f af4f 	bne.w	80047d0 <oslib_test_006_001_execute+0x110>
 8004932:	2320      	movs	r3, #32
 8004934:	f383 8811 	msr	BASEPRI, r3
  chCacheReleaseObjectI(ocp, objp);
 8004938:	4621      	mov	r1, r4
 800493a:	480c      	ldr	r0, [pc, #48]	; (800496c <oslib_test_006_001_execute+0x2ac>)
 800493c:	f7ff fe78 	bl	8004630 <chCacheReleaseObjectI>
  chSchRescheduleS();
 8004940:	f005 fda6 	bl	800a490 <chSchRescheduleS>
 8004944:	2300      	movs	r3, #0
 8004946:	f383 8811 	msr	BASEPRI, r3
    for (i = 0; i < NUM_OBJECTS; i++) {
 800494a:	3501      	adds	r5, #1
 800494c:	e7d7      	b.n	80048fe <oslib_test_006_001_execute+0x23e>
    test_assert_sequence("", "unexpected tokens");
 800494e:	490a      	ldr	r1, [pc, #40]	; (8004978 <oslib_test_006_001_execute+0x2b8>)
 8004950:	480a      	ldr	r0, [pc, #40]	; (800497c <oslib_test_006_001_execute+0x2bc>)
 8004952:	f7fc fcfd 	bl	8001350 <_test_assert_sequence>
  test_end_step(6);
 8004956:	e73b      	b.n	80047d0 <oslib_test_006_001_execute+0x110>
 8004958:	20001a7c 	.word	0x20001a7c
 800495c:	08000841 	.word	0x08000841
 8004960:	08004991 	.word	0x08004991
 8004964:	20001248 	.word	0x20001248
 8004968:	20001128 	.word	0x20001128
 800496c:	20000ffc 	.word	0x20000ffc
 8004970:	0800c794 	.word	0x0800c794
 8004974:	0800c7a0 	.word	0x0800c7a0
 8004978:	0800c7b8 	.word	0x0800c7b8
 800497c:	0800c894 	.word	0x0800c894
 8004980:	0800c7e0 	.word	0x0800c7e0
 8004984:	0800c7cc 	.word	0x0800c7cc
 8004988:	0800c7dc 	.word	0x0800c7dc
 800498c:	0800c7e8 	.word	0x0800c7e8

08004990 <obj_read>:
                     bool async) {
 8004990:	b570      	push	{r4, r5, r6, lr}
 8004992:	4606      	mov	r6, r0
 8004994:	460c      	mov	r4, r1
 8004996:	4615      	mov	r5, r2
  test_emit_token('a' + objp->obj_key);
 8004998:	694b      	ldr	r3, [r1, #20]
 800499a:	3361      	adds	r3, #97	; 0x61
 800499c:	b2d8      	uxtb	r0, r3
 800499e:	f7fb ff37 	bl	8000810 <test_emit_token>
  objp->obj_flags &= ~OC_FLAG_NOTSYNC;
 80049a2:	6a63      	ldr	r3, [r4, #36]	; 0x24
 80049a4:	f023 0308 	bic.w	r3, r3, #8
 80049a8:	6263      	str	r3, [r4, #36]	; 0x24
  if (async) {
 80049aa:	b90d      	cbnz	r5, 80049b0 <obj_read+0x20>
}
 80049ac:	2000      	movs	r0, #0
 80049ae:	bd70      	pop	{r4, r5, r6, pc}
 80049b0:	2320      	movs	r3, #32
 80049b2:	f383 8811 	msr	BASEPRI, r3
  chCacheReleaseObjectI(ocp, objp);
 80049b6:	4621      	mov	r1, r4
 80049b8:	4630      	mov	r0, r6
 80049ba:	f7ff fe39 	bl	8004630 <chCacheReleaseObjectI>
  chSchRescheduleS();
 80049be:	f005 fd67 	bl	800a490 <chSchRescheduleS>
 80049c2:	2300      	movs	r3, #0
 80049c4:	f383 8811 	msr	BASEPRI, r3
 80049c8:	e7f0      	b.n	80049ac <obj_read+0x1c>
 80049ca:	bf00      	nop
 80049cc:	0000      	movs	r0, r0
	...

080049d0 <chGuardedPoolFree>:
 * @param[in] gmp       pointer to a @p guarded_memory_pool_t structure
 * @param[in] objp      the pointer to the object to be released
 *
 * @api
 */
void chGuardedPoolFree(guarded_memory_pool_t *gmp, void *objp) {
 80049d0:	b510      	push	{r4, lr}
 80049d2:	4604      	mov	r4, r0
 80049d4:	2320      	movs	r3, #32
 80049d6:	f383 8811 	msr	BASEPRI, r3
 *
 * @iclass
 */
static inline void chGuardedPoolFreeI(guarded_memory_pool_t *gmp, void *objp) {

  chPoolFreeI(&gmp->pool, objp);
 80049da:	300c      	adds	r0, #12
 80049dc:	f7fc feb8 	bl	8001750 <chPoolFreeI>
  chSemSignalI(&gmp->sem);
 80049e0:	4620      	mov	r0, r4
 80049e2:	f7ff fdfd 	bl	80045e0 <chSemSignalI>

  chSysLock();
  chGuardedPoolFreeI(gmp, objp);
  chSchRescheduleS();
 80049e6:	f005 fd53 	bl	800a490 <chSchRescheduleS>
 80049ea:	2300      	movs	r3, #0
 80049ec:	f383 8811 	msr	BASEPRI, r3
  chSysUnlock();
}
 80049f0:	bd10      	pop	{r4, pc}
 80049f2:	bf00      	nop
	...

08004a00 <chGuardedPoolLoadArray>:
void chGuardedPoolLoadArray(guarded_memory_pool_t *gmp, void *p, size_t n) {
 8004a00:	b570      	push	{r4, r5, r6, lr}
 8004a02:	4606      	mov	r6, r0
 8004a04:	460d      	mov	r5, r1
 8004a06:	4614      	mov	r4, r2
  while (n != 0U) {
 8004a08:	b13c      	cbz	r4, 8004a1a <chGuardedPoolLoadArray+0x1a>
 *
 * @api
 */
static inline void chGuardedPoolAdd(guarded_memory_pool_t *gmp, void *objp) {

  chGuardedPoolFree(gmp, objp);
 8004a0a:	4629      	mov	r1, r5
 8004a0c:	4630      	mov	r0, r6
 8004a0e:	f7ff ffdf 	bl	80049d0 <chGuardedPoolFree>
    p = (void *)(((uint8_t *)p) + gmp->pool.object_size);
 8004a12:	6933      	ldr	r3, [r6, #16]
 8004a14:	441d      	add	r5, r3
    n--;
 8004a16:	3c01      	subs	r4, #1
 8004a18:	e7f6      	b.n	8004a08 <chGuardedPoolLoadArray+0x8>
}
 8004a1a:	bd70      	pop	{r4, r5, r6, pc}
 8004a1c:	0000      	movs	r0, r0
	...

08004a20 <chFactoryCreateObjectsFIFO>:
                                               unsigned objalign) {
 8004a20:	e92d 43f8 	stmdb	sp!, {r3, r4, r5, r6, r7, r8, r9, lr}
 8004a24:	4606      	mov	r6, r0
 8004a26:	460d      	mov	r5, r1
 8004a28:	4614      	mov	r4, r2
 8004a2a:	461f      	mov	r7, r3
  F_LOCK();
 8004a2c:	f8df 805c 	ldr.w	r8, [pc, #92]	; 8004a8c <chFactoryCreateObjectsFIFO+0x6c>
 8004a30:	4640      	mov	r0, r8
 8004a32:	f7fe fc15 	bl	8003260 <chMtxLock>
                                                      sizeof (dyn_objects_fifo_t) +
 8004a36:	f104 0215 	add.w	r2, r4, #21
                                                      (objn * objsize));
 8004a3a:	fb05 f304 	mul.w	r3, r5, r4
  dofp = (dyn_objects_fifo_t *)dyn_create_object_heap(name,
 8004a3e:	eb03 0282 	add.w	r2, r3, r2, lsl #2
 8004a42:	f108 0140 	add.w	r1, r8, #64	; 0x40
 8004a46:	4630      	mov	r0, r6
 8004a48:	f7ff fbe2 	bl	8004210 <dyn_create_object_heap>
  if (dofp != NULL) {
 8004a4c:	4606      	mov	r6, r0
 8004a4e:	b1b0      	cbz	r0, 8004a7e <chFactoryCreateObjectsFIFO+0x5e>
    msg_t *msgbuf = (msg_t *)(dofp + 1);
 8004a50:	f100 0854 	add.w	r8, r0, #84	; 0x54
    chFifoObjectInitAligned(&dofp->fifo, objsize, objn, objalign,
 8004a54:	f100 0310 	add.w	r3, r0, #16
                            (void *)&msgbuf[objn], msgbuf);
 8004a58:	eb08 0984 	add.w	r9, r8, r4, lsl #2
                                           size_t objn, unsigned objalign,
                                           void *objbuf, msg_t *msgbuf) {

  chDbgCheck((objsize >= objalign) && ((objsize % objalign) == 0U));

  chGuardedPoolObjectInitAligned(&ofp->free, objsize, objalign);
 8004a5c:	463a      	mov	r2, r7
 8004a5e:	4629      	mov	r1, r5
 8004a60:	461d      	mov	r5, r3
 8004a62:	4618      	mov	r0, r3
 8004a64:	f7fd f9c4 	bl	8001df0 <chGuardedPoolObjectInitAligned>
  chGuardedPoolLoadArray(&ofp->free, objbuf, objn);
 8004a68:	4622      	mov	r2, r4
 8004a6a:	4649      	mov	r1, r9
 8004a6c:	4628      	mov	r0, r5
 8004a6e:	f7ff ffc7 	bl	8004a00 <chGuardedPoolLoadArray>
  chMBObjectInit(&ofp->mbx, msgbuf, objn);
 8004a72:	4622      	mov	r2, r4
 8004a74:	4641      	mov	r1, r8
 8004a76:	f106 002c 	add.w	r0, r6, #44	; 0x2c
 8004a7a:	f7fc ff99 	bl	80019b0 <chMBObjectInit>
  F_UNLOCK();
 8004a7e:	4803      	ldr	r0, [pc, #12]	; (8004a8c <chFactoryCreateObjectsFIFO+0x6c>)
 8004a80:	f7fe fa96 	bl	8002fb0 <chMtxUnlock>
}
 8004a84:	4630      	mov	r0, r6
 8004a86:	e8bd 83f8 	ldmia.w	sp!, {r3, r4, r5, r6, r7, r8, r9, pc}
 8004a8a:	bf00      	nop
 8004a8c:	200010b8 	.word	0x200010b8

08004a90 <oslib_test_009_005_execute>:
static void oslib_test_009_005_execute(void) {
 8004a90:	b538      	push	{r3, r4, r5, lr}
  test_set_step(1);
 8004a92:	4b49      	ldr	r3, [pc, #292]	; (8004bb8 <oslib_test_009_005_execute+0x128>)
 8004a94:	2201      	movs	r2, #1
 8004a96:	601a      	str	r2, [r3, #0]
    dofp = chFactoryFindObjectsFIFO("myfifo");
 8004a98:	4848      	ldr	r0, [pc, #288]	; (8004bbc <oslib_test_009_005_execute+0x12c>)
 8004a9a:	f7fe fc41 	bl	8003320 <chFactoryFindObjectsFIFO>
    test_assert(dofp == NULL, "found");
 8004a9e:	4948      	ldr	r1, [pc, #288]	; (8004bc0 <oslib_test_009_005_execute+0x130>)
 8004aa0:	fab0 f080 	clz	r0, r0
 8004aa4:	0940      	lsrs	r0, r0, #5
 8004aa6:	f7fc fba3 	bl	80011f0 <_test_assert>
 8004aaa:	b100      	cbz	r0, 8004aae <oslib_test_009_005_execute+0x1e>
}
 8004aac:	bd38      	pop	{r3, r4, r5, pc}
  test_set_step(2);
 8004aae:	4b42      	ldr	r3, [pc, #264]	; (8004bb8 <oslib_test_009_005_execute+0x128>)
 8004ab0:	2202      	movs	r2, #2
 8004ab2:	601a      	str	r2, [r3, #0]
    dofp = chFactoryCreateObjectsFIFO("myfifo", 16U, 16U, PORT_NATURAL_ALIGN);
 8004ab4:	2304      	movs	r3, #4
 8004ab6:	2210      	movs	r2, #16
 8004ab8:	4611      	mov	r1, r2
 8004aba:	4840      	ldr	r0, [pc, #256]	; (8004bbc <oslib_test_009_005_execute+0x12c>)
 8004abc:	f7ff ffb0 	bl	8004a20 <chFactoryCreateObjectsFIFO>
    test_assert(dofp != NULL, "cannot create");
 8004ac0:	4604      	mov	r4, r0
 8004ac2:	4940      	ldr	r1, [pc, #256]	; (8004bc4 <oslib_test_009_005_execute+0x134>)
 8004ac4:	3800      	subs	r0, #0
 8004ac6:	bf18      	it	ne
 8004ac8:	2001      	movne	r0, #1
 8004aca:	f7fc fb91 	bl	80011f0 <_test_assert>
 8004ace:	2800      	cmp	r0, #0
 8004ad0:	d1ec      	bne.n	8004aac <oslib_test_009_005_execute+0x1c>
  test_set_step(3);
 8004ad2:	4b39      	ldr	r3, [pc, #228]	; (8004bb8 <oslib_test_009_005_execute+0x128>)
 8004ad4:	2203      	movs	r2, #3
 8004ad6:	601a      	str	r2, [r3, #0]
    dofp1 = chFactoryCreateObjectsFIFO("myfifo", 16U, 16U, PORT_NATURAL_ALIGN);
 8004ad8:	2304      	movs	r3, #4
 8004ada:	2210      	movs	r2, #16
 8004adc:	4611      	mov	r1, r2
 8004ade:	4837      	ldr	r0, [pc, #220]	; (8004bbc <oslib_test_009_005_execute+0x12c>)
 8004ae0:	f7ff ff9e 	bl	8004a20 <chFactoryCreateObjectsFIFO>
    test_assert(dofp1 == NULL, "can create");
 8004ae4:	4938      	ldr	r1, [pc, #224]	; (8004bc8 <oslib_test_009_005_execute+0x138>)
 8004ae6:	fab0 f080 	clz	r0, r0
 8004aea:	0940      	lsrs	r0, r0, #5
 8004aec:	f7fc fb80 	bl	80011f0 <_test_assert>
 8004af0:	2800      	cmp	r0, #0
 8004af2:	d1db      	bne.n	8004aac <oslib_test_009_005_execute+0x1c>
  test_set_step(4);
 8004af4:	4b30      	ldr	r3, [pc, #192]	; (8004bb8 <oslib_test_009_005_execute+0x128>)
 8004af6:	2204      	movs	r2, #4
 8004af8:	601a      	str	r2, [r3, #0]
    dofp1 = chFactoryFindObjectsFIFO("myfifo");
 8004afa:	4830      	ldr	r0, [pc, #192]	; (8004bbc <oslib_test_009_005_execute+0x12c>)
 8004afc:	f7fe fc10 	bl	8003320 <chFactoryFindObjectsFIFO>
    test_assert(dofp1 != NULL, "not found");
 8004b00:	4605      	mov	r5, r0
 8004b02:	4932      	ldr	r1, [pc, #200]	; (8004bcc <oslib_test_009_005_execute+0x13c>)
 8004b04:	3800      	subs	r0, #0
 8004b06:	bf18      	it	ne
 8004b08:	2001      	movne	r0, #1
 8004b0a:	f7fc fb71 	bl	80011f0 <_test_assert>
 8004b0e:	2800      	cmp	r0, #0
 8004b10:	d1cc      	bne.n	8004aac <oslib_test_009_005_execute+0x1c>
    test_assert(dofp == dofp1, "object reference mismatch");
 8004b12:	492f      	ldr	r1, [pc, #188]	; (8004bd0 <oslib_test_009_005_execute+0x140>)
 8004b14:	42ac      	cmp	r4, r5
 8004b16:	bf14      	ite	ne
 8004b18:	2000      	movne	r0, #0
 8004b1a:	2001      	moveq	r0, #1
 8004b1c:	f7fc fb68 	bl	80011f0 <_test_assert>
 8004b20:	2800      	cmp	r0, #0
 8004b22:	d1c3      	bne.n	8004aac <oslib_test_009_005_execute+0x1c>
    test_assert(dofp1->element.refs == 2, "object reference mismatch");
 8004b24:	6868      	ldr	r0, [r5, #4]
 8004b26:	492a      	ldr	r1, [pc, #168]	; (8004bd0 <oslib_test_009_005_execute+0x140>)
 8004b28:	2802      	cmp	r0, #2
 8004b2a:	bf14      	ite	ne
 8004b2c:	2000      	movne	r0, #0
 8004b2e:	2001      	moveq	r0, #1
 8004b30:	f7fc fb5e 	bl	80011f0 <_test_assert>
 8004b34:	2800      	cmp	r0, #0
 8004b36:	d1b9      	bne.n	8004aac <oslib_test_009_005_execute+0x1c>
 8004b38:	686b      	ldr	r3, [r5, #4]
 8004b3a:	3301      	adds	r3, #1
 8004b3c:	606b      	str	r3, [r5, #4]
    test_assert(dofp1 == dofp2, "object reference mismatch");
 8004b3e:	4924      	ldr	r1, [pc, #144]	; (8004bd0 <oslib_test_009_005_execute+0x140>)
 8004b40:	2001      	movs	r0, #1
 8004b42:	f7fc fb55 	bl	80011f0 <_test_assert>
 8004b46:	2800      	cmp	r0, #0
 8004b48:	d1b0      	bne.n	8004aac <oslib_test_009_005_execute+0x1c>
    test_assert(dofp2->element.refs == 3, "object reference mismatch");
 8004b4a:	6868      	ldr	r0, [r5, #4]
 8004b4c:	4920      	ldr	r1, [pc, #128]	; (8004bd0 <oslib_test_009_005_execute+0x140>)
 8004b4e:	2803      	cmp	r0, #3
 8004b50:	bf14      	ite	ne
 8004b52:	2000      	movne	r0, #0
 8004b54:	2001      	moveq	r0, #1
 8004b56:	f7fc fb4b 	bl	80011f0 <_test_assert>
 8004b5a:	2800      	cmp	r0, #0
 8004b5c:	d1a6      	bne.n	8004aac <oslib_test_009_005_execute+0x1c>
    chFactoryReleaseObjectsFIFO(dofp2);
 8004b5e:	4628      	mov	r0, r5
 8004b60:	f7fe ffa6 	bl	8003ab0 <chFactoryReleaseObjectsFIFO>
    test_assert(dofp1->element.refs == 2, "references mismatch");
 8004b64:	6868      	ldr	r0, [r5, #4]
 8004b66:	491b      	ldr	r1, [pc, #108]	; (8004bd4 <oslib_test_009_005_execute+0x144>)
 8004b68:	2802      	cmp	r0, #2
 8004b6a:	bf14      	ite	ne
 8004b6c:	2000      	movne	r0, #0
 8004b6e:	2001      	moveq	r0, #1
 8004b70:	f7fc fb3e 	bl	80011f0 <_test_assert>
 8004b74:	2800      	cmp	r0, #0
 8004b76:	d199      	bne.n	8004aac <oslib_test_009_005_execute+0x1c>
    chFactoryReleaseObjectsFIFO(dofp1);
 8004b78:	4628      	mov	r0, r5
 8004b7a:	f7fe ff99 	bl	8003ab0 <chFactoryReleaseObjectsFIFO>
    test_assert(dofp->element.refs == 1, "references mismatch");
 8004b7e:	6860      	ldr	r0, [r4, #4]
 8004b80:	4914      	ldr	r1, [pc, #80]	; (8004bd4 <oslib_test_009_005_execute+0x144>)
 8004b82:	2801      	cmp	r0, #1
 8004b84:	bf14      	ite	ne
 8004b86:	2000      	movne	r0, #0
 8004b88:	2001      	moveq	r0, #1
 8004b8a:	f7fc fb31 	bl	80011f0 <_test_assert>
 8004b8e:	2800      	cmp	r0, #0
 8004b90:	d18c      	bne.n	8004aac <oslib_test_009_005_execute+0x1c>
  test_set_step(5);
 8004b92:	4d09      	ldr	r5, [pc, #36]	; (8004bb8 <oslib_test_009_005_execute+0x128>)
 8004b94:	2305      	movs	r3, #5
 8004b96:	602b      	str	r3, [r5, #0]
    chFactoryReleaseObjectsFIFO(dofp);
 8004b98:	4620      	mov	r0, r4
 8004b9a:	f7fe ff89 	bl	8003ab0 <chFactoryReleaseObjectsFIFO>
  test_set_step(6);
 8004b9e:	2306      	movs	r3, #6
 8004ba0:	602b      	str	r3, [r5, #0]
    dofp = chFactoryFindObjectsFIFO("myfifo");
 8004ba2:	4806      	ldr	r0, [pc, #24]	; (8004bbc <oslib_test_009_005_execute+0x12c>)
 8004ba4:	f7fe fbbc 	bl	8003320 <chFactoryFindObjectsFIFO>
    test_assert(dofp == NULL, "found");
 8004ba8:	4905      	ldr	r1, [pc, #20]	; (8004bc0 <oslib_test_009_005_execute+0x130>)
 8004baa:	fab0 f080 	clz	r0, r0
 8004bae:	0940      	lsrs	r0, r0, #5
 8004bb0:	f7fc fb1e 	bl	80011f0 <_test_assert>
  test_end_step(6);
 8004bb4:	e77a      	b.n	8004aac <oslib_test_009_005_execute+0x1c>
 8004bb6:	bf00      	nop
 8004bb8:	20001a7c 	.word	0x20001a7c
 8004bbc:	0800c680 	.word	0x0800c680
 8004bc0:	0800c58c 	.word	0x0800c58c
 8004bc4:	0800c56c 	.word	0x0800c56c
 8004bc8:	0800c57c 	.word	0x0800c57c
 8004bcc:	0800c588 	.word	0x0800c588
 8004bd0:	0800c594 	.word	0x0800c594
 8004bd4:	0800c5b0 	.word	0x0800c5b0
	...

08004be0 <chSemResetWithMessageI>:
void chSemResetWithMessageI(semaphore_t *sp, cnt_t n, msg_t msg) {
 8004be0:	b570      	push	{r4, r5, r6, lr}
 8004be2:	4604      	mov	r4, r0
 8004be4:	4616      	mov	r6, r2
  cnt = sp->cnt;
 8004be6:	6885      	ldr	r5, [r0, #8]
  sp->cnt = n;
 8004be8:	6081      	str	r1, [r0, #8]
  while (++cnt <= (cnt_t)0) {
 8004bea:	3501      	adds	r5, #1
 8004bec:	2d00      	cmp	r5, #0
 8004bee:	dc07      	bgt.n	8004c00 <chSemResetWithMessageI+0x20>
  thread_t *tp = tqp->prev;
 8004bf0:	6860      	ldr	r0, [r4, #4]
  tqp->prev             = tp->queue.prev;
 8004bf2:	6843      	ldr	r3, [r0, #4]
 8004bf4:	6063      	str	r3, [r4, #4]
  tqp->prev->queue.next = (thread_t *)tqp;
 8004bf6:	601c      	str	r4, [r3, #0]
    chSchReadyI(queue_lifo_remove(&sp->queue))->u.rdymsg = msg;
 8004bf8:	f005 fc72 	bl	800a4e0 <chSchReadyI>
 8004bfc:	6246      	str	r6, [r0, #36]	; 0x24
 8004bfe:	e7f4      	b.n	8004bea <chSemResetWithMessageI+0xa>
}
 8004c00:	bd70      	pop	{r4, r5, r6, pc}
 8004c02:	bf00      	nop
	...

08004c10 <chSemResetWithMessage>:
void chSemResetWithMessage(semaphore_t *sp, cnt_t n, msg_t msg) {
 8004c10:	b508      	push	{r3, lr}
 8004c12:	2320      	movs	r3, #32
 8004c14:	f383 8811 	msr	BASEPRI, r3
  chSemResetWithMessageI(sp, n, msg);
 8004c18:	f7ff ffe2 	bl	8004be0 <chSemResetWithMessageI>
  chSchRescheduleS();
 8004c1c:	f005 fc38 	bl	800a490 <chSchRescheduleS>
 8004c20:	2300      	movs	r3, #0
 8004c22:	f383 8811 	msr	BASEPRI, r3
}
 8004c26:	bd08      	pop	{r3, pc}
	...

08004c30 <rt_test_006_001_execute>:
static void rt_test_006_001_execute(void) {
 8004c30:	b538      	push	{r3, r4, r5, lr}
  test_set_step(1);
 8004c32:	4b2d      	ldr	r3, [pc, #180]	; (8004ce8 <rt_test_006_001_execute+0xb8>)
 8004c34:	2201      	movs	r2, #1
 8004c36:	601a      	str	r2, [r3, #0]
    msg = chSemWait(&sem1);
 8004c38:	4d2c      	ldr	r5, [pc, #176]	; (8004cec <rt_test_006_001_execute+0xbc>)
 8004c3a:	4628      	mov	r0, r5
 8004c3c:	f7fd fc48 	bl	80024d0 <chSemWait>
 8004c40:	4604      	mov	r4, r0
 8004c42:	2320      	movs	r3, #32
 8004c44:	f383 8811 	msr	BASEPRI, r3
  return sp->cnt;
 8004c48:	68a8      	ldr	r0, [r5, #8]
    test_assert_lock(chSemGetCounterI(&sem1) == 0, "wrong counter value");
 8004c4a:	4929      	ldr	r1, [pc, #164]	; (8004cf0 <rt_test_006_001_execute+0xc0>)
 8004c4c:	fab0 f080 	clz	r0, r0
 8004c50:	0940      	lsrs	r0, r0, #5
 8004c52:	f7fc facd 	bl	80011f0 <_test_assert>
 8004c56:	b118      	cbz	r0, 8004c60 <rt_test_006_001_execute+0x30>
 8004c58:	2300      	movs	r3, #0
 8004c5a:	f383 8811 	msr	BASEPRI, r3
}
 8004c5e:	bd38      	pop	{r3, r4, r5, pc}
 8004c60:	2300      	movs	r3, #0
 8004c62:	f383 8811 	msr	BASEPRI, r3
    test_assert(MSG_OK == msg, "wrong returned message");
 8004c66:	4923      	ldr	r1, [pc, #140]	; (8004cf4 <rt_test_006_001_execute+0xc4>)
 8004c68:	fab4 f084 	clz	r0, r4
 8004c6c:	0940      	lsrs	r0, r0, #5
 8004c6e:	f7fc fabf 	bl	80011f0 <_test_assert>
 8004c72:	2800      	cmp	r0, #0
 8004c74:	d1f3      	bne.n	8004c5e <rt_test_006_001_execute+0x2e>
  test_set_step(2);
 8004c76:	4b1c      	ldr	r3, [pc, #112]	; (8004ce8 <rt_test_006_001_execute+0xb8>)
 8004c78:	2202      	movs	r2, #2
 8004c7a:	601a      	str	r2, [r3, #0]
    chSemSignal(&sem1);
 8004c7c:	4c1b      	ldr	r4, [pc, #108]	; (8004cec <rt_test_006_001_execute+0xbc>)
 8004c7e:	4620      	mov	r0, r4
 8004c80:	f7fd faa6 	bl	80021d0 <chSemSignal>
 8004c84:	2320      	movs	r3, #32
 8004c86:	f383 8811 	msr	BASEPRI, r3
 8004c8a:	68a0      	ldr	r0, [r4, #8]
    test_assert_lock(chSemGetCounterI(&sem1) == 1, "wrong counter value");
 8004c8c:	4918      	ldr	r1, [pc, #96]	; (8004cf0 <rt_test_006_001_execute+0xc0>)
 8004c8e:	2801      	cmp	r0, #1
 8004c90:	bf14      	ite	ne
 8004c92:	2000      	movne	r0, #0
 8004c94:	2001      	moveq	r0, #1
 8004c96:	f7fc faab 	bl	80011f0 <_test_assert>
 8004c9a:	b118      	cbz	r0, 8004ca4 <rt_test_006_001_execute+0x74>
 8004c9c:	2300      	movs	r3, #0
 8004c9e:	f383 8811 	msr	BASEPRI, r3
 8004ca2:	e7dc      	b.n	8004c5e <rt_test_006_001_execute+0x2e>
 8004ca4:	2300      	movs	r3, #0
 8004ca6:	f383 8811 	msr	BASEPRI, r3
  test_set_step(3);
 8004caa:	4b0f      	ldr	r3, [pc, #60]	; (8004ce8 <rt_test_006_001_execute+0xb8>)
 8004cac:	2203      	movs	r2, #3
 8004cae:	601a      	str	r2, [r3, #0]
  chSemResetWithMessage(sp, n, MSG_RESET);
 8004cb0:	4c0e      	ldr	r4, [pc, #56]	; (8004cec <rt_test_006_001_execute+0xbc>)
 8004cb2:	f06f 0201 	mvn.w	r2, #1
 8004cb6:	2102      	movs	r1, #2
 8004cb8:	4620      	mov	r0, r4
 8004cba:	f7ff ffa9 	bl	8004c10 <chSemResetWithMessage>
 8004cbe:	2320      	movs	r3, #32
 8004cc0:	f383 8811 	msr	BASEPRI, r3
  return sp->cnt;
 8004cc4:	68a0      	ldr	r0, [r4, #8]
    test_assert_lock(chSemGetCounterI(&sem1) == 2, "wrong counter value");
 8004cc6:	490a      	ldr	r1, [pc, #40]	; (8004cf0 <rt_test_006_001_execute+0xc0>)
 8004cc8:	2802      	cmp	r0, #2
 8004cca:	bf14      	ite	ne
 8004ccc:	2000      	movne	r0, #0
 8004cce:	2001      	moveq	r0, #1
 8004cd0:	f7fc fa8e 	bl	80011f0 <_test_assert>
 8004cd4:	b918      	cbnz	r0, 8004cde <rt_test_006_001_execute+0xae>
 8004cd6:	2300      	movs	r3, #0
 8004cd8:	f383 8811 	msr	BASEPRI, r3
  test_end_step(3);
 8004cdc:	e7bf      	b.n	8004c5e <rt_test_006_001_execute+0x2e>
 8004cde:	2300      	movs	r3, #0
 8004ce0:	f383 8811 	msr	BASEPRI, r3
    test_assert_lock(chSemGetCounterI(&sem1) == 2, "wrong counter value");
 8004ce4:	e7bb      	b.n	8004c5e <rt_test_006_001_execute+0x2e>
 8004ce6:	bf00      	nop
 8004ce8:	20001a7c 	.word	0x20001a7c
 8004cec:	20001348 	.word	0x20001348
 8004cf0:	0800c7f4 	.word	0x0800c7f4
 8004cf4:	0800c808 	.word	0x0800c808
	...

08004d00 <rt_test_006_001_teardown>:
static void rt_test_006_001_teardown(void) {
 8004d00:	b508      	push	{r3, lr}
  chSemResetWithMessage(sp, n, MSG_RESET);
 8004d02:	f06f 0201 	mvn.w	r2, #1
 8004d06:	2100      	movs	r1, #0
 8004d08:	4801      	ldr	r0, [pc, #4]	; (8004d10 <rt_test_006_001_teardown+0x10>)
 8004d0a:	f7ff ff81 	bl	8004c10 <chSemResetWithMessage>
}
 8004d0e:	bd08      	pop	{r3, pc}
 8004d10:	20001348 	.word	0x20001348
	...

08004d20 <chThdExitS>:
void chThdExitS(msg_t msg) {
 8004d20:	b510      	push	{r4, lr}
  thread_t *tp = currp;
 8004d22:	4b0f      	ldr	r3, [pc, #60]	; (8004d60 <chThdExitS+0x40>)
 8004d24:	699c      	ldr	r4, [r3, #24]
  tp->u.exitcode = msg;
 8004d26:	6260      	str	r0, [r4, #36]	; 0x24
  while (list_notempty(&tp->waiting)) {
 8004d28:	f104 0328 	add.w	r3, r4, #40	; 0x28
  return (bool)(tlp->next != (thread_t *)tlp);
 8004d2c:	6aa0      	ldr	r0, [r4, #40]	; 0x28
 8004d2e:	4283      	cmp	r3, r0
 8004d30:	d004      	beq.n	8004d3c <chThdExitS+0x1c>
  tlp->next = tp->queue.next;
 8004d32:	6803      	ldr	r3, [r0, #0]
 8004d34:	62a3      	str	r3, [r4, #40]	; 0x28
    (void) chSchReadyI(list_remove(&tp->waiting));
 8004d36:	f005 fbd3 	bl	800a4e0 <chSchReadyI>
 8004d3a:	e7f5      	b.n	8004d28 <chThdExitS+0x8>
  if ((tp->refs == (trefs_t)0) &&
 8004d3c:	f894 3022 	ldrb.w	r3, [r4, #34]	; 0x22
 8004d40:	b94b      	cbnz	r3, 8004d56 <chThdExitS+0x36>
      ((tp->flags & CH_FLAG_MODE_MASK) == CH_FLAG_MODE_STATIC)) {
 8004d42:	f894 3021 	ldrb.w	r3, [r4, #33]	; 0x21
  if ((tp->refs == (trefs_t)0) &&
 8004d46:	f013 0f03 	tst.w	r3, #3
 8004d4a:	d104      	bne.n	8004d56 <chThdExitS+0x36>
    REG_REMOVE(tp);
 8004d4c:	6962      	ldr	r2, [r4, #20]
 8004d4e:	6923      	ldr	r3, [r4, #16]
 8004d50:	6113      	str	r3, [r2, #16]
 8004d52:	6962      	ldr	r2, [r4, #20]
 8004d54:	615a      	str	r2, [r3, #20]
  chSchGoSleepS(CH_STATE_FINAL);
 8004d56:	200f      	movs	r0, #15
 8004d58:	f005 fbaa 	bl	800a4b0 <chSchGoSleepS>
}
 8004d5c:	bd10      	pop	{r4, pc}
 8004d5e:	bf00      	nop
 8004d60:	20001040 	.word	0x20001040
	...

08004d70 <chEvtWaitAllTimeout>:
 * @return              The mask of the served and cleared events.
 * @retval 0            if the operation has timed out.
 *
 * @api
 */
eventmask_t chEvtWaitAllTimeout(eventmask_t events, sysinterval_t timeout) {
 8004d70:	b538      	push	{r3, r4, r5, lr}
 8004d72:	4604      	mov	r4, r0
  thread_t *ctp = currp;
 8004d74:	4b10      	ldr	r3, [pc, #64]	; (8004db8 <chEvtWaitAllTimeout+0x48>)
 8004d76:	699d      	ldr	r5, [r3, #24]
 8004d78:	2320      	movs	r3, #32
 8004d7a:	f383 8811 	msr	BASEPRI, r3

  chSysLock();
  if ((ctp->epending & events) != events) {
 8004d7e:	6b6b      	ldr	r3, [r5, #52]	; 0x34
 8004d80:	ea30 0303 	bics.w	r3, r0, r3
 8004d84:	d00b      	beq.n	8004d9e <chEvtWaitAllTimeout+0x2e>
    if (TIME_IMMEDIATE == timeout) {
 8004d86:	b921      	cbnz	r1, 8004d92 <chEvtWaitAllTimeout+0x22>
 8004d88:	2300      	movs	r3, #0
 8004d8a:	f383 8811 	msr	BASEPRI, r3
      chSysUnlock();
      return (eventmask_t)0;
 8004d8e:	4608      	mov	r0, r1
 8004d90:	e00d      	b.n	8004dae <chEvtWaitAllTimeout+0x3e>
    }
    ctp->u.ewmask = events;
 8004d92:	6268      	str	r0, [r5, #36]	; 0x24
    if (chSchGoSleepTimeoutS(CH_STATE_WTANDEVT, timeout) < MSG_OK) {
 8004d94:	200b      	movs	r0, #11
 8004d96:	f006 f8c3 	bl	800af20 <chSchGoSleepTimeoutS>
 8004d9a:	2800      	cmp	r0, #0
 8004d9c:	db08      	blt.n	8004db0 <chEvtWaitAllTimeout+0x40>
      chSysUnlock();
      return (eventmask_t)0;
    }
  }
  ctp->epending &= ~events;
 8004d9e:	6b6b      	ldr	r3, [r5, #52]	; 0x34
 8004da0:	ea23 0304 	bic.w	r3, r3, r4
 8004da4:	636b      	str	r3, [r5, #52]	; 0x34
 8004da6:	2300      	movs	r3, #0
 8004da8:	f383 8811 	msr	BASEPRI, r3
  chSysUnlock();

  return events;
 8004dac:	4620      	mov	r0, r4
}
 8004dae:	bd38      	pop	{r3, r4, r5, pc}
 8004db0:	2000      	movs	r0, #0
 8004db2:	f380 8811 	msr	BASEPRI, r0
      return (eventmask_t)0;
 8004db6:	e7fa      	b.n	8004dae <chEvtWaitAllTimeout+0x3e>
 8004db8:	20001040 	.word	0x20001040
 8004dbc:	00000000 	.word	0x00000000

08004dc0 <chEvtWaitAnyTimeout>:
eventmask_t chEvtWaitAnyTimeout(eventmask_t events, sysinterval_t timeout) {
 8004dc0:	b570      	push	{r4, r5, r6, lr}
  thread_t *ctp = currp;
 8004dc2:	4b12      	ldr	r3, [pc, #72]	; (8004e0c <chEvtWaitAnyTimeout+0x4c>)
 8004dc4:	699e      	ldr	r6, [r3, #24]
 8004dc6:	2320      	movs	r3, #32
 8004dc8:	f383 8811 	msr	BASEPRI, r3
  m = ctp->epending & events;
 8004dcc:	6b74      	ldr	r4, [r6, #52]	; 0x34
  if (m == (eventmask_t)0) {
 8004dce:	4004      	ands	r4, r0
 8004dd0:	d10e      	bne.n	8004df0 <chEvtWaitAnyTimeout+0x30>
 8004dd2:	4605      	mov	r5, r0
    if (TIME_IMMEDIATE == timeout) {
 8004dd4:	b921      	cbnz	r1, 8004de0 <chEvtWaitAnyTimeout+0x20>
 8004dd6:	2300      	movs	r3, #0
 8004dd8:	f383 8811 	msr	BASEPRI, r3
      return (eventmask_t)0;
 8004ddc:	460c      	mov	r4, r1
 8004dde:	e00e      	b.n	8004dfe <chEvtWaitAnyTimeout+0x3e>
    ctp->u.ewmask = events;
 8004de0:	6270      	str	r0, [r6, #36]	; 0x24
    if (chSchGoSleepTimeoutS(CH_STATE_WTOREVT, timeout) < MSG_OK) {
 8004de2:	200a      	movs	r0, #10
 8004de4:	f006 f89c 	bl	800af20 <chSchGoSleepTimeoutS>
 8004de8:	2800      	cmp	r0, #0
 8004dea:	db0a      	blt.n	8004e02 <chEvtWaitAnyTimeout+0x42>
    m = ctp->epending & events;
 8004dec:	6b74      	ldr	r4, [r6, #52]	; 0x34
 8004dee:	402c      	ands	r4, r5
  ctp->epending &= ~m;
 8004df0:	6b73      	ldr	r3, [r6, #52]	; 0x34
 8004df2:	ea23 0304 	bic.w	r3, r3, r4
 8004df6:	6373      	str	r3, [r6, #52]	; 0x34
 8004df8:	2300      	movs	r3, #0
 8004dfa:	f383 8811 	msr	BASEPRI, r3
}
 8004dfe:	4620      	mov	r0, r4
 8004e00:	bd70      	pop	{r4, r5, r6, pc}
 8004e02:	2300      	movs	r3, #0
 8004e04:	f383 8811 	msr	BASEPRI, r3
      return (eventmask_t)0;
 8004e08:	e7f9      	b.n	8004dfe <chEvtWaitAnyTimeout+0x3e>
 8004e0a:	bf00      	nop
 8004e0c:	20001040 	.word	0x20001040

08004e10 <chEvtWaitOneTimeout>:
eventmask_t chEvtWaitOneTimeout(eventmask_t events, sysinterval_t timeout) {
 8004e10:	b570      	push	{r4, r5, r6, lr}
  thread_t *ctp = currp;
 8004e12:	4b13      	ldr	r3, [pc, #76]	; (8004e60 <chEvtWaitOneTimeout+0x50>)
 8004e14:	699e      	ldr	r6, [r3, #24]
 8004e16:	2320      	movs	r3, #32
 8004e18:	f383 8811 	msr	BASEPRI, r3
  m = ctp->epending & events;
 8004e1c:	6b74      	ldr	r4, [r6, #52]	; 0x34
  if (m == (eventmask_t)0) {
 8004e1e:	4004      	ands	r4, r0
 8004e20:	d10e      	bne.n	8004e40 <chEvtWaitOneTimeout+0x30>
 8004e22:	4605      	mov	r5, r0
    if (TIME_IMMEDIATE == timeout) {
 8004e24:	b921      	cbnz	r1, 8004e30 <chEvtWaitOneTimeout+0x20>
 8004e26:	2300      	movs	r3, #0
 8004e28:	f383 8811 	msr	BASEPRI, r3
      return (eventmask_t)0;
 8004e2c:	460c      	mov	r4, r1
 8004e2e:	e010      	b.n	8004e52 <chEvtWaitOneTimeout+0x42>
    ctp->u.ewmask = events;
 8004e30:	6270      	str	r0, [r6, #36]	; 0x24
    if (chSchGoSleepTimeoutS(CH_STATE_WTOREVT, timeout) < MSG_OK) {
 8004e32:	200a      	movs	r0, #10
 8004e34:	f006 f874 	bl	800af20 <chSchGoSleepTimeoutS>
 8004e38:	2800      	cmp	r0, #0
 8004e3a:	db0c      	blt.n	8004e56 <chEvtWaitOneTimeout+0x46>
    m = ctp->epending & events;
 8004e3c:	6b74      	ldr	r4, [r6, #52]	; 0x34
 8004e3e:	402c      	ands	r4, r5
  m ^= m & (m - (eventmask_t)1);
 8004e40:	4263      	negs	r3, r4
 8004e42:	401c      	ands	r4, r3
  ctp->epending &= ~m;
 8004e44:	6b73      	ldr	r3, [r6, #52]	; 0x34
 8004e46:	ea23 0304 	bic.w	r3, r3, r4
 8004e4a:	6373      	str	r3, [r6, #52]	; 0x34
 8004e4c:	2300      	movs	r3, #0
 8004e4e:	f383 8811 	msr	BASEPRI, r3
}
 8004e52:	4620      	mov	r0, r4
 8004e54:	bd70      	pop	{r4, r5, r6, pc}
 8004e56:	2300      	movs	r3, #0
 8004e58:	f383 8811 	msr	BASEPRI, r3
      return (eventmask_t)0;
 8004e5c:	e7f9      	b.n	8004e52 <chEvtWaitOneTimeout+0x42>
 8004e5e:	bf00      	nop
 8004e60:	20001040 	.word	0x20001040
	...

08004e70 <rt_test_009_006_execute>:
static void rt_test_009_006_execute(void) {
 8004e70:	b508      	push	{r3, lr}
  test_set_step(1);
 8004e72:	4b2b      	ldr	r3, [pc, #172]	; (8004f20 <rt_test_009_006_execute+0xb0>)
 8004e74:	2201      	movs	r2, #1
 8004e76:	601a      	str	r2, [r3, #0]
    m = chEvtWaitOneTimeout(ALL_EVENTS, TIME_IMMEDIATE);
 8004e78:	2100      	movs	r1, #0
 8004e7a:	f04f 30ff 	mov.w	r0, #4294967295	; 0xffffffff
 8004e7e:	f7ff ffc7 	bl	8004e10 <chEvtWaitOneTimeout>
    test_assert(m == 0, "spurious event");
 8004e82:	4928      	ldr	r1, [pc, #160]	; (8004f24 <rt_test_009_006_execute+0xb4>)
 8004e84:	fab0 f080 	clz	r0, r0
 8004e88:	0940      	lsrs	r0, r0, #5
 8004e8a:	f7fc f9b1 	bl	80011f0 <_test_assert>
 8004e8e:	b100      	cbz	r0, 8004e92 <rt_test_009_006_execute+0x22>
}
 8004e90:	bd08      	pop	{r3, pc}
    m = chEvtWaitAnyTimeout(ALL_EVENTS, TIME_IMMEDIATE);
 8004e92:	2100      	movs	r1, #0
 8004e94:	f04f 30ff 	mov.w	r0, #4294967295	; 0xffffffff
 8004e98:	f7ff ff92 	bl	8004dc0 <chEvtWaitAnyTimeout>
    test_assert(m == 0, "spurious event");
 8004e9c:	4921      	ldr	r1, [pc, #132]	; (8004f24 <rt_test_009_006_execute+0xb4>)
 8004e9e:	fab0 f080 	clz	r0, r0
 8004ea2:	0940      	lsrs	r0, r0, #5
 8004ea4:	f7fc f9a4 	bl	80011f0 <_test_assert>
 8004ea8:	2800      	cmp	r0, #0
 8004eaa:	d1f1      	bne.n	8004e90 <rt_test_009_006_execute+0x20>
    m = chEvtWaitAllTimeout(ALL_EVENTS, TIME_IMMEDIATE);
 8004eac:	2100      	movs	r1, #0
 8004eae:	f04f 30ff 	mov.w	r0, #4294967295	; 0xffffffff
 8004eb2:	f7ff ff5d 	bl	8004d70 <chEvtWaitAllTimeout>
    test_assert(m == 0, "spurious event");
 8004eb6:	491b      	ldr	r1, [pc, #108]	; (8004f24 <rt_test_009_006_execute+0xb4>)
 8004eb8:	fab0 f080 	clz	r0, r0
 8004ebc:	0940      	lsrs	r0, r0, #5
 8004ebe:	f7fc f997 	bl	80011f0 <_test_assert>
 8004ec2:	2800      	cmp	r0, #0
 8004ec4:	d1e4      	bne.n	8004e90 <rt_test_009_006_execute+0x20>
  test_set_step(2);
 8004ec6:	4b16      	ldr	r3, [pc, #88]	; (8004f20 <rt_test_009_006_execute+0xb0>)
 8004ec8:	2202      	movs	r2, #2
 8004eca:	601a      	str	r2, [r3, #0]
    m = chEvtWaitOneTimeout(ALL_EVENTS, TIME_MS2I(50));
 8004ecc:	f44f 71fa 	mov.w	r1, #500	; 0x1f4
 8004ed0:	f04f 30ff 	mov.w	r0, #4294967295	; 0xffffffff
 8004ed4:	f7ff ff9c 	bl	8004e10 <chEvtWaitOneTimeout>
    test_assert(m == 0, "spurious event");
 8004ed8:	4912      	ldr	r1, [pc, #72]	; (8004f24 <rt_test_009_006_execute+0xb4>)
 8004eda:	fab0 f080 	clz	r0, r0
 8004ede:	0940      	lsrs	r0, r0, #5
 8004ee0:	f7fc f986 	bl	80011f0 <_test_assert>
 8004ee4:	2800      	cmp	r0, #0
 8004ee6:	d1d3      	bne.n	8004e90 <rt_test_009_006_execute+0x20>
    m = chEvtWaitAnyTimeout(ALL_EVENTS, TIME_MS2I(50));
 8004ee8:	f44f 71fa 	mov.w	r1, #500	; 0x1f4
 8004eec:	f04f 30ff 	mov.w	r0, #4294967295	; 0xffffffff
 8004ef0:	f7ff ff66 	bl	8004dc0 <chEvtWaitAnyTimeout>
    test_assert(m == 0, "spurious event");
 8004ef4:	490b      	ldr	r1, [pc, #44]	; (8004f24 <rt_test_009_006_execute+0xb4>)
 8004ef6:	fab0 f080 	clz	r0, r0
 8004efa:	0940      	lsrs	r0, r0, #5
 8004efc:	f7fc f978 	bl	80011f0 <_test_assert>
 8004f00:	2800      	cmp	r0, #0
 8004f02:	d1c5      	bne.n	8004e90 <rt_test_009_006_execute+0x20>
    m = chEvtWaitAllTimeout(ALL_EVENTS, TIME_MS2I(50));
 8004f04:	f44f 71fa 	mov.w	r1, #500	; 0x1f4
 8004f08:	f04f 30ff 	mov.w	r0, #4294967295	; 0xffffffff
 8004f0c:	f7ff ff30 	bl	8004d70 <chEvtWaitAllTimeout>
    test_assert(m == 0, "spurious event");
 8004f10:	4904      	ldr	r1, [pc, #16]	; (8004f24 <rt_test_009_006_execute+0xb4>)
 8004f12:	fab0 f080 	clz	r0, r0
 8004f16:	0940      	lsrs	r0, r0, #5
 8004f18:	f7fc f96a 	bl	80011f0 <_test_assert>
  test_end_step(2);
 8004f1c:	e7b8      	b.n	8004e90 <rt_test_009_006_execute+0x20>
 8004f1e:	bf00      	nop
 8004f20:	20001a7c 	.word	0x20001a7c
 8004f24:	0800c820 	.word	0x0800c820
	...

08004f30 <chCondWaitTimeoutS>:
 * @retval MSG_TIMEOUT  if the condition variable has not been signaled within
 *                      the specified timeout.
 *
 * @sclass
 */
msg_t chCondWaitTimeoutS(condition_variable_t *cp, sysinterval_t timeout) {
 8004f30:	e92d 41f0 	stmdb	sp!, {r4, r5, r6, r7, r8, lr}
 8004f34:	4604      	mov	r4, r0
 8004f36:	4688      	mov	r8, r1
  return ch.rlist.current;
 8004f38:	4d11      	ldr	r5, [pc, #68]	; (8004f80 <chCondWaitTimeoutS+0x50>)
 8004f3a:	69ab      	ldr	r3, [r5, #24]
 8004f3c:	6b9f      	ldr	r7, [r3, #56]	; 0x38
  chDbgCheckClassS();
  chDbgCheck((cp != NULL) && (timeout != TIME_IMMEDIATE));
  chDbgAssert(mp != NULL, "not owning a mutex");

  /* Releasing "current" mutex.*/
  chMtxUnlockS(mp);
 8004f3e:	4638      	mov	r0, r7
 8004f40:	f7fe f80e 	bl	8002f60 <chMtxUnlockS>

  /* Start waiting on the condition variable, on exit the mutex is taken
     again.*/
  currp->u.wtobjp = cp;
 8004f44:	69ad      	ldr	r5, [r5, #24]
 8004f46:	626c      	str	r4, [r5, #36]	; 0x24
  queue_prio_insert(currp, &cp->queue);
 8004f48:	4626      	mov	r6, r4
    cp = cp->queue.next;
 8004f4a:	6824      	ldr	r4, [r4, #0]
  } while ((cp != (thread_t *)tqp) && (cp->prio >= tp->prio));
 8004f4c:	42a6      	cmp	r6, r4
 8004f4e:	d003      	beq.n	8004f58 <chCondWaitTimeoutS+0x28>
 8004f50:	68a2      	ldr	r2, [r4, #8]
 8004f52:	68ab      	ldr	r3, [r5, #8]
 8004f54:	429a      	cmp	r2, r3
 8004f56:	d2f8      	bcs.n	8004f4a <chCondWaitTimeoutS+0x1a>
  tp->queue.next             = cp;
 8004f58:	602c      	str	r4, [r5, #0]
  tp->queue.prev             = cp->queue.prev;
 8004f5a:	6863      	ldr	r3, [r4, #4]
 8004f5c:	606b      	str	r3, [r5, #4]
  tp->queue.prev->queue.next = tp;
 8004f5e:	601d      	str	r5, [r3, #0]
  cp->queue.prev             = tp;
 8004f60:	6065      	str	r5, [r4, #4]
  msg = chSchGoSleepTimeoutS(CH_STATE_WTCOND, timeout);
 8004f62:	4641      	mov	r1, r8
 8004f64:	2007      	movs	r0, #7
 8004f66:	f005 ffdb 	bl	800af20 <chSchGoSleepTimeoutS>
 8004f6a:	4604      	mov	r4, r0
  if (msg != MSG_TIMEOUT) {
 8004f6c:	f1b0 3fff 	cmp.w	r0, #4294967295	; 0xffffffff
 8004f70:	d102      	bne.n	8004f78 <chCondWaitTimeoutS+0x48>
    chMtxLockS(mp);
  }

  return msg;
}
 8004f72:	4620      	mov	r0, r4
 8004f74:	e8bd 81f0 	ldmia.w	sp!, {r4, r5, r6, r7, r8, pc}
    chMtxLockS(mp);
 8004f78:	4638      	mov	r0, r7
 8004f7a:	f7fe f8d9 	bl	8003130 <chMtxLockS>
  return msg;
 8004f7e:	e7f8      	b.n	8004f72 <chCondWaitTimeoutS+0x42>
 8004f80:	20001040 	.word	0x20001040
	...

08004f90 <chCondWaitTimeout>:
msg_t chCondWaitTimeout(condition_variable_t *cp, sysinterval_t timeout) {
 8004f90:	b508      	push	{r3, lr}
 8004f92:	2320      	movs	r3, #32
 8004f94:	f383 8811 	msr	BASEPRI, r3
  msg = chCondWaitTimeoutS(cp, timeout);
 8004f98:	f7ff ffca 	bl	8004f30 <chCondWaitTimeoutS>
 8004f9c:	2300      	movs	r3, #0
 8004f9e:	f383 8811 	msr	BASEPRI, r3
}
 8004fa2:	bd08      	pop	{r3, pc}
	...

08004fb0 <thread8>:
static THD_FUNCTION(thread8, p) {
 8004fb0:	b570      	push	{r4, r5, r6, lr}
 8004fb2:	4604      	mov	r4, r0
  chMtxLock(&m2);
 8004fb4:	4d0b      	ldr	r5, [pc, #44]	; (8004fe4 <thread8+0x34>)
 8004fb6:	4628      	mov	r0, r5
 8004fb8:	f7fe f952 	bl	8003260 <chMtxLock>
  chMtxLock(&m1);
 8004fbc:	4e0a      	ldr	r6, [pc, #40]	; (8004fe8 <thread8+0x38>)
 8004fbe:	4630      	mov	r0, r6
 8004fc0:	f7fe f94e 	bl	8003260 <chMtxLock>
  chCondWaitTimeout(&c1, TIME_INFINITE);
 8004fc4:	f04f 31ff 	mov.w	r1, #4294967295	; 0xffffffff
 8004fc8:	4808      	ldr	r0, [pc, #32]	; (8004fec <thread8+0x3c>)
 8004fca:	f7ff ffe1 	bl	8004f90 <chCondWaitTimeout>
  test_emit_token(*(char *)p);
 8004fce:	7820      	ldrb	r0, [r4, #0]
 8004fd0:	f7fb fc1e 	bl	8000810 <test_emit_token>
  chMtxUnlock(&m1);
 8004fd4:	4630      	mov	r0, r6
 8004fd6:	f7fd ffeb 	bl	8002fb0 <chMtxUnlock>
  chMtxUnlock(&m2);
 8004fda:	4628      	mov	r0, r5
 8004fdc:	f7fd ffe8 	bl	8002fb0 <chMtxUnlock>
}
 8004fe0:	bd70      	pop	{r4, r5, r6, pc}
 8004fe2:	bf00      	nop
 8004fe4:	2000083c 	.word	0x2000083c
 8004fe8:	2000082c 	.word	0x2000082c
 8004fec:	20000800 	.word	0x20000800

08004ff0 <chSemWaitTimeoutS>:
msg_t chSemWaitTimeoutS(semaphore_t *sp, sysinterval_t timeout) {
 8004ff0:	b508      	push	{r3, lr}
  if (--sp->cnt < (cnt_t)0) {
 8004ff2:	6882      	ldr	r2, [r0, #8]
 8004ff4:	1e53      	subs	r3, r2, #1
 8004ff6:	6083      	str	r3, [r0, #8]
 8004ff8:	2b00      	cmp	r3, #0
 8004ffa:	db01      	blt.n	8005000 <chSemWaitTimeoutS+0x10>
  return MSG_OK;
 8004ffc:	2000      	movs	r0, #0
}
 8004ffe:	bd08      	pop	{r3, pc}
    if (TIME_IMMEDIATE == timeout) {
 8005000:	b159      	cbz	r1, 800501a <chSemWaitTimeoutS+0x2a>
    currp->u.wtsemp = sp;
 8005002:	4b08      	ldr	r3, [pc, #32]	; (8005024 <chSemWaitTimeoutS+0x34>)
 8005004:	699b      	ldr	r3, [r3, #24]
 8005006:	6258      	str	r0, [r3, #36]	; 0x24
  tp->queue.next             = (thread_t *)tqp;
 8005008:	6018      	str	r0, [r3, #0]
  tp->queue.prev             = tqp->prev;
 800500a:	6842      	ldr	r2, [r0, #4]
 800500c:	605a      	str	r2, [r3, #4]
  tp->queue.prev->queue.next = tp;
 800500e:	6013      	str	r3, [r2, #0]
  tqp->prev                  = tp;
 8005010:	6043      	str	r3, [r0, #4]
    return chSchGoSleepTimeoutS(CH_STATE_WTSEM, timeout);
 8005012:	2005      	movs	r0, #5
 8005014:	f005 ff84 	bl	800af20 <chSchGoSleepTimeoutS>
 8005018:	e7f1      	b.n	8004ffe <chSemWaitTimeoutS+0xe>
      sp->cnt++;
 800501a:	6082      	str	r2, [r0, #8]
      return MSG_TIMEOUT;
 800501c:	f04f 30ff 	mov.w	r0, #4294967295	; 0xffffffff
 8005020:	e7ed      	b.n	8004ffe <chSemWaitTimeoutS+0xe>
 8005022:	bf00      	nop
 8005024:	20001040 	.word	0x20001040
	...

08005030 <chGuardedPoolAllocTimeoutS>:
                                 sysinterval_t timeout) {
 8005030:	b510      	push	{r4, lr}
 8005032:	4604      	mov	r4, r0
  msg = chSemWaitTimeoutS(&gmp->sem, timeout);
 8005034:	f7ff ffdc 	bl	8004ff0 <chSemWaitTimeoutS>
  if (msg != MSG_OK) {
 8005038:	b920      	cbnz	r0, 8005044 <chGuardedPoolAllocTimeoutS+0x14>
  return chPoolAllocI(&gmp->pool);
 800503a:	f104 000c 	add.w	r0, r4, #12
 800503e:	f7fc fbaf 	bl	80017a0 <chPoolAllocI>
}
 8005042:	bd10      	pop	{r4, pc}
    return NULL;
 8005044:	2000      	movs	r0, #0
 8005046:	e7fc      	b.n	8005042 <chGuardedPoolAllocTimeoutS+0x12>
	...

08005050 <chGuardedPoolAllocTimeout>:
                                sysinterval_t timeout) {
 8005050:	b508      	push	{r3, lr}
 8005052:	2320      	movs	r3, #32
 8005054:	f383 8811 	msr	BASEPRI, r3
  p = chGuardedPoolAllocTimeoutS(gmp, timeout);
 8005058:	f7ff ffea 	bl	8005030 <chGuardedPoolAllocTimeoutS>
 800505c:	2300      	movs	r3, #0
 800505e:	f383 8811 	msr	BASEPRI, r3
}
 8005062:	bd08      	pop	{r3, pc}
	...

08005070 <oslib_test_007_003_execute>:

static void oslib_test_007_003_execute(void) {
 8005070:	b508      	push	{r3, lr}

  /* [7.3.1] Trying to allocate with 100mS timeout, must fail because
     the pool is empty.*/
  test_set_step(1);
 8005072:	4b07      	ldr	r3, [pc, #28]	; (8005090 <oslib_test_007_003_execute+0x20>)
 8005074:	2201      	movs	r2, #1
 8005076:	601a      	str	r2, [r3, #0]
  {
    test_assert(chGuardedPoolAllocTimeout(&gmp1, TIME_MS2I(100)) == NULL, "list not empty");
 8005078:	f44f 717a 	mov.w	r1, #1000	; 0x3e8
 800507c:	4805      	ldr	r0, [pc, #20]	; (8005094 <oslib_test_007_003_execute+0x24>)
 800507e:	f7ff ffe7 	bl	8005050 <chGuardedPoolAllocTimeout>
 8005082:	4905      	ldr	r1, [pc, #20]	; (8005098 <oslib_test_007_003_execute+0x28>)
 8005084:	fab0 f080 	clz	r0, r0
 8005088:	0940      	lsrs	r0, r0, #5
 800508a:	f7fc f8b1 	bl	80011f0 <_test_assert>
  }
  test_end_step(1);
}
 800508e:	bd08      	pop	{r3, pc}
 8005090:	20001a7c 	.word	0x20001a7c
 8005094:	20000810 	.word	0x20000810
 8005098:	0800c0e8 	.word	0x0800c0e8
 800509c:	00000000 	.word	0x00000000

080050a0 <oslib_test_007_002_execute>:
static void oslib_test_007_002_execute(void) {
 80050a0:	b510      	push	{r4, lr}
  test_set_step(1);
 80050a2:	4c2c      	ldr	r4, [pc, #176]	; (8005154 <oslib_test_007_002_execute+0xb4>)
 80050a4:	2301      	movs	r3, #1
 80050a6:	6023      	str	r3, [r4, #0]
    chGuardedPoolLoadArray(&gmp1, objects, MEMORY_POOL_SIZE);
 80050a8:	2204      	movs	r2, #4
 80050aa:	492b      	ldr	r1, [pc, #172]	; (8005158 <oslib_test_007_002_execute+0xb8>)
 80050ac:	482b      	ldr	r0, [pc, #172]	; (800515c <oslib_test_007_002_execute+0xbc>)
 80050ae:	f7ff fca7 	bl	8004a00 <chGuardedPoolLoadArray>
  test_set_step(2);
 80050b2:	2302      	movs	r3, #2
 80050b4:	6023      	str	r3, [r4, #0]
    for (i = 0; i < MEMORY_POOL_SIZE; i++)
 80050b6:	2400      	movs	r4, #0
 80050b8:	2c03      	cmp	r4, #3
 80050ba:	d80d      	bhi.n	80050d8 <oslib_test_007_002_execute+0x38>
      test_assert(chGuardedPoolAllocTimeout(&gmp1, TIME_IMMEDIATE) != NULL, "list empty");
 80050bc:	2100      	movs	r1, #0
 80050be:	4827      	ldr	r0, [pc, #156]	; (800515c <oslib_test_007_002_execute+0xbc>)
 80050c0:	f7ff ffc6 	bl	8005050 <chGuardedPoolAllocTimeout>
 80050c4:	4926      	ldr	r1, [pc, #152]	; (8005160 <oslib_test_007_002_execute+0xc0>)
 80050c6:	3800      	subs	r0, #0
 80050c8:	bf18      	it	ne
 80050ca:	2001      	movne	r0, #1
 80050cc:	f7fc f890 	bl	80011f0 <_test_assert>
 80050d0:	2800      	cmp	r0, #0
 80050d2:	d13d      	bne.n	8005150 <oslib_test_007_002_execute+0xb0>
    for (i = 0; i < MEMORY_POOL_SIZE; i++)
 80050d4:	3401      	adds	r4, #1
 80050d6:	e7ef      	b.n	80050b8 <oslib_test_007_002_execute+0x18>
  test_set_step(3);
 80050d8:	4b1e      	ldr	r3, [pc, #120]	; (8005154 <oslib_test_007_002_execute+0xb4>)
 80050da:	2203      	movs	r2, #3
 80050dc:	601a      	str	r2, [r3, #0]
    test_assert(chGuardedPoolAllocTimeout(&gmp1, TIME_IMMEDIATE) == NULL, "list not empty");
 80050de:	2100      	movs	r1, #0
 80050e0:	481e      	ldr	r0, [pc, #120]	; (800515c <oslib_test_007_002_execute+0xbc>)
 80050e2:	f7ff ffb5 	bl	8005050 <chGuardedPoolAllocTimeout>
 80050e6:	491f      	ldr	r1, [pc, #124]	; (8005164 <oslib_test_007_002_execute+0xc4>)
 80050e8:	fab0 f080 	clz	r0, r0
 80050ec:	0940      	lsrs	r0, r0, #5
 80050ee:	f7fc f87f 	bl	80011f0 <_test_assert>
 80050f2:	bb68      	cbnz	r0, 8005150 <oslib_test_007_002_execute+0xb0>
  test_set_step(4);
 80050f4:	4b17      	ldr	r3, [pc, #92]	; (8005154 <oslib_test_007_002_execute+0xb4>)
 80050f6:	2204      	movs	r2, #4
 80050f8:	601a      	str	r2, [r3, #0]
    for (i = 0; i < MEMORY_POOL_SIZE; i++)
 80050fa:	2400      	movs	r4, #0
 80050fc:	e006      	b.n	800510c <oslib_test_007_002_execute+0x6c>
      chGuardedPoolFree(&gmp1, &objects[i]);
 80050fe:	4916      	ldr	r1, [pc, #88]	; (8005158 <oslib_test_007_002_execute+0xb8>)
 8005100:	eb01 0184 	add.w	r1, r1, r4, lsl #2
 8005104:	4815      	ldr	r0, [pc, #84]	; (800515c <oslib_test_007_002_execute+0xbc>)
 8005106:	f7ff fc63 	bl	80049d0 <chGuardedPoolFree>
    for (i = 0; i < MEMORY_POOL_SIZE; i++)
 800510a:	3401      	adds	r4, #1
 800510c:	2c03      	cmp	r4, #3
 800510e:	d9f6      	bls.n	80050fe <oslib_test_007_002_execute+0x5e>
  test_set_step(5);
 8005110:	4b10      	ldr	r3, [pc, #64]	; (8005154 <oslib_test_007_002_execute+0xb4>)
 8005112:	2205      	movs	r2, #5
 8005114:	601a      	str	r2, [r3, #0]
    for (i = 0; i < MEMORY_POOL_SIZE; i++)
 8005116:	2400      	movs	r4, #0
 8005118:	2c03      	cmp	r4, #3
 800511a:	d80c      	bhi.n	8005136 <oslib_test_007_002_execute+0x96>
      test_assert(chGuardedPoolAllocTimeout(&gmp1, TIME_IMMEDIATE) != NULL, "list empty");
 800511c:	2100      	movs	r1, #0
 800511e:	480f      	ldr	r0, [pc, #60]	; (800515c <oslib_test_007_002_execute+0xbc>)
 8005120:	f7ff ff96 	bl	8005050 <chGuardedPoolAllocTimeout>
 8005124:	490e      	ldr	r1, [pc, #56]	; (8005160 <oslib_test_007_002_execute+0xc0>)
 8005126:	3800      	subs	r0, #0
 8005128:	bf18      	it	ne
 800512a:	2001      	movne	r0, #1
 800512c:	f7fc f860 	bl	80011f0 <_test_assert>
 8005130:	b970      	cbnz	r0, 8005150 <oslib_test_007_002_execute+0xb0>
    for (i = 0; i < MEMORY_POOL_SIZE; i++)
 8005132:	3401      	adds	r4, #1
 8005134:	e7f0      	b.n	8005118 <oslib_test_007_002_execute+0x78>
  test_set_step(6);
 8005136:	4b07      	ldr	r3, [pc, #28]	; (8005154 <oslib_test_007_002_execute+0xb4>)
 8005138:	2206      	movs	r2, #6
 800513a:	601a      	str	r2, [r3, #0]
    test_assert(chGuardedPoolAllocTimeout(&gmp1, TIME_IMMEDIATE) == NULL, "list not empty");
 800513c:	2100      	movs	r1, #0
 800513e:	4807      	ldr	r0, [pc, #28]	; (800515c <oslib_test_007_002_execute+0xbc>)
 8005140:	f7ff ff86 	bl	8005050 <chGuardedPoolAllocTimeout>
 8005144:	4907      	ldr	r1, [pc, #28]	; (8005164 <oslib_test_007_002_execute+0xc4>)
 8005146:	fab0 f080 	clz	r0, r0
 800514a:	0940      	lsrs	r0, r0, #5
 800514c:	f7fc f850 	bl	80011f0 <_test_assert>
}
 8005150:	bd10      	pop	{r4, pc}
 8005152:	bf00      	nop
 8005154:	20001a7c 	.word	0x20001a7c
 8005158:	20001338 	.word	0x20001338
 800515c:	20000810 	.word	0x20000810
 8005160:	0800c0dc 	.word	0x0800c0dc
 8005164:	0800c0e8 	.word	0x0800c0e8
	...

08005170 <chSemWaitTimeout>:
msg_t chSemWaitTimeout(semaphore_t *sp, sysinterval_t timeout) {
 8005170:	b508      	push	{r3, lr}
 8005172:	2320      	movs	r3, #32
 8005174:	f383 8811 	msr	BASEPRI, r3
  msg = chSemWaitTimeoutS(sp, timeout);
 8005178:	f7ff ff3a 	bl	8004ff0 <chSemWaitTimeoutS>
 800517c:	2300      	movs	r3, #0
 800517e:	f383 8811 	msr	BASEPRI, r3
}
 8005182:	bd08      	pop	{r3, pc}
	...

08005190 <chThdSuspendTimeoutS>:
msg_t chThdSuspendTimeoutS(thread_reference_t *trp, sysinterval_t timeout) {
 8005190:	b508      	push	{r3, lr}
 8005192:	4b06      	ldr	r3, [pc, #24]	; (80051ac <chThdSuspendTimeoutS+0x1c>)
 8005194:	699b      	ldr	r3, [r3, #24]
  if (TIME_IMMEDIATE == timeout) {
 8005196:	b129      	cbz	r1, 80051a4 <chThdSuspendTimeoutS+0x14>
  *trp = tp;
 8005198:	6003      	str	r3, [r0, #0]
  tp->u.wttrp = trp;
 800519a:	6258      	str	r0, [r3, #36]	; 0x24
  return chSchGoSleepTimeoutS(CH_STATE_SUSPENDED, timeout);
 800519c:	2003      	movs	r0, #3
 800519e:	f005 febf 	bl	800af20 <chSchGoSleepTimeoutS>
}
 80051a2:	bd08      	pop	{r3, pc}
    return MSG_TIMEOUT;
 80051a4:	f04f 30ff 	mov.w	r0, #4294967295	; 0xffffffff
 80051a8:	e7fb      	b.n	80051a2 <chThdSuspendTimeoutS+0x12>
 80051aa:	bf00      	nop
 80051ac:	20001040 	.word	0x20001040

080051b0 <chPipeReadTimeout>:
 *                      pipe went in reset state.
 *
 * @api
 */
size_t chPipeReadTimeout(pipe_t *pp, uint8_t *bp,
                         size_t n, sysinterval_t timeout) {
 80051b0:	e92d 43f8 	stmdb	sp!, {r3, r4, r5, r6, r7, r8, r9, lr}
 80051b4:	4698      	mov	r8, r3
  size_t max = n;

  chDbgCheck(n > 0U);

  /* If the pipe is in reset state then returns immediately.*/
  if (pp->reset) {
 80051b6:	7d03      	ldrb	r3, [r0, #20]
 80051b8:	b113      	cbz	r3, 80051c0 <chPipeReadTimeout+0x10>
    return (size_t)0;
 80051ba:	2000      	movs	r0, #0
  }

  PR_UNLOCK(pp);

  return max - n;
}
 80051bc:	e8bd 83f8 	ldmia.w	sp!, {r3, r4, r5, r6, r7, r8, r9, pc}
 80051c0:	4605      	mov	r5, r0
 80051c2:	460e      	mov	r6, r1
 80051c4:	4617      	mov	r7, r2
  PR_LOCK(pp);
 80051c6:	f100 0940 	add.w	r9, r0, #64	; 0x40
 80051ca:	4648      	mov	r0, r9
 80051cc:	f7fe f848 	bl	8003260 <chMtxLock>
 80051d0:	463c      	mov	r4, r7
 80051d2:	e006      	b.n	80051e2 <chPipeReadTimeout+0x32>
      n  -= done;
 80051d4:	1a24      	subs	r4, r4, r0
      bp += done;
 80051d6:	4406      	add	r6, r0
      chThdResume(&pp->wtr, MSG_OK);
 80051d8:	2100      	movs	r1, #0
 80051da:	f105 0018 	add.w	r0, r5, #24
 80051de:	f7fd f81f 	bl	8002220 <chThdResume>
  while (n > 0U) {
 80051e2:	b19c      	cbz	r4, 800520c <chPipeReadTimeout+0x5c>
    done = pipe_read(pp, bp, n);
 80051e4:	4622      	mov	r2, r4
 80051e6:	4631      	mov	r1, r6
 80051e8:	4628      	mov	r0, r5
 80051ea:	f7fe faf9 	bl	80037e0 <pipe_read>
    if (done == (size_t)0) {
 80051ee:	2800      	cmp	r0, #0
 80051f0:	d1f0      	bne.n	80051d4 <chPipeReadTimeout+0x24>
 80051f2:	2320      	movs	r3, #32
 80051f4:	f383 8811 	msr	BASEPRI, r3
      msg = chThdSuspendTimeoutS(&pp->rtr, timeout);
 80051f8:	4641      	mov	r1, r8
 80051fa:	f105 001c 	add.w	r0, r5, #28
 80051fe:	f7ff ffc7 	bl	8005190 <chThdSuspendTimeoutS>
 8005202:	2300      	movs	r3, #0
 8005204:	f383 8811 	msr	BASEPRI, r3
      if (msg != MSG_OK) {
 8005208:	2800      	cmp	r0, #0
 800520a:	d0ea      	beq.n	80051e2 <chPipeReadTimeout+0x32>
  PR_UNLOCK(pp);
 800520c:	4648      	mov	r0, r9
 800520e:	f7fd fecf 	bl	8002fb0 <chMtxUnlock>
  return max - n;
 8005212:	1b38      	subs	r0, r7, r4
 8005214:	e7d2      	b.n	80051bc <chPipeReadTimeout+0xc>
 8005216:	bf00      	nop
	...

08005220 <chPipeWriteTimeout>:
                          size_t n, sysinterval_t timeout) {
 8005220:	e92d 43f8 	stmdb	sp!, {r3, r4, r5, r6, r7, r8, r9, lr}
 8005224:	4698      	mov	r8, r3
  if (pp->reset) {
 8005226:	7d03      	ldrb	r3, [r0, #20]
 8005228:	b113      	cbz	r3, 8005230 <chPipeWriteTimeout+0x10>
    return (size_t)0;
 800522a:	2000      	movs	r0, #0
}
 800522c:	e8bd 83f8 	ldmia.w	sp!, {r3, r4, r5, r6, r7, r8, r9, pc}
 8005230:	4605      	mov	r5, r0
 8005232:	460e      	mov	r6, r1
 8005234:	4617      	mov	r7, r2
  PW_LOCK(pp);
 8005236:	f100 0930 	add.w	r9, r0, #48	; 0x30
 800523a:	4648      	mov	r0, r9
 800523c:	f7fe f810 	bl	8003260 <chMtxLock>
 8005240:	463c      	mov	r4, r7
 8005242:	e006      	b.n	8005252 <chPipeWriteTimeout+0x32>
      n  -= done;
 8005244:	1a24      	subs	r4, r4, r0
      bp += done;
 8005246:	4406      	add	r6, r0
      chThdResume(&pp->rtr, MSG_OK);
 8005248:	2100      	movs	r1, #0
 800524a:	f105 001c 	add.w	r0, r5, #28
 800524e:	f7fc ffe7 	bl	8002220 <chThdResume>
  while (n > 0U) {
 8005252:	b19c      	cbz	r4, 800527c <chPipeWriteTimeout+0x5c>
    done = pipe_write(pp, bp, n);
 8005254:	4622      	mov	r2, r4
 8005256:	4631      	mov	r1, r6
 8005258:	4628      	mov	r0, r5
 800525a:	f7fe fb01 	bl	8003860 <pipe_write>
    if (done == (size_t)0) {
 800525e:	2800      	cmp	r0, #0
 8005260:	d1f0      	bne.n	8005244 <chPipeWriteTimeout+0x24>
 8005262:	2320      	movs	r3, #32
 8005264:	f383 8811 	msr	BASEPRI, r3
      msg = chThdSuspendTimeoutS(&pp->wtr, timeout);
 8005268:	4641      	mov	r1, r8
 800526a:	f105 0018 	add.w	r0, r5, #24
 800526e:	f7ff ff8f 	bl	8005190 <chThdSuspendTimeoutS>
 8005272:	2300      	movs	r3, #0
 8005274:	f383 8811 	msr	BASEPRI, r3
      if (msg != MSG_OK) {
 8005278:	2800      	cmp	r0, #0
 800527a:	d0ea      	beq.n	8005252 <chPipeWriteTimeout+0x32>
  PW_UNLOCK(pp);
 800527c:	4648      	mov	r0, r9
 800527e:	f7fd fe97 	bl	8002fb0 <chMtxUnlock>
  return max - n;
 8005282:	1b38      	subs	r0, r7, r4
 8005284:	e7d2      	b.n	800522c <chPipeWriteTimeout+0xc>
 8005286:	bf00      	nop
	...

08005290 <oslib_test_003_002_execute>:

static void oslib_test_003_002_setup(void) {
  chPipeObjectInit(&pipe1, buffer, PIPE_SIZE / 2);
}

static void oslib_test_003_002_execute(void) {
 8005290:	b500      	push	{lr}
 8005292:	b085      	sub	sp, #20

  /* [3.2.1] Reading while pipe is empty.*/
  test_set_step(1);
 8005294:	4b28      	ldr	r3, [pc, #160]	; (8005338 <oslib_test_003_002_execute+0xa8>)
 8005296:	2201      	movs	r2, #1
 8005298:	601a      	str	r2, [r3, #0]
  {
    size_t n;
    uint8_t buf[PIPE_SIZE];

    n = chPipeReadTimeout(&pipe1, buf, PIPE_SIZE, TIME_IMMEDIATE);
 800529a:	2300      	movs	r3, #0
 800529c:	2210      	movs	r2, #16
 800529e:	4669      	mov	r1, sp
 80052a0:	4826      	ldr	r0, [pc, #152]	; (800533c <oslib_test_003_002_execute+0xac>)
 80052a2:	f7ff ff85 	bl	80051b0 <chPipeReadTimeout>
    test_assert(n == 0, "wrong size");
 80052a6:	4926      	ldr	r1, [pc, #152]	; (8005340 <oslib_test_003_002_execute+0xb0>)
 80052a8:	fab0 f080 	clz	r0, r0
 80052ac:	0940      	lsrs	r0, r0, #5
 80052ae:	f7fb ff9f 	bl	80011f0 <_test_assert>
 80052b2:	b948      	cbnz	r0, 80052c8 <oslib_test_003_002_execute+0x38>
    test_assert((pipe1.rdptr == pipe1.buffer) &&
 80052b4:	4b21      	ldr	r3, [pc, #132]	; (800533c <oslib_test_003_002_execute+0xac>)
 80052b6:	681a      	ldr	r2, [r3, #0]
 80052b8:	68db      	ldr	r3, [r3, #12]
 80052ba:	4293      	cmp	r3, r2
 80052bc:	d007      	beq.n	80052ce <oslib_test_003_002_execute+0x3e>
 80052be:	2000      	movs	r0, #0
 80052c0:	4920      	ldr	r1, [pc, #128]	; (8005344 <oslib_test_003_002_execute+0xb4>)
 80052c2:	f7fb ff95 	bl	80011f0 <_test_assert>
 80052c6:	b170      	cbz	r0, 80052e6 <oslib_test_003_002_execute+0x56>
                (pipe1.wrptr == pipe1.buffer) &&
                (pipe1.cnt == PIPE_SIZE / 2),
                "invalid pipe state");
  }
  test_end_step(2);
}
 80052c8:	b005      	add	sp, #20
 80052ca:	f85d fb04 	ldr.w	pc, [sp], #4
    test_assert((pipe1.rdptr == pipe1.buffer) &&
 80052ce:	4b1b      	ldr	r3, [pc, #108]	; (800533c <oslib_test_003_002_execute+0xac>)
 80052d0:	689b      	ldr	r3, [r3, #8]
 80052d2:	429a      	cmp	r2, r3
 80052d4:	d001      	beq.n	80052da <oslib_test_003_002_execute+0x4a>
 80052d6:	2000      	movs	r0, #0
 80052d8:	e7f2      	b.n	80052c0 <oslib_test_003_002_execute+0x30>
 80052da:	4b18      	ldr	r3, [pc, #96]	; (800533c <oslib_test_003_002_execute+0xac>)
 80052dc:	691b      	ldr	r3, [r3, #16]
 80052de:	2b00      	cmp	r3, #0
 80052e0:	d1ee      	bne.n	80052c0 <oslib_test_003_002_execute+0x30>
 80052e2:	2001      	movs	r0, #1
 80052e4:	e7ec      	b.n	80052c0 <oslib_test_003_002_execute+0x30>
  test_set_step(2);
 80052e6:	4b14      	ldr	r3, [pc, #80]	; (8005338 <oslib_test_003_002_execute+0xa8>)
 80052e8:	2202      	movs	r2, #2
 80052ea:	601a      	str	r2, [r3, #0]
    n = chPipeWriteTimeout(&pipe1, pipe_pattern, PIPE_SIZE, TIME_IMMEDIATE);
 80052ec:	2300      	movs	r3, #0
 80052ee:	2210      	movs	r2, #16
 80052f0:	4915      	ldr	r1, [pc, #84]	; (8005348 <oslib_test_003_002_execute+0xb8>)
 80052f2:	4812      	ldr	r0, [pc, #72]	; (800533c <oslib_test_003_002_execute+0xac>)
 80052f4:	f7ff ff94 	bl	8005220 <chPipeWriteTimeout>
    test_assert(n == PIPE_SIZE / 2, "wrong size");
 80052f8:	4911      	ldr	r1, [pc, #68]	; (8005340 <oslib_test_003_002_execute+0xb0>)
 80052fa:	2808      	cmp	r0, #8
 80052fc:	bf14      	ite	ne
 80052fe:	2000      	movne	r0, #0
 8005300:	2001      	moveq	r0, #1
 8005302:	f7fb ff75 	bl	80011f0 <_test_assert>
 8005306:	2800      	cmp	r0, #0
 8005308:	d1de      	bne.n	80052c8 <oslib_test_003_002_execute+0x38>
    test_assert((pipe1.rdptr == pipe1.wrptr) &&
 800530a:	4b0c      	ldr	r3, [pc, #48]	; (800533c <oslib_test_003_002_execute+0xac>)
 800530c:	689a      	ldr	r2, [r3, #8]
 800530e:	68db      	ldr	r3, [r3, #12]
 8005310:	4293      	cmp	r3, r2
 8005312:	d004      	beq.n	800531e <oslib_test_003_002_execute+0x8e>
 8005314:	2000      	movs	r0, #0
 8005316:	490b      	ldr	r1, [pc, #44]	; (8005344 <oslib_test_003_002_execute+0xb4>)
 8005318:	f7fb ff6a 	bl	80011f0 <_test_assert>
  test_end_step(2);
 800531c:	e7d4      	b.n	80052c8 <oslib_test_003_002_execute+0x38>
    test_assert((pipe1.rdptr == pipe1.wrptr) &&
 800531e:	4b07      	ldr	r3, [pc, #28]	; (800533c <oslib_test_003_002_execute+0xac>)
 8005320:	681b      	ldr	r3, [r3, #0]
 8005322:	429a      	cmp	r2, r3
 8005324:	d001      	beq.n	800532a <oslib_test_003_002_execute+0x9a>
 8005326:	2000      	movs	r0, #0
 8005328:	e7f5      	b.n	8005316 <oslib_test_003_002_execute+0x86>
 800532a:	4b04      	ldr	r3, [pc, #16]	; (800533c <oslib_test_003_002_execute+0xac>)
 800532c:	691b      	ldr	r3, [r3, #16]
 800532e:	2b08      	cmp	r3, #8
 8005330:	d1f1      	bne.n	8005316 <oslib_test_003_002_execute+0x86>
 8005332:	2001      	movs	r0, #1
 8005334:	e7ef      	b.n	8005316 <oslib_test_003_002_execute+0x86>
 8005336:	bf00      	nop
 8005338:	20001a7c 	.word	0x20001a7c
 800533c:	2000088c 	.word	0x2000088c
 8005340:	0800c830 	.word	0x0800c830
 8005344:	0800c83c 	.word	0x0800c83c
 8005348:	0800db00 	.word	0x0800db00
 800534c:	00000000 	.word	0x00000000

08005350 <chThdSleepUntil>:
void chThdSleepUntil(systime_t time) {
 8005350:	b510      	push	{r4, lr}
 8005352:	4604      	mov	r4, r0
 8005354:	2320      	movs	r3, #32
 8005356:	f383 8811 	msr	BASEPRI, r3
 800535a:	f005 fd49 	bl	800adf0 <stGetCounter>
  if (interval > (sysinterval_t)0) {
 800535e:	1a21      	subs	r1, r4, r0
 8005360:	d103      	bne.n	800536a <chThdSleepUntil+0x1a>
 8005362:	2300      	movs	r3, #0
 8005364:	f383 8811 	msr	BASEPRI, r3
}
 8005368:	bd10      	pop	{r4, pc}
 */
static inline void chThdSleepS(sysinterval_t ticks) {

  chDbgCheck(ticks != TIME_IMMEDIATE);

  (void) chSchGoSleepTimeoutS(CH_STATE_SLEEPING, ticks);
 800536a:	2008      	movs	r0, #8
 800536c:	f005 fdd8 	bl	800af20 <chSchGoSleepTimeoutS>
 8005370:	e7f7      	b.n	8005362 <chThdSleepUntil+0x12>
 8005372:	bf00      	nop
	...

08005380 <chThdSleep>:
void chThdSleep(sysinterval_t time) {
 8005380:	b508      	push	{r3, lr}
 8005382:	4601      	mov	r1, r0
 8005384:	2320      	movs	r3, #32
 8005386:	f383 8811 	msr	BASEPRI, r3
 800538a:	2008      	movs	r0, #8
 800538c:	f005 fdc8 	bl	800af20 <chSchGoSleepTimeoutS>
 8005390:	2300      	movs	r3, #0
 8005392:	f383 8811 	msr	BASEPRI, r3
}
 8005396:	bd08      	pop	{r3, pc}
	...

080053a0 <main_loop>:
{
 80053a0:	b508      	push	{r3, lr}
  chThdSleepMilliseconds(500);
 80053a2:	f241 3088 	movw	r0, #5000	; 0x1388
 80053a6:	f7ff ffeb 	bl	8005380 <chThdSleep>
  lmx2572_reset(&SPID1);
 80053aa:	4d0f      	ldr	r5, [pc, #60]	; (80053e8 <main_loop+0x48>)
 80053ac:	4628      	mov	r0, r5
 80053ae:	f7fd fc27 	bl	8002c00 <lmx2572_reset>
  chprintf(DEBUG_CHP, "\r\n Resets LMX2572\r\n");
 80053b2:	4c0e      	ldr	r4, [pc, #56]	; (80053ec <main_loop+0x4c>)
 80053b4:	490e      	ldr	r1, [pc, #56]	; (80053f0 <main_loop+0x50>)
 80053b6:	4620      	mov	r0, r4
 80053b8:	f7fd fa32 	bl	8002820 <chprintf>
  chThdSleepMilliseconds(15000);
 80053bc:	480d      	ldr	r0, [pc, #52]	; (80053f4 <main_loop+0x54>)
 80053be:	f7ff ffdf 	bl	8005380 <chThdSleep>
  lmx2572_load_regs(&SPID1, reg_values);
 80053c2:	490d      	ldr	r1, [pc, #52]	; (80053f8 <main_loop+0x58>)
 80053c4:	4628      	mov	r0, r5
 80053c6:	f7fd fca3 	bl	8002d10 <lmx2572_load_regs>
  chprintf(DEBUG_CHP, "\r\n Done Loading LMX2572 reg values\r\n");
 80053ca:	490c      	ldr	r1, [pc, #48]	; (80053fc <main_loop+0x5c>)
 80053cc:	4620      	mov	r0, r4
 80053ce:	f7fd fa27 	bl	8002820 <chprintf>
    palWaitLineTimeout(LINE_SX_INT0, TIME_MS2I(5000));
 80053d2:	f24c 3150 	movw	r1, #50000	; 0xc350
 80053d6:	480a      	ldr	r0, [pc, #40]	; (8005400 <main_loop+0x60>)
 80053d8:	f005 fcfa 	bl	800add0 <palWaitLineTimeout>
    chprintf(DEBUG_CHP, "\r\n ...\r\n");
 80053dc:	4909      	ldr	r1, [pc, #36]	; (8005404 <main_loop+0x64>)
 80053de:	4803      	ldr	r0, [pc, #12]	; (80053ec <main_loop+0x4c>)
 80053e0:	f7fd fa1e 	bl	8002820 <chprintf>
  while(true)
 80053e4:	e7f5      	b.n	80053d2 <main_loop+0x32>
 80053e6:	bf00      	nop
 80053e8:	20000f8c 	.word	0x20000f8c
 80053ec:	20000f10 	.word	0x20000f10
 80053f0:	0800c850 	.word	0x0800c850
 80053f4:	000249f0 	.word	0x000249f0
 80053f8:	200008dc 	.word	0x200008dc
 80053fc:	0800c864 	.word	0x0800c864
 8005400:	40020800 	.word	0x40020800
 8005404:	0800c88c 	.word	0x0800c88c
	...

08005410 <job_slow>:

static jobs_queue_t jq;
static job_descriptor_t jobs[JOBS_QUEUE_SIZE];
static msg_t msg_queue[JOBS_QUEUE_SIZE];

static void job_slow(void *arg) {
 8005410:	b508      	push	{r3, lr}

  test_emit_token((int)arg);
 8005412:	b2c0      	uxtb	r0, r0
 8005414:	f7fb f9fc 	bl	8000810 <test_emit_token>
  chThdSleepMilliseconds(10);
 8005418:	2064      	movs	r0, #100	; 0x64
 800541a:	f7ff ffb1 	bl	8005380 <chThdSleep>
}
 800541e:	bd08      	pop	{r3, pc}

08005420 <evt_thread3>:
static THD_FUNCTION(evt_thread3, p) {
 8005420:	b510      	push	{r4, lr}
 8005422:	4604      	mov	r4, r0
  chThdSleepMilliseconds(50);
 8005424:	f44f 70fa 	mov.w	r0, #500	; 0x1f4
 8005428:	f7ff ffaa 	bl	8005380 <chThdSleep>
  chEvtSignal((thread_t *)p, 1);
 800542c:	2101      	movs	r1, #1
 800542e:	4620      	mov	r0, r4
 8005430:	f7fd fd2e 	bl	8002e90 <chEvtSignal>
}
 8005434:	bd10      	pop	{r4, pc}
 8005436:	bf00      	nop
	...

08005440 <thread4A>:
static THD_FUNCTION(thread4A, p) {
 8005440:	b510      	push	{r4, lr}
  chThdSleepMilliseconds(50);
 8005442:	f44f 70fa 	mov.w	r0, #500	; 0x1f4
 8005446:	f7ff ff9b 	bl	8005380 <chThdSleep>
  chMtxLock(&m1);
 800544a:	4c04      	ldr	r4, [pc, #16]	; (800545c <thread4A+0x1c>)
 800544c:	4620      	mov	r0, r4
 800544e:	f7fd ff07 	bl	8003260 <chMtxLock>
  chMtxUnlock(&m1);
 8005452:	4620      	mov	r0, r4
 8005454:	f7fd fdac 	bl	8002fb0 <chMtxUnlock>
}
 8005458:	bd10      	pop	{r4, pc}
 800545a:	bf00      	nop
 800545c:	2000082c 	.word	0x2000082c

08005460 <thread4B>:
static THD_FUNCTION(thread4B, p) {
 8005460:	b510      	push	{r4, lr}
  chThdSleepMilliseconds(150);
 8005462:	f240 50dc 	movw	r0, #1500	; 0x5dc
 8005466:	f7ff ff8b 	bl	8005380 <chThdSleep>
 800546a:	2320      	movs	r3, #32
 800546c:	f383 8811 	msr	BASEPRI, r3
  chMtxLockS(&m2);   /* For coverage of the chMtxLockS() function variant.*/
 8005470:	4c06      	ldr	r4, [pc, #24]	; (800548c <thread4B+0x2c>)
 8005472:	4620      	mov	r0, r4
 8005474:	f7fd fe5c 	bl	8003130 <chMtxLockS>
  chMtxUnlockS(&m2); /* For coverage of the chMtxUnlockS() function variant.*/
 8005478:	4620      	mov	r0, r4
 800547a:	f7fd fd71 	bl	8002f60 <chMtxUnlockS>
  chSchRescheduleS();
 800547e:	f005 f807 	bl	800a490 <chSchRescheduleS>
 8005482:	2300      	movs	r3, #0
 8005484:	f383 8811 	msr	BASEPRI, r3
}
 8005488:	bd10      	pop	{r4, pc}
 800548a:	bf00      	nop
 800548c:	2000083c 	.word	0x2000083c

08005490 <thread2>:
static THD_FUNCTION(thread2, p) {
 8005490:	b508      	push	{r3, lr}
  chThdSleepMilliseconds(50);
 8005492:	f44f 70fa 	mov.w	r0, #500	; 0x1f4
 8005496:	f7ff ff73 	bl	8005380 <chThdSleep>
 800549a:	2320      	movs	r3, #32
 800549c:	f383 8811 	msr	BASEPRI, r3
  chSemSignalI(&sem1); /* For coverage reasons */
 80054a0:	4804      	ldr	r0, [pc, #16]	; (80054b4 <thread2+0x24>)
 80054a2:	f7ff f89d 	bl	80045e0 <chSemSignalI>
  chSchRescheduleS();
 80054a6:	f004 fff3 	bl	800a490 <chSchRescheduleS>
 80054aa:	2300      	movs	r3, #0
 80054ac:	f383 8811 	msr	BASEPRI, r3
}
 80054b0:	bd08      	pop	{r3, pc}
 80054b2:	bf00      	nop
 80054b4:	20001348 	.word	0x20001348
	...

080054c0 <rt_test_004_001_execute>:
static void rt_test_004_001_execute(void) {
 80054c0:	b538      	push	{r3, r4, r5, lr}
  test_set_step(1);
 80054c2:	4b2f      	ldr	r3, [pc, #188]	; (8005580 <rt_test_004_001_execute+0xc0>)
 80054c4:	2201      	movs	r2, #1
 80054c6:	601a      	str	r2, [r3, #0]
 80054c8:	f005 fc92 	bl	800adf0 <stGetCounter>
 80054cc:	4604      	mov	r4, r0
    chThdSleep(100);
 80054ce:	2064      	movs	r0, #100	; 0x64
 80054d0:	f7ff ff56 	bl	8005380 <chThdSleep>
    test_assert_time_window(chTimeAddX(time, 100),
 80054d4:	4a2b      	ldr	r2, [pc, #172]	; (8005584 <rt_test_004_001_execute+0xc4>)
 80054d6:	f104 0167 	add.w	r1, r4, #103	; 0x67
 80054da:	f104 0064 	add.w	r0, r4, #100	; 0x64
 80054de:	f7fc fe3f 	bl	8002160 <_test_assert_time_window>
 80054e2:	b100      	cbz	r0, 80054e6 <rt_test_004_001_execute+0x26>
}
 80054e4:	bd38      	pop	{r3, r4, r5, pc}
  test_set_step(2);
 80054e6:	4b26      	ldr	r3, [pc, #152]	; (8005580 <rt_test_004_001_execute+0xc0>)
 80054e8:	2202      	movs	r2, #2
 80054ea:	601a      	str	r2, [r3, #0]
 80054ec:	f005 fc80 	bl	800adf0 <stGetCounter>
 80054f0:	4604      	mov	r4, r0
    chThdSleepMicroseconds(100000);
 80054f2:	f44f 707a 	mov.w	r0, #1000	; 0x3e8
 80054f6:	f7ff ff43 	bl	8005380 <chThdSleep>
    test_assert_time_window(chTimeAddX(time, TIME_US2I(100000)),
 80054fa:	4a22      	ldr	r2, [pc, #136]	; (8005584 <rt_test_004_001_execute+0xc4>)
 80054fc:	f204 31eb 	addw	r1, r4, #1003	; 0x3eb
 8005500:	f504 707a 	add.w	r0, r4, #1000	; 0x3e8
 8005504:	f7fc fe2c 	bl	8002160 <_test_assert_time_window>
 8005508:	2800      	cmp	r0, #0
 800550a:	d1eb      	bne.n	80054e4 <rt_test_004_001_execute+0x24>
  test_set_step(3);
 800550c:	4b1c      	ldr	r3, [pc, #112]	; (8005580 <rt_test_004_001_execute+0xc0>)
 800550e:	2203      	movs	r2, #3
 8005510:	601a      	str	r2, [r3, #0]
 8005512:	f005 fc6d 	bl	800adf0 <stGetCounter>
 8005516:	4604      	mov	r4, r0
    chThdSleepMilliseconds(100);
 8005518:	f44f 707a 	mov.w	r0, #1000	; 0x3e8
 800551c:	f7ff ff30 	bl	8005380 <chThdSleep>
    test_assert_time_window(chTimeAddX(time, TIME_MS2I(100)),
 8005520:	4a18      	ldr	r2, [pc, #96]	; (8005584 <rt_test_004_001_execute+0xc4>)
 8005522:	f204 31eb 	addw	r1, r4, #1003	; 0x3eb
 8005526:	f504 707a 	add.w	r0, r4, #1000	; 0x3e8
 800552a:	f7fc fe19 	bl	8002160 <_test_assert_time_window>
 800552e:	2800      	cmp	r0, #0
 8005530:	d1d8      	bne.n	80054e4 <rt_test_004_001_execute+0x24>
  test_set_step(4);
 8005532:	4b13      	ldr	r3, [pc, #76]	; (8005580 <rt_test_004_001_execute+0xc0>)
 8005534:	2204      	movs	r2, #4
 8005536:	601a      	str	r2, [r3, #0]
 8005538:	f005 fc5a 	bl	800adf0 <stGetCounter>
 800553c:	4604      	mov	r4, r0
    chThdSleepSeconds(1);
 800553e:	f242 7010 	movw	r0, #10000	; 0x2710
 8005542:	f7ff ff1d 	bl	8005380 <chThdSleep>
    test_assert_time_window(chTimeAddX(time, TIME_S2I(1)),
 8005546:	4a0f      	ldr	r2, [pc, #60]	; (8005584 <rt_test_004_001_execute+0xc4>)
 8005548:	f504 511c 	add.w	r1, r4, #9984	; 0x2700
 800554c:	3113      	adds	r1, #19
 800554e:	f504 501c 	add.w	r0, r4, #9984	; 0x2700
 8005552:	3010      	adds	r0, #16
 8005554:	f7fc fe04 	bl	8002160 <_test_assert_time_window>
 8005558:	2800      	cmp	r0, #0
 800555a:	d1c3      	bne.n	80054e4 <rt_test_004_001_execute+0x24>
  test_set_step(5);
 800555c:	4b08      	ldr	r3, [pc, #32]	; (8005580 <rt_test_004_001_execute+0xc0>)
 800555e:	2205      	movs	r2, #5
 8005560:	601a      	str	r2, [r3, #0]
 8005562:	f005 fc45 	bl	800adf0 <stGetCounter>
 8005566:	4604      	mov	r4, r0
  return systime + (systime_t)interval;
 8005568:	f100 0564 	add.w	r5, r0, #100	; 0x64
    chThdSleepUntil(chTimeAddX(time, 100));
 800556c:	4628      	mov	r0, r5
 800556e:	f7ff feef 	bl	8005350 <chThdSleepUntil>
    test_assert_time_window(chTimeAddX(time, 100),
 8005572:	4a04      	ldr	r2, [pc, #16]	; (8005584 <rt_test_004_001_execute+0xc4>)
 8005574:	f104 0167 	add.w	r1, r4, #103	; 0x67
 8005578:	4628      	mov	r0, r5
 800557a:	f7fc fdf1 	bl	8002160 <_test_assert_time_window>
  test_end_step(5);
 800557e:	e7b1      	b.n	80054e4 <rt_test_004_001_execute+0x24>
 8005580:	20001a7c 	.word	0x20001a7c
 8005584:	0800c898 	.word	0x0800c898
	...

08005590 <rt_test_002_002_execute>:
static void rt_test_002_002_execute(void) {
 8005590:	b510      	push	{r4, lr}
 8005592:	b086      	sub	sp, #24
  test_set_step(1);
 8005594:	4c2e      	ldr	r4, [pc, #184]	; (8005650 <rt_test_002_002_execute+0xc0>)
 8005596:	2301      	movs	r3, #1
 8005598:	6023      	str	r3, [r4, #0]
    sts = chSysGetStatusAndLockX();
 800559a:	f005 f831 	bl	800a600 <chSysGetStatusAndLockX>
    chSysRestoreStatusX(sts);
 800559e:	f005 f817 	bl	800a5d0 <chSysRestoreStatusX>
  test_set_step(2);
 80055a2:	2302      	movs	r3, #2
 80055a4:	6023      	str	r3, [r4, #0]
 80055a6:	2320      	movs	r3, #32
 80055a8:	f383 8811 	msr	BASEPRI, r3
    sts = chSysGetStatusAndLockX();
 80055ac:	f005 f828 	bl	800a600 <chSysGetStatusAndLockX>
    chSysRestoreStatusX(sts);
 80055b0:	f005 f80e 	bl	800a5d0 <chSysRestoreStatusX>
 80055b4:	2300      	movs	r3, #0
 80055b6:	f383 8811 	msr	BASEPRI, r3
  test_set_step(3);
 80055ba:	2303      	movs	r3, #3
 80055bc:	6023      	str	r3, [r4, #0]
  __ASM volatile ("MRS %0, basepri" : "=r" (result) );
 80055be:	f3ef 8311 	mrs	r3, BASEPRI
 *
 * @special
 */
static inline void chSysUnconditionalLock(void) {

  if (port_irq_enabled(port_get_irq_status())) {
 80055c2:	b913      	cbnz	r3, 80055ca <rt_test_002_002_execute+0x3a>
  __ASM volatile ("MSR basepri, %0" : : "r" (basePri) : "memory");
 80055c4:	2320      	movs	r3, #32
 80055c6:	f383 8811 	msr	BASEPRI, r3
  __ASM volatile ("MRS %0, basepri" : "=r" (result) );
 80055ca:	f3ef 8311 	mrs	r3, BASEPRI
 80055ce:	b913      	cbnz	r3, 80055d6 <rt_test_002_002_execute+0x46>
  __ASM volatile ("MSR basepri, %0" : : "r" (basePri) : "memory");
 80055d0:	2320      	movs	r3, #32
 80055d2:	f383 8811 	msr	BASEPRI, r3
 80055d6:	2300      	movs	r3, #0
 80055d8:	f383 8811 	msr	BASEPRI, r3
  test_set_step(4);
 80055dc:	4b1c      	ldr	r3, [pc, #112]	; (8005650 <rt_test_002_002_execute+0xc0>)
 80055de:	2204      	movs	r2, #4
 80055e0:	601a      	str	r2, [r3, #0]
 80055e2:	2320      	movs	r3, #32
 80055e4:	f383 8811 	msr	BASEPRI, r3
  __ASM volatile ("MRS %0, basepri" : "=r" (result) );
 80055e8:	f3ef 8311 	mrs	r3, BASEPRI
 *
 * @special
 */
static inline void chSysUnconditionalUnlock(void) {

  if (!port_irq_enabled(port_get_irq_status())) {
 80055ec:	b113      	cbz	r3, 80055f4 <rt_test_002_002_execute+0x64>
  __ASM volatile ("MSR basepri, %0" : : "r" (basePri) : "memory");
 80055ee:	2300      	movs	r3, #0
 80055f0:	f383 8811 	msr	BASEPRI, r3
  __ASM volatile ("MRS %0, basepri" : "=r" (result) );
 80055f4:	f3ef 8311 	mrs	r3, BASEPRI
 80055f8:	b113      	cbz	r3, 8005600 <rt_test_002_002_execute+0x70>
  __ASM volatile ("MSR basepri, %0" : : "r" (basePri) : "memory");
 80055fa:	2300      	movs	r3, #0
 80055fc:	f383 8811 	msr	BASEPRI, r3
  test_set_step(5);
 8005600:	4b13      	ldr	r3, [pc, #76]	; (8005650 <rt_test_002_002_execute+0xc0>)
 8005602:	2205      	movs	r2, #5
 8005604:	601a      	str	r2, [r3, #0]
 *
 * @init
 */
static inline void chVTObjectInit(virtual_timer_t *vtp) {

  vtp->func = NULL;
 8005606:	2300      	movs	r3, #0
 8005608:	9304      	str	r3, [sp, #16]
 800560a:	2320      	movs	r3, #32
 800560c:	f383 8811 	msr	BASEPRI, r3
 */
static inline bool chVTIsArmedI(const virtual_timer_t *vtp) {

  chDbgCheckClassI();

  return (bool)(vtp->func != NULL);
 8005610:	9b04      	ldr	r3, [sp, #16]
 *
 * @iclass
 */
static inline void chVTResetI(virtual_timer_t *vtp) {

  if (chVTIsArmedI(vtp)) {
 8005612:	b113      	cbz	r3, 800561a <rt_test_002_002_execute+0x8a>
    chVTDoResetI(vtp);
 8005614:	a801      	add	r0, sp, #4
 8005616:	f005 fbf3 	bl	800ae00 <chVTDoResetI>
 */
static inline void chVTSetI(virtual_timer_t *vtp, sysinterval_t delay,
                            vtfunc_t vtfunc, void *par) {

  chVTResetI(vtp);
  chVTDoSetI(vtp, delay, vtfunc, par);
 800561a:	2300      	movs	r3, #0
 800561c:	4a0d      	ldr	r2, [pc, #52]	; (8005654 <rt_test_002_002_execute+0xc4>)
 800561e:	2101      	movs	r1, #1
 8005620:	a801      	add	r0, sp, #4
 8005622:	f005 fc35 	bl	800ae90 <chVTDoSetI>
 8005626:	2400      	movs	r4, #0
 8005628:	f384 8811 	msr	BASEPRI, r4
    chThdSleep(10);
 800562c:	200a      	movs	r0, #10
 800562e:	f7ff fea7 	bl	8005380 <chThdSleep>
 8005632:	2320      	movs	r3, #32
 8005634:	f383 8811 	msr	BASEPRI, r3
  return (bool)(vtp->func != NULL);
 8005638:	9804      	ldr	r0, [sp, #16]
 800563a:	f384 8811 	msr	BASEPRI, r4
    test_assert(chVTIsArmed(&vt) == false, "timer still armed");
 800563e:	4906      	ldr	r1, [pc, #24]	; (8005658 <rt_test_002_002_execute+0xc8>)
 8005640:	fab0 f080 	clz	r0, r0
 8005644:	0940      	lsrs	r0, r0, #5
 8005646:	f7fb fdd3 	bl	80011f0 <_test_assert>
}
 800564a:	b006      	add	sp, #24
 800564c:	bd10      	pop	{r4, pc}
 800564e:	bf00      	nop
 8005650:	20001a7c 	.word	0x20001a7c
 8005654:	08002561 	.word	0x08002561
 8005658:	0800c8ac 	.word	0x0800c8ac
 800565c:	00000000 	.word	0x00000000

08005660 <test_wait_tick>:

/*
 * Delays execution until next system time tick.
 */
systime_t test_wait_tick(void) {
 8005660:	b508      	push	{r3, lr}

  chThdSleep(1);
 8005662:	2001      	movs	r0, #1
 8005664:	f7ff fe8c 	bl	8005380 <chThdSleep>
 8005668:	2320      	movs	r3, #32
 800566a:	f383 8811 	msr	BASEPRI, r3
 800566e:	f005 fbbf 	bl	800adf0 <stGetCounter>
 8005672:	2300      	movs	r3, #0
 8005674:	f383 8811 	msr	BASEPRI, r3
  return chVTGetSystemTime();
}
 8005678:	bd08      	pop	{r3, pc}
 800567a:	bf00      	nop
 800567c:	0000      	movs	r0, r0
	...

08005680 <rt_test_011_011_execute>:
static void rt_test_011_011_execute(void) {
 8005680:	b570      	push	{r4, r5, r6, lr}
  test_set_step(1);
 8005682:	4b1a      	ldr	r3, [pc, #104]	; (80056ec <rt_test_011_011_execute+0x6c>)
 8005684:	2201      	movs	r2, #1
 8005686:	601a      	str	r2, [r3, #0]
    start = test_wait_tick();
 8005688:	f7ff ffea 	bl	8005660 <test_wait_tick>
 800568c:	4606      	mov	r6, r0
    n = 0;
 800568e:	2500      	movs	r5, #0
      chMtxLock(&mtx1);
 8005690:	4c17      	ldr	r4, [pc, #92]	; (80056f0 <rt_test_011_011_execute+0x70>)
 8005692:	4620      	mov	r0, r4
 8005694:	f7fd fde4 	bl	8003260 <chMtxLock>
      chMtxUnlock(&mtx1);
 8005698:	4620      	mov	r0, r4
 800569a:	f7fd fc89 	bl	8002fb0 <chMtxUnlock>
      chMtxLock(&mtx1);
 800569e:	4620      	mov	r0, r4
 80056a0:	f7fd fdde 	bl	8003260 <chMtxLock>
      chMtxUnlock(&mtx1);
 80056a4:	4620      	mov	r0, r4
 80056a6:	f7fd fc83 	bl	8002fb0 <chMtxUnlock>
      chMtxLock(&mtx1);
 80056aa:	4620      	mov	r0, r4
 80056ac:	f7fd fdd8 	bl	8003260 <chMtxLock>
      chMtxUnlock(&mtx1);
 80056b0:	4620      	mov	r0, r4
 80056b2:	f7fd fc7d 	bl	8002fb0 <chMtxUnlock>
      chMtxLock(&mtx1);
 80056b6:	4620      	mov	r0, r4
 80056b8:	f7fd fdd2 	bl	8003260 <chMtxLock>
      chMtxUnlock(&mtx1);
 80056bc:	4620      	mov	r0, r4
 80056be:	f7fd fc77 	bl	8002fb0 <chMtxUnlock>
      n++;
 80056c2:	3501      	adds	r5, #1
 80056c4:	f005 fb94 	bl	800adf0 <stGetCounter>
  return (bool)((systime_t)((systime_t)time - (systime_t)start) <
 80056c8:	1b80      	subs	r0, r0, r6
    } while (chVTIsSystemTimeWithinX(start, end));
 80056ca:	f242 730f 	movw	r3, #9999	; 0x270f
 80056ce:	4298      	cmp	r0, r3
 80056d0:	d9de      	bls.n	8005690 <rt_test_011_011_execute+0x10>
  test_set_step(2);
 80056d2:	4b06      	ldr	r3, [pc, #24]	; (80056ec <rt_test_011_011_execute+0x6c>)
 80056d4:	2202      	movs	r2, #2
 80056d6:	601a      	str	r2, [r3, #0]
    test_print("--- Score : ");
 80056d8:	4806      	ldr	r0, [pc, #24]	; (80056f4 <rt_test_011_011_execute+0x74>)
 80056da:	f7fb f939 	bl	8000950 <test_print>
    test_printn(n * 4);
 80056de:	00a8      	lsls	r0, r5, #2
 80056e0:	f7fb f956 	bl	8000990 <test_printn>
    test_println(" lock+unlock/S");
 80056e4:	4804      	ldr	r0, [pc, #16]	; (80056f8 <rt_test_011_011_execute+0x78>)
 80056e6:	f7fb f943 	bl	8000970 <test_println>
}
 80056ea:	bd70      	pop	{r4, r5, r6, pc}
 80056ec:	20001a7c 	.word	0x20001a7c
 80056f0:	20001238 	.word	0x20001238
 80056f4:	0800c8c0 	.word	0x0800c8c0
 80056f8:	0800c8d0 	.word	0x0800c8d0
 80056fc:	00000000 	.word	0x00000000

08005700 <rt_test_011_010_execute>:
static void rt_test_011_010_execute(void) {
 8005700:	b570      	push	{r4, r5, r6, lr}
  test_set_step(1);
 8005702:	4b1a      	ldr	r3, [pc, #104]	; (800576c <rt_test_011_010_execute+0x6c>)
 8005704:	2201      	movs	r2, #1
 8005706:	601a      	str	r2, [r3, #0]
    start = test_wait_tick();
 8005708:	f7ff ffaa 	bl	8005660 <test_wait_tick>
 800570c:	4606      	mov	r6, r0
    n = 0;
 800570e:	2500      	movs	r5, #0
      chSemWait(&sem1);
 8005710:	4c17      	ldr	r4, [pc, #92]	; (8005770 <rt_test_011_010_execute+0x70>)
 8005712:	4620      	mov	r0, r4
 8005714:	f7fc fedc 	bl	80024d0 <chSemWait>
      chSemSignal(&sem1);
 8005718:	4620      	mov	r0, r4
 800571a:	f7fc fd59 	bl	80021d0 <chSemSignal>
      chSemWait(&sem1);
 800571e:	4620      	mov	r0, r4
 8005720:	f7fc fed6 	bl	80024d0 <chSemWait>
      chSemSignal(&sem1);
 8005724:	4620      	mov	r0, r4
 8005726:	f7fc fd53 	bl	80021d0 <chSemSignal>
      chSemWait(&sem1);
 800572a:	4620      	mov	r0, r4
 800572c:	f7fc fed0 	bl	80024d0 <chSemWait>
      chSemSignal(&sem1);
 8005730:	4620      	mov	r0, r4
 8005732:	f7fc fd4d 	bl	80021d0 <chSemSignal>
      chSemWait(&sem1);
 8005736:	4620      	mov	r0, r4
 8005738:	f7fc feca 	bl	80024d0 <chSemWait>
      chSemSignal(&sem1);
 800573c:	4620      	mov	r0, r4
 800573e:	f7fc fd47 	bl	80021d0 <chSemSignal>
      n++;
 8005742:	3501      	adds	r5, #1
 8005744:	f005 fb54 	bl	800adf0 <stGetCounter>
 8005748:	1b80      	subs	r0, r0, r6
    } while (chVTIsSystemTimeWithinX(start, end));
 800574a:	f242 730f 	movw	r3, #9999	; 0x270f
 800574e:	4298      	cmp	r0, r3
 8005750:	d9de      	bls.n	8005710 <rt_test_011_010_execute+0x10>
  test_set_step(2);
 8005752:	4b06      	ldr	r3, [pc, #24]	; (800576c <rt_test_011_010_execute+0x6c>)
 8005754:	2202      	movs	r2, #2
 8005756:	601a      	str	r2, [r3, #0]
    test_print("--- Score : ");
 8005758:	4806      	ldr	r0, [pc, #24]	; (8005774 <rt_test_011_010_execute+0x74>)
 800575a:	f7fb f8f9 	bl	8000950 <test_print>
    test_printn(n * 4);
 800575e:	00a8      	lsls	r0, r5, #2
 8005760:	f7fb f916 	bl	8000990 <test_printn>
    test_println(" wait+signal/S");
 8005764:	4804      	ldr	r0, [pc, #16]	; (8005778 <rt_test_011_010_execute+0x78>)
 8005766:	f7fb f903 	bl	8000970 <test_println>
}
 800576a:	bd70      	pop	{r4, r5, r6, pc}
 800576c:	20001a7c 	.word	0x20001a7c
 8005770:	20001354 	.word	0x20001354
 8005774:	0800c8c0 	.word	0x0800c8c0
 8005778:	0800c8e0 	.word	0x0800c8e0
 800577c:	00000000 	.word	0x00000000

08005780 <rt_test_011_009_execute>:
static void rt_test_011_009_execute(void) {
 8005780:	e92d 41f0 	stmdb	sp!, {r4, r5, r6, r7, r8, lr}
  test_set_step(1);
 8005784:	4b1c      	ldr	r3, [pc, #112]	; (80057f8 <rt_test_011_009_execute+0x78>)
 8005786:	2201      	movs	r2, #1
 8005788:	601a      	str	r2, [r3, #0]
    start = test_wait_tick();
 800578a:	f7ff ff69 	bl	8005660 <test_wait_tick>
 800578e:	4680      	mov	r8, r0
    n = 0;
 8005790:	2700      	movs	r7, #0
 8005792:	2320      	movs	r3, #32
 8005794:	f383 8811 	msr	BASEPRI, r3
      chVTDoSetI(&vt1, 1, tmo, NULL);
 8005798:	4e18      	ldr	r6, [pc, #96]	; (80057fc <rt_test_011_009_execute+0x7c>)
 800579a:	4d19      	ldr	r5, [pc, #100]	; (8005800 <rt_test_011_009_execute+0x80>)
 800579c:	2300      	movs	r3, #0
 800579e:	4632      	mov	r2, r6
 80057a0:	2101      	movs	r1, #1
 80057a2:	4628      	mov	r0, r5
 80057a4:	f005 fb74 	bl	800ae90 <chVTDoSetI>
      chVTDoSetI(&vt2, 10000, tmo, NULL);
 80057a8:	4c16      	ldr	r4, [pc, #88]	; (8005804 <rt_test_011_009_execute+0x84>)
 80057aa:	2300      	movs	r3, #0
 80057ac:	4632      	mov	r2, r6
 80057ae:	f242 7110 	movw	r1, #10000	; 0x2710
 80057b2:	4620      	mov	r0, r4
 80057b4:	f005 fb6c 	bl	800ae90 <chVTDoSetI>
      chVTDoResetI(&vt1);
 80057b8:	4628      	mov	r0, r5
 80057ba:	f005 fb21 	bl	800ae00 <chVTDoResetI>
      chVTDoResetI(&vt2);
 80057be:	4620      	mov	r0, r4
 80057c0:	f005 fb1e 	bl	800ae00 <chVTDoResetI>
 80057c4:	2300      	movs	r3, #0
 80057c6:	f383 8811 	msr	BASEPRI, r3
      n++;
 80057ca:	3701      	adds	r7, #1
 80057cc:	f005 fb10 	bl	800adf0 <stGetCounter>
 80057d0:	eba0 0008 	sub.w	r0, r0, r8
    } while (chVTIsSystemTimeWithinX(start, end));
 80057d4:	f242 730f 	movw	r3, #9999	; 0x270f
 80057d8:	4298      	cmp	r0, r3
 80057da:	d9da      	bls.n	8005792 <rt_test_011_009_execute+0x12>
  test_set_step(2);
 80057dc:	4b06      	ldr	r3, [pc, #24]	; (80057f8 <rt_test_011_009_execute+0x78>)
 80057de:	2202      	movs	r2, #2
 80057e0:	601a      	str	r2, [r3, #0]
    test_print("--- Score : ");
 80057e2:	4809      	ldr	r0, [pc, #36]	; (8005808 <rt_test_011_009_execute+0x88>)
 80057e4:	f7fb f8b4 	bl	8000950 <test_print>
    test_printn(n * 2);
 80057e8:	0078      	lsls	r0, r7, #1
 80057ea:	f7fb f8d1 	bl	8000990 <test_printn>
    test_println(" timers/S");
 80057ee:	4807      	ldr	r0, [pc, #28]	; (800580c <rt_test_011_009_execute+0x8c>)
 80057f0:	f7fb f8be 	bl	8000970 <test_println>
}
 80057f4:	e8bd 81f0 	ldmia.w	sp!, {r4, r5, r6, r7, r8, pc}
 80057f8:	20001a7c 	.word	0x20001a7c
 80057fc:	080007c1 	.word	0x080007c1
 8005800:	20001aac 	.word	0x20001aac
 8005804:	20001ac0 	.word	0x20001ac0
 8005808:	0800c8c0 	.word	0x0800c8c0
 800580c:	0800c8f0 	.word	0x0800c8f0

08005810 <msg_loop_test>:
NOINLINE static unsigned int msg_loop_test(thread_t *tp) {
 8005810:	b570      	push	{r4, r5, r6, lr}
 8005812:	4605      	mov	r5, r0
  start = test_wait_tick();
 8005814:	f7ff ff24 	bl	8005660 <test_wait_tick>
 8005818:	4606      	mov	r6, r0
  uint32_t n = 0;
 800581a:	2400      	movs	r4, #0
    (void)chMsgSend(tp, 1);
 800581c:	2101      	movs	r1, #1
 800581e:	4628      	mov	r0, r5
 8005820:	f7fd face 	bl	8002dc0 <chMsgSend>
    n++;
 8005824:	3401      	adds	r4, #1
 8005826:	f005 fae3 	bl	800adf0 <stGetCounter>
 800582a:	1b80      	subs	r0, r0, r6
  } while (chVTIsSystemTimeWithinX(start, end));
 800582c:	f242 730f 	movw	r3, #9999	; 0x270f
 8005830:	4298      	cmp	r0, r3
 8005832:	d9f3      	bls.n	800581c <msg_loop_test+0xc>
  (void)chMsgSend(tp, 0);
 8005834:	2100      	movs	r1, #0
 8005836:	4628      	mov	r0, r5
 8005838:	f7fd fac2 	bl	8002dc0 <chMsgSend>
}
 800583c:	4620      	mov	r0, r4
 800583e:	bd70      	pop	{r4, r5, r6, pc}

08005840 <test_execute>:
 * @retval false        if no errors occurred.
 * @retval true         if one or more tests failed.
 *
 * @api
 */
msg_t test_execute(BaseSequentialStream *stream, const testsuite_t *tsp) {
 8005840:	e92d 43f8 	stmdb	sp!, {r3, r4, r5, r6, r7, r8, r9, lr}
 8005844:	460d      	mov	r5, r1
  int tseq, tcase;

  test_chp = stream;
 8005846:	4b70      	ldr	r3, [pc, #448]	; (8005a08 <test_execute+0x1c8>)
 8005848:	6018      	str	r0, [r3, #0]
  test_println("");
 800584a:	4870      	ldr	r0, [pc, #448]	; (8005a0c <test_execute+0x1cc>)
 800584c:	f7fb f890 	bl	8000970 <test_println>
  if (tsp->name != NULL) {
 8005850:	682b      	ldr	r3, [r5, #0]
 8005852:	2b00      	cmp	r3, #0
 8005854:	d072      	beq.n	800593c <test_execute+0xfc>
    test_print("*** ");
 8005856:	486e      	ldr	r0, [pc, #440]	; (8005a10 <test_execute+0x1d0>)
 8005858:	f7fb f87a 	bl	8000950 <test_print>
    test_println(tsp->name);
 800585c:	6828      	ldr	r0, [r5, #0]
 800585e:	f7fb f887 	bl	8000970 <test_println>
  }
  else {
    test_println("*** Test Suite");
  }
  test_println("***");
 8005862:	4c6c      	ldr	r4, [pc, #432]	; (8005a14 <test_execute+0x1d4>)
 8005864:	4620      	mov	r0, r4
 8005866:	f7fb f883 	bl	8000970 <test_println>
  test_print("*** Compiled:     ");
 800586a:	486b      	ldr	r0, [pc, #428]	; (8005a18 <test_execute+0x1d8>)
 800586c:	f7fb f870 	bl	8000950 <test_print>
  test_println(__DATE__ " - " __TIME__);
 8005870:	486a      	ldr	r0, [pc, #424]	; (8005a1c <test_execute+0x1dc>)
 8005872:	f7fb f87d 	bl	8000970 <test_println>
#if defined(PLATFORM_NAME)
  test_print("*** Platform:     ");
 8005876:	486a      	ldr	r0, [pc, #424]	; (8005a20 <test_execute+0x1e0>)
 8005878:	f7fb f86a 	bl	8000950 <test_print>
  test_println(PLATFORM_NAME);
 800587c:	4869      	ldr	r0, [pc, #420]	; (8005a24 <test_execute+0x1e4>)
 800587e:	f7fb f877 	bl	8000970 <test_println>
#endif
#if defined(BOARD_NAME)
  test_print("*** Test Board:   ");
 8005882:	4869      	ldr	r0, [pc, #420]	; (8005a28 <test_execute+0x1e8>)
 8005884:	f7fb f864 	bl	8000950 <test_print>
  test_println(BOARD_NAME);
 8005888:	4868      	ldr	r0, [pc, #416]	; (8005a2c <test_execute+0x1ec>)
 800588a:	f7fb f871 	bl	8000970 <test_println>
  {
    extern uint8_t __text_base__,   __text_end__,
                   __rodata_base__, __rodata_end__,
                   __data_base__,   __data_end__,
                   __bss_base__,    __bss_end__;
    test_println("***");
 800588e:	4620      	mov	r0, r4
 8005890:	f7fb f86e 	bl	8000970 <test_println>
    test_print("*** Text size:    ");
 8005894:	4866      	ldr	r0, [pc, #408]	; (8005a30 <test_execute+0x1f0>)
 8005896:	f7fb f85b 	bl	8000950 <test_print>
    test_printn((uint32_t)(&__text_end__ - &__text_base__));
 800589a:	4866      	ldr	r0, [pc, #408]	; (8005a34 <test_execute+0x1f4>)
 800589c:	4b66      	ldr	r3, [pc, #408]	; (8005a38 <test_execute+0x1f8>)
 800589e:	1ac0      	subs	r0, r0, r3
 80058a0:	f7fb f876 	bl	8000990 <test_printn>
    test_println(" bytes");
 80058a4:	4c65      	ldr	r4, [pc, #404]	; (8005a3c <test_execute+0x1fc>)
 80058a6:	4620      	mov	r0, r4
 80058a8:	f7fb f862 	bl	8000970 <test_println>
    test_print("*** RO data size: ");
 80058ac:	4864      	ldr	r0, [pc, #400]	; (8005a40 <test_execute+0x200>)
 80058ae:	f7fb f84f 	bl	8000950 <test_print>
    test_printn((uint32_t)(&__rodata_end__ - &__rodata_base__));
 80058b2:	4864      	ldr	r0, [pc, #400]	; (8005a44 <test_execute+0x204>)
 80058b4:	4b64      	ldr	r3, [pc, #400]	; (8005a48 <test_execute+0x208>)
 80058b6:	1ac0      	subs	r0, r0, r3
 80058b8:	f7fb f86a 	bl	8000990 <test_printn>
    test_println(" bytes");
 80058bc:	4620      	mov	r0, r4
 80058be:	f7fb f857 	bl	8000970 <test_println>
    test_print("*** Data size:    ");
 80058c2:	4862      	ldr	r0, [pc, #392]	; (8005a4c <test_execute+0x20c>)
 80058c4:	f7fb f844 	bl	8000950 <test_print>
    test_printn((uint32_t)(&__data_end__ - &__data_base__));
 80058c8:	4861      	ldr	r0, [pc, #388]	; (8005a50 <test_execute+0x210>)
 80058ca:	4b62      	ldr	r3, [pc, #392]	; (8005a54 <test_execute+0x214>)
 80058cc:	1ac0      	subs	r0, r0, r3
 80058ce:	f7fb f85f 	bl	8000990 <test_printn>
    test_println(" bytes");
 80058d2:	4620      	mov	r0, r4
 80058d4:	f7fb f84c 	bl	8000970 <test_println>
    test_print("*** BSS size:     ");
 80058d8:	485f      	ldr	r0, [pc, #380]	; (8005a58 <test_execute+0x218>)
 80058da:	f7fb f839 	bl	8000950 <test_print>
    test_printn((uint32_t)(&__bss_end__ - &__bss_base__));
 80058de:	485f      	ldr	r0, [pc, #380]	; (8005a5c <test_execute+0x21c>)
 80058e0:	4b5f      	ldr	r3, [pc, #380]	; (8005a60 <test_execute+0x220>)
 80058e2:	1ac0      	subs	r0, r0, r3
 80058e4:	f7fb f854 	bl	8000990 <test_printn>
    test_println(" bytes");
 80058e8:	4620      	mov	r0, r4
 80058ea:	f7fb f841 	bl	8000970 <test_println>
  }
#endif
#if defined(TEST_REPORT_HOOK_HEADER)
  TEST_REPORT_HOOK_HEADER
#endif
  test_println("");
 80058ee:	4847      	ldr	r0, [pc, #284]	; (8005a0c <test_execute+0x1cc>)
 80058f0:	f7fb f83e 	bl	8000970 <test_println>

  test_global_fail = false;
 80058f4:	f04f 0900 	mov.w	r9, #0
 80058f8:	4b5a      	ldr	r3, [pc, #360]	; (8005a64 <test_execute+0x224>)
 80058fa:	f883 9000 	strb.w	r9, [r3]
  tseq = 0;
  while (tsp->sequences[tseq] != NULL) {
 80058fe:	686b      	ldr	r3, [r5, #4]
 8005900:	ea4f 0689 	mov.w	r6, r9, lsl #2
 8005904:	f853 3029 	ldr.w	r3, [r3, r9, lsl #2]
 8005908:	2b00      	cmp	r3, #0
 800590a:	d067      	beq.n	80059dc <test_execute+0x19c>
#if TEST_CFG_SHOW_SEQUENCES == TRUE
    print_fat_line();
 800590c:	f7fb fcd0 	bl	80012b0 <print_fat_line>
    test_print("=== Test Sequence ");
 8005910:	4855      	ldr	r0, [pc, #340]	; (8005a68 <test_execute+0x228>)
 8005912:	f7fb f81d 	bl	8000950 <test_print>
    test_printn(tseq + 1);
 8005916:	f109 0901 	add.w	r9, r9, #1
 800591a:	46c8      	mov	r8, r9
 800591c:	4648      	mov	r0, r9
 800591e:	f7fb f837 	bl	8000990 <test_printn>
    test_print(" (");
 8005922:	4852      	ldr	r0, [pc, #328]	; (8005a6c <test_execute+0x22c>)
 8005924:	f7fb f814 	bl	8000950 <test_print>
    test_print(tsp->sequences[tseq]->name);
 8005928:	686b      	ldr	r3, [r5, #4]
 800592a:	599b      	ldr	r3, [r3, r6]
 800592c:	6818      	ldr	r0, [r3, #0]
 800592e:	f7fb f80f 	bl	8000950 <test_print>
    test_println(")");
 8005932:	484f      	ldr	r0, [pc, #316]	; (8005a70 <test_execute+0x230>)
 8005934:	f7fb f81c 	bl	8000970 <test_println>
#endif
    tcase = 0;
 8005938:	2400      	movs	r4, #0
 800593a:	e006      	b.n	800594a <test_execute+0x10a>
    test_println("*** Test Suite");
 800593c:	484d      	ldr	r0, [pc, #308]	; (8005a74 <test_execute+0x234>)
 800593e:	f7fb f817 	bl	8000970 <test_println>
 8005942:	e78e      	b.n	8005862 <test_execute+0x22>
        test_print("] \"");
        test_print(test_failure_message);
        test_println("\")");
      }
      else {
        test_println("--- Result: SUCCESS");
 8005944:	484c      	ldr	r0, [pc, #304]	; (8005a78 <test_execute+0x238>)
 8005946:	f7fb f813 	bl	8000970 <test_println>
    while (tsp->sequences[tseq]->cases[tcase] != NULL) {
 800594a:	686b      	ldr	r3, [r5, #4]
 800594c:	599b      	ldr	r3, [r3, r6]
 800594e:	685b      	ldr	r3, [r3, #4]
 8005950:	00a7      	lsls	r7, r4, #2
 8005952:	f853 3024 	ldr.w	r3, [r3, r4, lsl #2]
 8005956:	2b00      	cmp	r3, #0
 8005958:	d0d1      	beq.n	80058fe <test_execute+0xbe>
      print_line();
 800595a:	f7fb fcc1 	bl	80012e0 <print_line>
      test_print("--- Test Case ");
 800595e:	4847      	ldr	r0, [pc, #284]	; (8005a7c <test_execute+0x23c>)
 8005960:	f7fa fff6 	bl	8000950 <test_print>
      test_printn(tseq + 1);
 8005964:	4640      	mov	r0, r8
 8005966:	f7fb f813 	bl	8000990 <test_printn>
      test_print(".");
 800596a:	4845      	ldr	r0, [pc, #276]	; (8005a80 <test_execute+0x240>)
 800596c:	f7fa fff0 	bl	8000950 <test_print>
      test_printn(tcase + 1);
 8005970:	3401      	adds	r4, #1
 8005972:	4620      	mov	r0, r4
 8005974:	f7fb f80c 	bl	8000990 <test_printn>
      test_print(" (");
 8005978:	483c      	ldr	r0, [pc, #240]	; (8005a6c <test_execute+0x22c>)
 800597a:	f7fa ffe9 	bl	8000950 <test_print>
      test_print(tsp->sequences[tseq]->cases[tcase]->name);
 800597e:	686b      	ldr	r3, [r5, #4]
 8005980:	599b      	ldr	r3, [r3, r6]
 8005982:	685b      	ldr	r3, [r3, #4]
 8005984:	59db      	ldr	r3, [r3, r7]
 8005986:	6818      	ldr	r0, [r3, #0]
 8005988:	f7fa ffe2 	bl	8000950 <test_print>
      test_println(")");
 800598c:	4838      	ldr	r0, [pc, #224]	; (8005a70 <test_execute+0x230>)
 800598e:	f7fa ffef 	bl	8000970 <test_println>
 *
 * @api
 */
static inline void osalThreadSleep(sysinterval_t delay) {

  chThdSleep(delay);
 8005992:	f44f 60fa 	mov.w	r0, #2000	; 0x7d0
 8005996:	f7ff fcf3 	bl	8005380 <chThdSleep>
      execute_test(tsp->sequences[tseq]->cases[tcase]);
 800599a:	686b      	ldr	r3, [r5, #4]
 800599c:	599b      	ldr	r3, [r3, r6]
 800599e:	685b      	ldr	r3, [r3, #4]
 80059a0:	59d8      	ldr	r0, [r3, r7]
 80059a2:	f7fb fcf5 	bl	8001390 <execute_test>
      if (test_local_fail) {
 80059a6:	4b37      	ldr	r3, [pc, #220]	; (8005a84 <test_execute+0x244>)
 80059a8:	781b      	ldrb	r3, [r3, #0]
 80059aa:	2b00      	cmp	r3, #0
 80059ac:	d0ca      	beq.n	8005944 <test_execute+0x104>
        test_print("--- Result: FAILURE (#");
 80059ae:	4836      	ldr	r0, [pc, #216]	; (8005a88 <test_execute+0x248>)
 80059b0:	f7fa ffce 	bl	8000950 <test_print>
        test_printn(test_step);
 80059b4:	4b35      	ldr	r3, [pc, #212]	; (8005a8c <test_execute+0x24c>)
 80059b6:	6818      	ldr	r0, [r3, #0]
 80059b8:	f7fa ffea 	bl	8000990 <test_printn>
        test_print(" [");
 80059bc:	4834      	ldr	r0, [pc, #208]	; (8005a90 <test_execute+0x250>)
 80059be:	f7fa ffc7 	bl	8000950 <test_print>
        print_tokens();
 80059c2:	f7fb fca5 	bl	8001310 <print_tokens>
        test_print("] \"");
 80059c6:	4833      	ldr	r0, [pc, #204]	; (8005a94 <test_execute+0x254>)
 80059c8:	f7fa ffc2 	bl	8000950 <test_print>
        test_print(test_failure_message);
 80059cc:	4b32      	ldr	r3, [pc, #200]	; (8005a98 <test_execute+0x258>)
 80059ce:	6818      	ldr	r0, [r3, #0]
 80059d0:	f7fa ffbe 	bl	8000950 <test_print>
        test_println("\")");
 80059d4:	4831      	ldr	r0, [pc, #196]	; (8005a9c <test_execute+0x25c>)
 80059d6:	f7fa ffcb 	bl	8000970 <test_println>
 80059da:	e7b6      	b.n	800594a <test_execute+0x10a>
      }
      tcase++;
    }
    tseq++;
  }
  print_line();
 80059dc:	f7fb fc80 	bl	80012e0 <print_line>
  test_println("");
 80059e0:	480a      	ldr	r0, [pc, #40]	; (8005a0c <test_execute+0x1cc>)
 80059e2:	f7fa ffc5 	bl	8000970 <test_println>
  test_print("Final result: ");
 80059e6:	482e      	ldr	r0, [pc, #184]	; (8005aa0 <test_execute+0x260>)
 80059e8:	f7fa ffb2 	bl	8000950 <test_print>
  if (test_global_fail)
 80059ec:	4b1d      	ldr	r3, [pc, #116]	; (8005a64 <test_execute+0x224>)
 80059ee:	781b      	ldrb	r3, [r3, #0]
 80059f0:	b133      	cbz	r3, 8005a00 <test_execute+0x1c0>
    test_println("FAILURE");
 80059f2:	482c      	ldr	r0, [pc, #176]	; (8005aa4 <test_execute+0x264>)
 80059f4:	f7fa ffbc 	bl	8000970 <test_println>
#if defined(TEST_REPORT_HOOK_END)
  TEST_REPORT_HOOK_END
#endif

  return (msg_t)test_global_fail;
}
 80059f8:	4b1a      	ldr	r3, [pc, #104]	; (8005a64 <test_execute+0x224>)
 80059fa:	7818      	ldrb	r0, [r3, #0]
 80059fc:	e8bd 83f8 	ldmia.w	sp!, {r3, r4, r5, r6, r7, r8, r9, pc}
    test_println("SUCCESS");
 8005a00:	4829      	ldr	r0, [pc, #164]	; (8005aa8 <test_execute+0x268>)
 8005a02:	f7fa ffb5 	bl	8000970 <test_println>
 8005a06:	e7f7      	b.n	80059f8 <test_execute+0x1b8>
 8005a08:	200019d0 	.word	0x200019d0
 8005a0c:	0800c894 	.word	0x0800c894
 8005a10:	0800c8fc 	.word	0x0800c8fc
 8005a14:	0800c914 	.word	0x0800c914
 8005a18:	0800c918 	.word	0x0800c918
 8005a1c:	0800c92c 	.word	0x0800c92c
 8005a20:	0800c944 	.word	0x0800c944
 8005a24:	0800c39c 	.word	0x0800c39c
 8005a28:	0800c958 	.word	0x0800c958
 8005a2c:	0800c3dc 	.word	0x0800c3dc
 8005a30:	0800c96c 	.word	0x0800c96c
 8005a34:	0800b524 	.word	0x0800b524
 8005a38:	080001e0 	.word	0x080001e0
 8005a3c:	0800ba80 	.word	0x0800ba80
 8005a40:	0800c980 	.word	0x0800c980
 8005a44:	0800e3e4 	.word	0x0800e3e4
 8005a48:	0800b524 	.word	0x0800b524
 8005a4c:	0800c994 	.word	0x0800c994
 8005a50:	20000f10 	.word	0x20000f10
 8005a54:	20000800 	.word	0x20000800
 8005a58:	0800c9a8 	.word	0x0800c9a8
 8005a5c:	20002210 	.word	0x20002210
 8005a60:	20000f10 	.word	0x20000f10
 8005a64:	200019d8 	.word	0x200019d8
 8005a68:	0800c9bc 	.word	0x0800c9bc
 8005a6c:	0800c9d0 	.word	0x0800c9d0
 8005a70:	0800c9d4 	.word	0x0800c9d4
 8005a74:	0800c904 	.word	0x0800c904
 8005a78:	0800ca10 	.word	0x0800ca10
 8005a7c:	0800c9d8 	.word	0x0800c9d8
 8005a80:	0800c9e8 	.word	0x0800c9e8
 8005a84:	20001a78 	.word	0x20001a78
 8005a88:	0800c9ec 	.word	0x0800c9ec
 8005a8c:	20001a7c 	.word	0x20001a7c
 8005a90:	0800ca04 	.word	0x0800ca04
 8005a94:	0800ca08 	.word	0x0800ca08
 8005a98:	200019d4 	.word	0x200019d4
 8005a9c:	0800ca0c 	.word	0x0800ca0c
 8005aa0:	0800ca24 	.word	0x0800ca24
 8005aa4:	0800ca34 	.word	0x0800ca34
 8005aa8:	0800ca1c 	.word	0x0800ca1c
 8005aac:	00000000 	.word	0x00000000

08005ab0 <test_rt>:
#endif

#if (SHELL_CMD_TEST_ENABLED == TRUE) || defined(__DOXYGEN__)
static THD_FUNCTION(test_rt, arg) {
 8005ab0:	b508      	push	{r3, lr}
  BaseSequentialStream *chp = (BaseSequentialStream *)arg;
  test_execute(chp, &rt_test_suite);
 8005ab2:	4902      	ldr	r1, [pc, #8]	; (8005abc <test_rt+0xc>)
 8005ab4:	f7ff fec4 	bl	8005840 <test_execute>
}
 8005ab8:	bd08      	pop	{r3, pc}
 8005aba:	bf00      	nop
 8005abc:	0800df44 	.word	0x0800df44

08005ac0 <test_oslib>:

static THD_FUNCTION(test_oslib, arg) {
 8005ac0:	b508      	push	{r3, lr}
  BaseSequentialStream *chp = (BaseSequentialStream *)arg;
  test_execute(chp, &oslib_test_suite);
 8005ac2:	4902      	ldr	r1, [pc, #8]	; (8005acc <test_oslib+0xc>)
 8005ac4:	f7ff febc 	bl	8005840 <test_execute>
}
 8005ac8:	bd08      	pop	{r3, pc}
 8005aca:	bf00      	nop
 8005acc:	0800dad0 	.word	0x0800dad0

08005ad0 <chThdYield>:
void chThdYield(void) {
 8005ad0:	b508      	push	{r3, lr}
 8005ad2:	2320      	movs	r3, #32
 8005ad4:	f383 8811 	msr	BASEPRI, r3
 */
static inline bool chSchCanYieldS(void) {

  chDbgCheckClassS();

  return firstprio(&ch.rlist.queue) >= currp->prio;
 8005ad8:	4b06      	ldr	r3, [pc, #24]	; (8005af4 <chThdYield+0x24>)
 8005ada:	681a      	ldr	r2, [r3, #0]
 8005adc:	6892      	ldr	r2, [r2, #8]
 8005ade:	699b      	ldr	r3, [r3, #24]
 8005ae0:	689b      	ldr	r3, [r3, #8]
 */
static inline void chSchDoYieldS(void) {

  chDbgCheckClassS();

  if (chSchCanYieldS()) {
 8005ae2:	429a      	cmp	r2, r3
 8005ae4:	d203      	bcs.n	8005aee <chThdYield+0x1e>
 8005ae6:	2300      	movs	r3, #0
 8005ae8:	f383 8811 	msr	BASEPRI, r3
}
 8005aec:	bd08      	pop	{r3, pc}
    chSchDoRescheduleBehind();
 8005aee:	f004 fd0f 	bl	800a510 <chSchDoRescheduleBehind>
 8005af2:	e7f8      	b.n	8005ae6 <chThdYield+0x16>
 8005af4:	20001040 	.word	0x20001040
	...

08005b00 <bmk_thread8>:
static THD_FUNCTION(bmk_thread8, p) {
 8005b00:	b510      	push	{r4, lr}
 8005b02:	4604      	mov	r4, r0
    chThdYield();
 8005b04:	f7ff ffe4 	bl	8005ad0 <chThdYield>
    chThdYield();
 8005b08:	f7ff ffe2 	bl	8005ad0 <chThdYield>
    chThdYield();
 8005b0c:	f7ff ffe0 	bl	8005ad0 <chThdYield>
    chThdYield();
 8005b10:	f7ff ffde 	bl	8005ad0 <chThdYield>
    (*(uint32_t *)p) += 4;
 8005b14:	6823      	ldr	r3, [r4, #0]
 8005b16:	3304      	adds	r3, #4
 8005b18:	6023      	str	r3, [r4, #0]
  return ch.rlist.current;
 8005b1a:	4b04      	ldr	r3, [pc, #16]	; (8005b2c <bmk_thread8+0x2c>)
 8005b1c:	699b      	ldr	r3, [r3, #24]
  return (bool)((chThdGetSelfX()->flags & CH_FLAG_TERMINATE) != (tmode_t)0);
 8005b1e:	f893 3021 	ldrb.w	r3, [r3, #33]	; 0x21
  } while(!chThdShouldTerminateX());
 8005b22:	f013 0f04 	tst.w	r3, #4
 8005b26:	d0ed      	beq.n	8005b04 <bmk_thread8+0x4>
}
 8005b28:	bd10      	pop	{r4, pc}
 8005b2a:	bf00      	nop
 8005b2c:	20001040 	.word	0x20001040

08005b30 <_port_irq_epilogue>:
 8005b30:	2320      	movs	r3, #32
 8005b32:	f383 8811 	msr	BASEPRI, r3
 * @brief   Exception exit redirection to _port_switch_from_isr().
 */
void _port_irq_epilogue(void) {

  port_lock_from_isr();
  if ((SCB->ICSR & SCB_ICSR_RETTOBASE_Msk) != 0U) {
 8005b36:	4b0d      	ldr	r3, [pc, #52]	; (8005b6c <_port_irq_epilogue+0x3c>)
 8005b38:	685b      	ldr	r3, [r3, #4]
 8005b3a:	f413 6f00 	tst.w	r3, #2048	; 0x800
 8005b3e:	d103      	bne.n	8005b48 <_port_irq_epilogue+0x18>
 8005b40:	2300      	movs	r3, #0
 8005b42:	f383 8811 	msr	BASEPRI, r3
 8005b46:	4770      	bx	lr
void _port_irq_epilogue(void) {
 8005b48:	b510      	push	{r4, lr}
  __ASM volatile ("MRS %0, psp"  : "=r" (result) );
 8005b4a:	f3ef 8409 	mrs	r4, PSP
    s_psp = __get_PSP();
#endif

    /* Adding an artificial exception return context, there is no need to
       populate it fully.*/
    s_psp -= sizeof (struct port_extctx);
 8005b4e:	3c20      	subs	r4, #32

    /* The port_extctx structure is pointed by the S-PSP register.*/
    ectxp = (struct port_extctx *)s_psp;

    /* Setting up a fake XPSR register value.*/
    ectxp->xpsr = 0x01000000U;
 8005b50:	f04f 7380 	mov.w	r3, #16777216	; 0x1000000
 8005b54:	61e3      	str	r3, [r4, #28]
  __ASM volatile ("MSR psp, %0" : : "r" (topOfProcStack) : );
 8005b56:	f384 8809 	msr	PSP, r4
    /* Writing back the modified S-PSP value.*/
    __set_PSP(s_psp);

    /* The exit sequence is different depending on if a preemption is
       required or not.*/
    if (chSchIsPreemptionRequired()) {
 8005b5a:	f004 fc89 	bl	800a470 <chSchIsPreemptionRequired>
 8005b5e:	b110      	cbz	r0, 8005b66 <_port_irq_epilogue+0x36>
      /* Preemption is required we need to enforce a context switch.*/
      ectxp->pc = (uint32_t)_port_switch_from_isr;
 8005b60:	4b03      	ldr	r3, [pc, #12]	; (8005b70 <_port_irq_epilogue+0x40>)
 8005b62:	61a3      	str	r3, [r4, #24]
    /* Note, returning without unlocking is intentional, this is done in
       order to keep the rest of the context switch atomic.*/
    return;
  }
  port_unlock_from_isr();
}
 8005b64:	bd10      	pop	{r4, pc}
      ectxp->pc = (uint32_t)_port_exit_from_isr;
 8005b66:	4b03      	ldr	r3, [pc, #12]	; (8005b74 <_port_irq_epilogue+0x44>)
 8005b68:	61a3      	str	r3, [r4, #24]
    return;
 8005b6a:	e7fb      	b.n	8005b64 <_port_irq_epilogue+0x34>
 8005b6c:	e000ed00 	.word	0xe000ed00
 8005b70:	080002e3 	.word	0x080002e3
 8005b74:	080002e6 	.word	0x080002e6
	...

08005b80 <port_init>:
  __ASM volatile ("MSR basepri, %0" : : "r" (basePri) : "memory");
 8005b80:	2300      	movs	r3, #0
 8005b82:	f383 8811 	msr	BASEPRI, r3
  __ASM volatile ("cpsie i" : : : "memory");
 8005b86:	b662      	cpsie	i
__STATIC_INLINE void __NVIC_SetPriorityGrouping(uint32_t PriorityGroup)
{
  uint32_t reg_value;
  uint32_t PriorityGroupTmp = (PriorityGroup & (uint32_t)0x07UL);             /* only values 0..7 are used          */

  reg_value  =  SCB->AIRCR;                                                   /* read old register configuration    */
 8005b88:	4b0c      	ldr	r3, [pc, #48]	; (8005bbc <port_init+0x3c>)
 8005b8a:	68d9      	ldr	r1, [r3, #12]
  reg_value &= ~((uint32_t)(SCB_AIRCR_VECTKEY_Msk | SCB_AIRCR_PRIGROUP_Msk)); /* clear bits to change               */
 8005b8c:	f421 61e0 	bic.w	r1, r1, #1792	; 0x700
 8005b90:	0409      	lsls	r1, r1, #16
 8005b92:	0c09      	lsrs	r1, r1, #16
  reg_value  =  (reg_value                                   |
 8005b94:	4a0a      	ldr	r2, [pc, #40]	; (8005bc0 <port_init+0x40>)
 8005b96:	430a      	orrs	r2, r1
                ((uint32_t)0x5FAUL << SCB_AIRCR_VECTKEY_Pos) |
                (PriorityGroupTmp << SCB_AIRCR_PRIGROUP_Pos)  );              /* Insert write key and priority group */
  SCB->AIRCR =  reg_value;
 8005b98:	60da      	str	r2, [r3, #12]
  CoreDebug->DEMCR |= CoreDebug_DEMCR_TRCENA_Msk;
 8005b9a:	490a      	ldr	r1, [pc, #40]	; (8005bc4 <port_init+0x44>)
 8005b9c:	68ca      	ldr	r2, [r1, #12]
 8005b9e:	f042 7280 	orr.w	r2, r2, #16777216	; 0x1000000
 8005ba2:	60ca      	str	r2, [r1, #12]
  DWT->CTRL |= DWT_CTRL_CYCCNTENA_Msk;
 8005ba4:	4908      	ldr	r1, [pc, #32]	; (8005bc8 <port_init+0x48>)
 8005ba6:	680a      	ldr	r2, [r1, #0]
 8005ba8:	f042 0201 	orr.w	r2, r2, #1
 8005bac:	600a      	str	r2, [r1, #0]
  {
    NVIC->IP[((uint32_t)IRQn)]               = (uint8_t)((priority << (8U - __NVIC_PRIO_BITS)) & (uint32_t)0xFFUL);
  }
  else
  {
    SCB->SHP[(((uint32_t)IRQn) & 0xFUL)-4UL] = (uint8_t)((priority << (8U - __NVIC_PRIO_BITS)) & (uint32_t)0xFFUL);
 8005bae:	2210      	movs	r2, #16
 8005bb0:	77da      	strb	r2, [r3, #31]
 8005bb2:	2220      	movs	r2, #32
 8005bb4:	f883 2022 	strb.w	r2, [r3, #34]	; 0x22
}
 8005bb8:	4770      	bx	lr
 8005bba:	bf00      	nop
 8005bbc:	e000ed00 	.word	0xe000ed00
 8005bc0:	05fa0300 	.word	0x05fa0300
 8005bc4:	e000edf0 	.word	0xe000edf0
 8005bc8:	e0001000 	.word	0xe0001000
 8005bcc:	00000000 	.word	0x00000000

08005bd0 <SVC_Handler>:
  __ASM volatile ("MRS %0, psp"  : "=r" (result) );
 8005bd0:	f3ef 8309 	mrs	r3, PSP
    psp += sizeof (struct port_extctx);
 8005bd4:	3320      	adds	r3, #32
  __ASM volatile ("MSR psp, %0" : : "r" (topOfProcStack) : );
 8005bd6:	f383 8809 	msr	PSP, r3
  __ASM volatile ("MSR basepri, %0" : : "r" (basePri) : "memory");
 8005bda:	2300      	movs	r3, #0
 8005bdc:	f383 8811 	msr	BASEPRI, r3
}
 8005be0:	4770      	bx	lr
 8005be2:	bf00      	nop
	...

08005bf0 <_core_init>:
  ch_memcore.basemem = __heap_base__;
 8005bf0:	4b02      	ldr	r3, [pc, #8]	; (8005bfc <_core_init+0xc>)
 8005bf2:	4a03      	ldr	r2, [pc, #12]	; (8005c00 <_core_init+0x10>)
 8005bf4:	601a      	str	r2, [r3, #0]
  ch_memcore.topmem  = __heap_end__;
 8005bf6:	4a03      	ldr	r2, [pc, #12]	; (8005c04 <_core_init+0x14>)
 8005bf8:	605a      	str	r2, [r3, #4]
}
 8005bfa:	4770      	bx	lr
 8005bfc:	20001100 	.word	0x20001100
 8005c00:	20002210 	.word	0x20002210
 8005c04:	20020000 	.word	0x20020000
	...

08005c10 <chEvtBroadcastFlagsI>:
void chEvtBroadcastFlagsI(event_source_t *esp, eventflags_t flags) {
 8005c10:	b570      	push	{r4, r5, r6, lr}
 8005c12:	4606      	mov	r6, r0
 8005c14:	460d      	mov	r5, r1
  elp = esp->next;
 8005c16:	6804      	ldr	r4, [r0, #0]
  while (elp != (event_listener_t *)esp) {
 8005c18:	e004      	b.n	8005c24 <chEvtBroadcastFlagsI+0x14>
      chEvtSignalI(elp->listener, elp->events);
 8005c1a:	68a1      	ldr	r1, [r4, #8]
 8005c1c:	6860      	ldr	r0, [r4, #4]
 8005c1e:	f7fd f91f 	bl	8002e60 <chEvtSignalI>
    elp = elp->next;
 8005c22:	6824      	ldr	r4, [r4, #0]
  while (elp != (event_listener_t *)esp) {
 8005c24:	42b4      	cmp	r4, r6
 8005c26:	d008      	beq.n	8005c3a <chEvtBroadcastFlagsI+0x2a>
    elp->flags |= flags;
 8005c28:	68e3      	ldr	r3, [r4, #12]
 8005c2a:	432b      	orrs	r3, r5
 8005c2c:	60e3      	str	r3, [r4, #12]
    if ((flags == (eventflags_t)0) ||
 8005c2e:	2d00      	cmp	r5, #0
 8005c30:	d0f3      	beq.n	8005c1a <chEvtBroadcastFlagsI+0xa>
        ((flags & elp->wflags) != (eventflags_t)0)) {
 8005c32:	6923      	ldr	r3, [r4, #16]
    if ((flags == (eventflags_t)0) ||
 8005c34:	422b      	tst	r3, r5
 8005c36:	d0f4      	beq.n	8005c22 <chEvtBroadcastFlagsI+0x12>
 8005c38:	e7ef      	b.n	8005c1a <chEvtBroadcastFlagsI+0xa>
}
 8005c3a:	bd70      	pop	{r4, r5, r6, pc}
 8005c3c:	0000      	movs	r0, r0
	...

08005c40 <shellExit>:
void shellExit(msg_t msg) {
 8005c40:	b510      	push	{r4, lr}
 8005c42:	4604      	mov	r4, r0
 8005c44:	2320      	movs	r3, #32
 8005c46:	f383 8811 	msr	BASEPRI, r3
  chEvtBroadcastFlagsI(esp, (eventflags_t)0);
 8005c4a:	2100      	movs	r1, #0
 8005c4c:	4803      	ldr	r0, [pc, #12]	; (8005c5c <shellExit+0x1c>)
 8005c4e:	f7ff ffdf 	bl	8005c10 <chEvtBroadcastFlagsI>
  chThdExitS(msg);
 8005c52:	4620      	mov	r0, r4
 8005c54:	f7ff f864 	bl	8004d20 <chThdExitS>
}
 8005c58:	bd10      	pop	{r4, pc}
 8005c5a:	bf00      	nop
 8005c5c:	20001360 	.word	0x20001360

08005c60 <shellThread>:
THD_FUNCTION(shellThread, p) {
 8005c60:	e92d 41f0 	stmdb	sp!, {r4, r5, r6, r7, r8, lr}
 8005c64:	b09e      	sub	sp, #120	; 0x78
 8005c66:	4606      	mov	r6, r0
  BaseSequentialStream *chp = scfg->sc_channel;
 8005c68:	6805      	ldr	r5, [r0, #0]
  const ShellCommand *scp = scfg->sc_commands;
 8005c6a:	6847      	ldr	r7, [r0, #4]
 * @api
 */
static inline void chRegSetThreadName(const char *name) {

#if CH_CFG_USE_REGISTRY == TRUE
  ch.rlist.current->name = name;
 8005c6c:	4b4e      	ldr	r3, [pc, #312]	; (8005da8 <shellThread+0x148>)
 8005c6e:	699b      	ldr	r3, [r3, #24]
 8005c70:	4a4e      	ldr	r2, [pc, #312]	; (8005dac <shellThread+0x14c>)
 8005c72:	619a      	str	r2, [r3, #24]
  *(scfg->sc_histbuf) = 0;
 8005c74:	6882      	ldr	r2, [r0, #8]
 8005c76:	2300      	movs	r3, #0
 8005c78:	7013      	strb	r3, [r2, #0]
                       scfg->sc_histbuf,
 8005c7a:	6882      	ldr	r2, [r0, #8]
  ShellHistory hist = {
 8005c7c:	9202      	str	r2, [sp, #8]
                       scfg->sc_histsize,
 8005c7e:	68c2      	ldr	r2, [r0, #12]
  ShellHistory hist = {
 8005c80:	9203      	str	r2, [sp, #12]
 8005c82:	9304      	str	r3, [sp, #16]
 8005c84:	9305      	str	r3, [sp, #20]
 8005c86:	9306      	str	r3, [sp, #24]
  chprintf(chp, SHELL_NEWLINE_STR);
 8005c88:	4949      	ldr	r1, [pc, #292]	; (8005db0 <shellThread+0x150>)
 8005c8a:	4628      	mov	r0, r5
 8005c8c:	f7fc fdc8 	bl	8002820 <chprintf>
  chprintf(chp, "ChibiOS/RT Shell" SHELL_NEWLINE_STR);
 8005c90:	4948      	ldr	r1, [pc, #288]	; (8005db4 <shellThread+0x154>)
 8005c92:	4628      	mov	r0, r5
 8005c94:	f7fc fdc4 	bl	8002820 <chprintf>
  while (!chThdShouldTerminateX()) {
 8005c98:	e017      	b.n	8005cca <shellThread+0x6a>
      chprintf(chp, SHELL_NEWLINE_STR);
 8005c9a:	4945      	ldr	r1, [pc, #276]	; (8005db0 <shellThread+0x150>)
 8005c9c:	4628      	mov	r0, r5
 8005c9e:	f7fc fdbf 	bl	8002820 <chprintf>
      chprintf(chp, "logout");
 8005ca2:	4945      	ldr	r1, [pc, #276]	; (8005db8 <shellThread+0x158>)
 8005ca4:	4628      	mov	r0, r5
 8005ca6:	f7fc fdbb 	bl	8002820 <chprintf>
  shellExit(MSG_OK);
 8005caa:	2000      	movs	r0, #0
 8005cac:	f7ff ffc8 	bl	8005c40 <shellExit>
}
 8005cb0:	b01e      	add	sp, #120	; 0x78
 8005cb2:	e8bd 81f0 	ldmia.w	sp!, {r4, r5, r6, r7, r8, pc}
        chprintf(chp, "too many arguments" SHELL_NEWLINE_STR);
 8005cb6:	4941      	ldr	r1, [pc, #260]	; (8005dbc <shellThread+0x15c>)
 8005cb8:	4628      	mov	r0, r5
 8005cba:	f7fc fdb1 	bl	8002820 <chprintf>
    args[n] = NULL;
 8005cbe:	ab1e      	add	r3, sp, #120	; 0x78
 8005cc0:	eb03 0484 	add.w	r4, r3, r4, lsl #2
 8005cc4:	2300      	movs	r3, #0
 8005cc6:	f844 3c5c 	str.w	r3, [r4, #-92]
  return ch.rlist.current;
 8005cca:	4b37      	ldr	r3, [pc, #220]	; (8005da8 <shellThread+0x148>)
 8005ccc:	699b      	ldr	r3, [r3, #24]
  return (bool)((chThdGetSelfX()->flags & CH_FLAG_TERMINATE) != (tmode_t)0);
 8005cce:	f893 3021 	ldrb.w	r3, [r3, #33]	; 0x21
  while (!chThdShouldTerminateX()) {
 8005cd2:	f013 0f04 	tst.w	r3, #4
 8005cd6:	d1e8      	bne.n	8005caa <shellThread+0x4a>
    chprintf(chp, SHELL_PROMPT_STR);
 8005cd8:	4939      	ldr	r1, [pc, #228]	; (8005dc0 <shellThread+0x160>)
 8005cda:	4628      	mov	r0, r5
 8005cdc:	f7fc fda0 	bl	8002820 <chprintf>
    if (shellGetLine(scfg, line, sizeof(line), shp)) {
 8005ce0:	ab02      	add	r3, sp, #8
 8005ce2:	2240      	movs	r2, #64	; 0x40
 8005ce4:	a90d      	add	r1, sp, #52	; 0x34
 8005ce6:	4630      	mov	r0, r6
 8005ce8:	f7fc fe82 	bl	80029f0 <shellGetLine>
 8005cec:	2800      	cmp	r0, #0
 8005cee:	d1d4      	bne.n	8005c9a <shellThread+0x3a>
    lp = parse_arguments(line, &tokp);
 8005cf0:	a91d      	add	r1, sp, #116	; 0x74
 8005cf2:	a80d      	add	r0, sp, #52	; 0x34
 8005cf4:	f7fc fd6c 	bl	80027d0 <parse_arguments>
 8005cf8:	4680      	mov	r8, r0
    n = 0;
 8005cfa:	2400      	movs	r4, #0
    while ((lp = parse_arguments(NULL, &tokp)) != NULL) {
 8005cfc:	a91d      	add	r1, sp, #116	; 0x74
 8005cfe:	2000      	movs	r0, #0
 8005d00:	f7fc fd66 	bl	80027d0 <parse_arguments>
 8005d04:	4603      	mov	r3, r0
 8005d06:	b140      	cbz	r0, 8005d1a <shellThread+0xba>
      if (n >= SHELL_MAX_ARGUMENTS) {
 8005d08:	2c04      	cmp	r4, #4
 8005d0a:	dcd4      	bgt.n	8005cb6 <shellThread+0x56>
      args[n++] = lp;
 8005d0c:	aa1e      	add	r2, sp, #120	; 0x78
 8005d0e:	eb02 0284 	add.w	r2, r2, r4, lsl #2
 8005d12:	f842 3c5c 	str.w	r3, [r2, #-92]
 8005d16:	3401      	adds	r4, #1
 8005d18:	e7f0      	b.n	8005cfc <shellThread+0x9c>
    args[n] = NULL;
 8005d1a:	2200      	movs	r2, #0
 8005d1c:	ab1e      	add	r3, sp, #120	; 0x78
 8005d1e:	eb03 0384 	add.w	r3, r3, r4, lsl #2
 8005d22:	f843 2c5c 	str.w	r2, [r3, #-92]
    if (cmd != NULL) {
 8005d26:	f1b8 0f00 	cmp.w	r8, #0
 8005d2a:	d0ce      	beq.n	8005cca <shellThread+0x6a>
      if (strcmp(cmd, "help") == 0) {
 8005d2c:	4925      	ldr	r1, [pc, #148]	; (8005dc4 <shellThread+0x164>)
 8005d2e:	4640      	mov	r0, r8
 8005d30:	f7fa fb7a 	bl	8000428 <strcmp>
 8005d34:	b9c8      	cbnz	r0, 8005d6a <shellThread+0x10a>
        if (n > 0) {
 8005d36:	2c00      	cmp	r4, #0
 8005d38:	dc11      	bgt.n	8005d5e <shellThread+0xfe>
        chprintf(chp, "Commands: help ");
 8005d3a:	4923      	ldr	r1, [pc, #140]	; (8005dc8 <shellThread+0x168>)
 8005d3c:	4628      	mov	r0, r5
 8005d3e:	f7fc fd6f 	bl	8002820 <chprintf>
        list_commands(chp, shell_local_commands);
 8005d42:	4922      	ldr	r1, [pc, #136]	; (8005dcc <shellThread+0x16c>)
 8005d44:	4628      	mov	r0, r5
 8005d46:	f7fc ff4b 	bl	8002be0 <list_commands>
        if (scp != NULL)
 8005d4a:	b11f      	cbz	r7, 8005d54 <shellThread+0xf4>
          list_commands(chp, scp);
 8005d4c:	4639      	mov	r1, r7
 8005d4e:	4628      	mov	r0, r5
 8005d50:	f7fc ff46 	bl	8002be0 <list_commands>
        chprintf(chp, SHELL_NEWLINE_STR);
 8005d54:	4916      	ldr	r1, [pc, #88]	; (8005db0 <shellThread+0x150>)
 8005d56:	4628      	mov	r0, r5
 8005d58:	f7fc fd62 	bl	8002820 <chprintf>
 8005d5c:	e7b5      	b.n	8005cca <shellThread+0x6a>
          shellUsage(chp, "help");
 8005d5e:	4a19      	ldr	r2, [pc, #100]	; (8005dc4 <shellThread+0x164>)
 8005d60:	491b      	ldr	r1, [pc, #108]	; (8005dd0 <shellThread+0x170>)
 8005d62:	4628      	mov	r0, r5
 8005d64:	f7fc fd5c 	bl	8002820 <chprintf>
          continue;
 8005d68:	e7af      	b.n	8005cca <shellThread+0x6a>
      else if (cmdexec(shell_local_commands, chp, cmd, n, args) &&
 8005d6a:	ab07      	add	r3, sp, #28
 8005d6c:	9300      	str	r3, [sp, #0]
 8005d6e:	4623      	mov	r3, r4
 8005d70:	4642      	mov	r2, r8
 8005d72:	4629      	mov	r1, r5
 8005d74:	4815      	ldr	r0, [pc, #84]	; (8005dcc <shellThread+0x16c>)
 8005d76:	f7fc f8e3 	bl	8001f40 <cmdexec>
 8005d7a:	2800      	cmp	r0, #0
 8005d7c:	d0a5      	beq.n	8005cca <shellThread+0x6a>
 8005d7e:	b14f      	cbz	r7, 8005d94 <shellThread+0x134>
          ((scp == NULL) || cmdexec(scp, chp, cmd, n, args))) {
 8005d80:	ab07      	add	r3, sp, #28
 8005d82:	9300      	str	r3, [sp, #0]
 8005d84:	4623      	mov	r3, r4
 8005d86:	4642      	mov	r2, r8
 8005d88:	4629      	mov	r1, r5
 8005d8a:	4638      	mov	r0, r7
 8005d8c:	f7fc f8d8 	bl	8001f40 <cmdexec>
 8005d90:	2800      	cmp	r0, #0
 8005d92:	d09a      	beq.n	8005cca <shellThread+0x6a>
        chprintf(chp, "%s", cmd);
 8005d94:	4642      	mov	r2, r8
 8005d96:	490f      	ldr	r1, [pc, #60]	; (8005dd4 <shellThread+0x174>)
 8005d98:	4628      	mov	r0, r5
 8005d9a:	f7fc fd41 	bl	8002820 <chprintf>
        chprintf(chp, " ?" SHELL_NEWLINE_STR);
 8005d9e:	490e      	ldr	r1, [pc, #56]	; (8005dd8 <shellThread+0x178>)
 8005da0:	4628      	mov	r0, r5
 8005da2:	f7fc fd3d 	bl	8002820 <chprintf>
 8005da6:	e790      	b.n	8005cca <shellThread+0x6a>
 8005da8:	20001040 	.word	0x20001040
 8005dac:	0800ca3c 	.word	0x0800ca3c
 8005db0:	0800c2dc 	.word	0x0800c2dc
 8005db4:	0800ca44 	.word	0x0800ca44
 8005db8:	0800ca60 	.word	0x0800ca60
 8005dbc:	0800ca68 	.word	0x0800ca68
 8005dc0:	0800ca58 	.word	0x0800ca58
 8005dc4:	0800ca80 	.word	0x0800ca80
 8005dc8:	0800ca88 	.word	0x0800ca88
 8005dcc:	0800df8c 	.word	0x0800df8c
 8005dd0:	0800c304 	.word	0x0800c304
 8005dd4:	0800c460 	.word	0x0800c460
 8005dd8:	0800ca98 	.word	0x0800ca98
 8005ddc:	00000000 	.word	0x00000000

08005de0 <cmd_exit>:
static void cmd_exit(BaseSequentialStream *chp, int argc, char *argv[]) {
 8005de0:	b508      	push	{r3, lr}
  if (argc > 0) {
 8005de2:	2900      	cmp	r1, #0
 8005de4:	dc03      	bgt.n	8005dee <cmd_exit+0xe>
  shellExit(MSG_OK);
 8005de6:	2000      	movs	r0, #0
 8005de8:	f7ff ff2a 	bl	8005c40 <shellExit>
}
 8005dec:	bd08      	pop	{r3, pc}
    shellUsage(chp, "exit");
 8005dee:	4a02      	ldr	r2, [pc, #8]	; (8005df8 <cmd_exit+0x18>)
 8005df0:	4902      	ldr	r1, [pc, #8]	; (8005dfc <cmd_exit+0x1c>)
 8005df2:	f7fc fd15 	bl	8002820 <chprintf>
    return;
 8005df6:	e7f9      	b.n	8005dec <cmd_exit+0xc>
 8005df8:	0800caa0 	.word	0x0800caa0
 8005dfc:	0800c304 	.word	0x0800c304

08005e00 <chEvtBroadcastFlags>:
void chEvtBroadcastFlags(event_source_t *esp, eventflags_t flags) {
 8005e00:	b508      	push	{r3, lr}
 8005e02:	2320      	movs	r3, #32
 8005e04:	f383 8811 	msr	BASEPRI, r3
  chEvtBroadcastFlagsI(esp, flags);
 8005e08:	f7ff ff02 	bl	8005c10 <chEvtBroadcastFlagsI>
  chSchRescheduleS();
 8005e0c:	f004 fb40 	bl	800a490 <chSchRescheduleS>
 8005e10:	2300      	movs	r3, #0
 8005e12:	f383 8811 	msr	BASEPRI, r3
}
 8005e16:	bd08      	pop	{r3, pc}
	...

08005e20 <evt_thread7>:
static THD_FUNCTION(evt_thread7, p) {
 8005e20:	b508      	push	{r3, lr}
  chEvtBroadcastFlags(esp, (eventflags_t)0);
 8005e22:	2100      	movs	r1, #0
 8005e24:	4805      	ldr	r0, [pc, #20]	; (8005e3c <evt_thread7+0x1c>)
 8005e26:	f7ff ffeb 	bl	8005e00 <chEvtBroadcastFlags>
  chThdSleepMilliseconds(50);
 8005e2a:	f44f 70fa 	mov.w	r0, #500	; 0x1f4
 8005e2e:	f7ff faa7 	bl	8005380 <chThdSleep>
 8005e32:	2100      	movs	r1, #0
 8005e34:	4802      	ldr	r0, [pc, #8]	; (8005e40 <evt_thread7+0x20>)
 8005e36:	f7ff ffe3 	bl	8005e00 <chEvtBroadcastFlags>
}
 8005e3a:	bd08      	pop	{r3, pc}
 8005e3c:	20000808 	.word	0x20000808
 8005e40:	2000080c 	.word	0x2000080c
	...

08005e50 <chMtxObjectInit>:
  tqp->next = (thread_t *)tqp;
 8005e50:	6000      	str	r0, [r0, #0]
  tqp->prev = (thread_t *)tqp;
 8005e52:	6040      	str	r0, [r0, #4]
  mp->owner = NULL;
 8005e54:	2300      	movs	r3, #0
 8005e56:	6083      	str	r3, [r0, #8]
}
 8005e58:	4770      	bx	lr
 8005e5a:	bf00      	nop
 8005e5c:	0000      	movs	r0, r0
	...

08005e60 <rt_test_011_011_setup>:
static void rt_test_011_011_setup(void) {
 8005e60:	b508      	push	{r3, lr}
  chMtxObjectInit(&mtx1);
 8005e62:	4802      	ldr	r0, [pc, #8]	; (8005e6c <rt_test_011_011_setup+0xc>)
 8005e64:	f7ff fff4 	bl	8005e50 <chMtxObjectInit>
}
 8005e68:	bd08      	pop	{r3, pc}
 8005e6a:	bf00      	nop
 8005e6c:	20001238 	.word	0x20001238

08005e70 <rt_test_007_009_setup>:
 * - [7.9.6] Signaling C1: TC wakes up, unlocks M1 and completes.
 * - [7.9.7] Checking the order of operations.
 * .
 */

static void rt_test_007_009_setup(void) {
 8005e70:	b508      	push	{r3, lr}
  chCondObjectInit(&c1);
 8005e72:	4805      	ldr	r0, [pc, #20]	; (8005e88 <rt_test_007_009_setup+0x18>)
 8005e74:	f7fb ff0c 	bl	8001c90 <chCondObjectInit>
  chMtxObjectInit(&m1);
 8005e78:	4804      	ldr	r0, [pc, #16]	; (8005e8c <rt_test_007_009_setup+0x1c>)
 8005e7a:	f7ff ffe9 	bl	8005e50 <chMtxObjectInit>
  chMtxObjectInit(&m2);
 8005e7e:	4804      	ldr	r0, [pc, #16]	; (8005e90 <rt_test_007_009_setup+0x20>)
 8005e80:	f7ff ffe6 	bl	8005e50 <chMtxObjectInit>
}
 8005e84:	bd08      	pop	{r3, pc}
 8005e86:	bf00      	nop
 8005e88:	20000800 	.word	0x20000800
 8005e8c:	2000082c 	.word	0x2000082c
 8005e90:	2000083c 	.word	0x2000083c
	...

08005ea0 <rt_test_007_008_setup>:
static void rt_test_007_008_setup(void) {
 8005ea0:	b508      	push	{r3, lr}
  chCondObjectInit(&c1);
 8005ea2:	4803      	ldr	r0, [pc, #12]	; (8005eb0 <rt_test_007_008_setup+0x10>)
 8005ea4:	f7fb fef4 	bl	8001c90 <chCondObjectInit>
  chMtxObjectInit(&m1);
 8005ea8:	4802      	ldr	r0, [pc, #8]	; (8005eb4 <rt_test_007_008_setup+0x14>)
 8005eaa:	f7ff ffd1 	bl	8005e50 <chMtxObjectInit>
}
 8005eae:	bd08      	pop	{r3, pc}
 8005eb0:	20000800 	.word	0x20000800
 8005eb4:	2000082c 	.word	0x2000082c
	...

08005ec0 <rt_test_007_007_setup>:
static void rt_test_007_007_setup(void) {
 8005ec0:	b508      	push	{r3, lr}
  chCondObjectInit(&c1);
 8005ec2:	4803      	ldr	r0, [pc, #12]	; (8005ed0 <rt_test_007_007_setup+0x10>)
 8005ec4:	f7fb fee4 	bl	8001c90 <chCondObjectInit>
  chMtxObjectInit(&m1);
 8005ec8:	4802      	ldr	r0, [pc, #8]	; (8005ed4 <rt_test_007_007_setup+0x14>)
 8005eca:	f7ff ffc1 	bl	8005e50 <chMtxObjectInit>
}
 8005ece:	bd08      	pop	{r3, pc}
 8005ed0:	20000800 	.word	0x20000800
 8005ed4:	2000082c 	.word	0x2000082c
	...

08005ee0 <rt_test_007_005_setup>:
static void rt_test_007_005_setup(void) {
 8005ee0:	b508      	push	{r3, lr}
  chMtxObjectInit(&m1);
 8005ee2:	4802      	ldr	r0, [pc, #8]	; (8005eec <rt_test_007_005_setup+0xc>)
 8005ee4:	f7ff ffb4 	bl	8005e50 <chMtxObjectInit>
}
 8005ee8:	bd08      	pop	{r3, pc}
 8005eea:	bf00      	nop
 8005eec:	2000082c 	.word	0x2000082c

08005ef0 <rt_test_007_004_setup>:
static void rt_test_007_004_setup(void) {
 8005ef0:	b508      	push	{r3, lr}
  chMtxObjectInit(&m1);
 8005ef2:	4803      	ldr	r0, [pc, #12]	; (8005f00 <rt_test_007_004_setup+0x10>)
 8005ef4:	f7ff ffac 	bl	8005e50 <chMtxObjectInit>
  chMtxObjectInit(&m2);
 8005ef8:	4802      	ldr	r0, [pc, #8]	; (8005f04 <rt_test_007_004_setup+0x14>)
 8005efa:	f7ff ffa9 	bl	8005e50 <chMtxObjectInit>
}
 8005efe:	bd08      	pop	{r3, pc}
 8005f00:	2000082c 	.word	0x2000082c
 8005f04:	2000083c 	.word	0x2000083c
	...

08005f10 <rt_test_007_001_setup>:
static void rt_test_007_001_setup(void) {
 8005f10:	b508      	push	{r3, lr}
  chMtxObjectInit(&m1);
 8005f12:	4802      	ldr	r0, [pc, #8]	; (8005f1c <rt_test_007_001_setup+0xc>)
 8005f14:	f7ff ff9c 	bl	8005e50 <chMtxObjectInit>
}
 8005f18:	bd08      	pop	{r3, pc}
 8005f1a:	bf00      	nop
 8005f1c:	2000082c 	.word	0x2000082c

08005f20 <_factory_init>:
void _factory_init(void) {
 8005f20:	b538      	push	{r3, r4, r5, lr}
  chMtxObjectInit(&ch_factory.mtx);
 8005f22:	4c12      	ldr	r4, [pc, #72]	; (8005f6c <_factory_init+0x4c>)
 8005f24:	4620      	mov	r0, r4
 8005f26:	f7ff ff93 	bl	8005e50 <chMtxObjectInit>
  dlp->next = (dyn_element_t *)dlp;
 8005f2a:	f104 0310 	add.w	r3, r4, #16
 8005f2e:	6123      	str	r3, [r4, #16]
  chPoolObjectInitAligned(mp, size, PORT_NATURAL_ALIGN, provider);
 8005f30:	4d0f      	ldr	r5, [pc, #60]	; (8005f70 <_factory_init+0x50>)
 8005f32:	462b      	mov	r3, r5
 8005f34:	2204      	movs	r2, #4
 8005f36:	2114      	movs	r1, #20
 8005f38:	1860      	adds	r0, r4, r1
 8005f3a:	f7fb fc61 	bl	8001800 <chPoolObjectInitAligned>
 8005f3e:	f104 0324 	add.w	r3, r4, #36	; 0x24
 8005f42:	6263      	str	r3, [r4, #36]	; 0x24
 8005f44:	f104 0328 	add.w	r3, r4, #40	; 0x28
 8005f48:	62a3      	str	r3, [r4, #40]	; 0x28
 8005f4a:	462b      	mov	r3, r5
 8005f4c:	2204      	movs	r2, #4
 8005f4e:	211c      	movs	r1, #28
 8005f50:	f104 002c 	add.w	r0, r4, #44	; 0x2c
 8005f54:	f7fb fc54 	bl	8001800 <chPoolObjectInitAligned>
 8005f58:	f104 033c 	add.w	r3, r4, #60	; 0x3c
 8005f5c:	63e3      	str	r3, [r4, #60]	; 0x3c
 8005f5e:	f104 0340 	add.w	r3, r4, #64	; 0x40
 8005f62:	6423      	str	r3, [r4, #64]	; 0x40
 8005f64:	f104 0344 	add.w	r3, r4, #68	; 0x44
 8005f68:	6463      	str	r3, [r4, #68]	; 0x44
}
 8005f6a:	bd38      	pop	{r3, r4, r5, pc}
 8005f6c:	200010b8 	.word	0x200010b8
 8005f70:	08001981 	.word	0x08001981
	...

08005f80 <chPipeObjectInit>:
void chPipeObjectInit(pipe_t *pp, uint8_t *buf, size_t n) {
 8005f80:	b510      	push	{r4, lr}
 8005f82:	4604      	mov	r4, r0
  pp->buffer = buf;
 8005f84:	6001      	str	r1, [r0, #0]
  pp->rdptr  = buf;
 8005f86:	60c1      	str	r1, [r0, #12]
  pp->wrptr  = buf;
 8005f88:	6081      	str	r1, [r0, #8]
  pp->top    = &buf[n];
 8005f8a:	4411      	add	r1, r2
 8005f8c:	6041      	str	r1, [r0, #4]
  pp->cnt    = (size_t)0;
 8005f8e:	2300      	movs	r3, #0
 8005f90:	6103      	str	r3, [r0, #16]
  pp->reset  = false;
 8005f92:	7503      	strb	r3, [r0, #20]
  pp->wtr    = NULL;
 8005f94:	6183      	str	r3, [r0, #24]
  pp->rtr    = NULL;
 8005f96:	61c3      	str	r3, [r0, #28]
  PC_INIT(pp);
 8005f98:	3020      	adds	r0, #32
 8005f9a:	f7ff ff59 	bl	8005e50 <chMtxObjectInit>
  PW_INIT(pp);
 8005f9e:	f104 0030 	add.w	r0, r4, #48	; 0x30
 8005fa2:	f7ff ff55 	bl	8005e50 <chMtxObjectInit>
  PR_INIT(pp);
 8005fa6:	f104 0040 	add.w	r0, r4, #64	; 0x40
 8005faa:	f7ff ff51 	bl	8005e50 <chMtxObjectInit>
}
 8005fae:	bd10      	pop	{r4, pc}

08005fb0 <oslib_test_003_002_setup>:
static void oslib_test_003_002_setup(void) {
 8005fb0:	b508      	push	{r3, lr}
  chPipeObjectInit(&pipe1, buffer, PIPE_SIZE / 2);
 8005fb2:	2208      	movs	r2, #8
 8005fb4:	4902      	ldr	r1, [pc, #8]	; (8005fc0 <oslib_test_003_002_setup+0x10>)
 8005fb6:	4803      	ldr	r0, [pc, #12]	; (8005fc4 <oslib_test_003_002_setup+0x14>)
 8005fb8:	f7ff ffe2 	bl	8005f80 <chPipeObjectInit>
}
 8005fbc:	bd08      	pop	{r3, pc}
 8005fbe:	bf00      	nop
 8005fc0:	20000fec 	.word	0x20000fec
 8005fc4:	2000088c 	.word	0x2000088c
	...

08005fd0 <oslib_test_003_001_setup>:
static void oslib_test_003_001_setup(void) {
 8005fd0:	b508      	push	{r3, lr}
  chPipeObjectInit(&pipe1, buffer, PIPE_SIZE);
 8005fd2:	2210      	movs	r2, #16
 8005fd4:	4902      	ldr	r1, [pc, #8]	; (8005fe0 <oslib_test_003_001_setup+0x10>)
 8005fd6:	4803      	ldr	r0, [pc, #12]	; (8005fe4 <oslib_test_003_001_setup+0x14>)
 8005fd8:	f7ff ffd2 	bl	8005f80 <chPipeObjectInit>
}
 8005fdc:	bd08      	pop	{r3, pc}
 8005fde:	bf00      	nop
 8005fe0:	20000fec 	.word	0x20000fec
 8005fe4:	2000088c 	.word	0x2000088c
	...

08005ff0 <chFactoryCreatePipe>:
dyn_pipe_t *chFactoryCreatePipe(const char *name, size_t size) {
 8005ff0:	b570      	push	{r4, r5, r6, lr}
 8005ff2:	4605      	mov	r5, r0
 8005ff4:	460c      	mov	r4, r1
  F_LOCK();
 8005ff6:	4e0c      	ldr	r6, [pc, #48]	; (8006028 <chFactoryCreatePipe+0x38>)
 8005ff8:	4630      	mov	r0, r6
 8005ffa:	f7fd f931 	bl	8003260 <chMtxLock>
  dpp = (dyn_pipe_t *)dyn_create_object_heap(name,
 8005ffe:	f104 0260 	add.w	r2, r4, #96	; 0x60
 8006002:	f106 0144 	add.w	r1, r6, #68	; 0x44
 8006006:	4628      	mov	r0, r5
 8006008:	f7fe f902 	bl	8004210 <dyn_create_object_heap>
  if (dpp != NULL) {
 800600c:	4605      	mov	r5, r0
 800600e:	b128      	cbz	r0, 800601c <chFactoryCreatePipe+0x2c>
    chPipeObjectInit(&dpp->pipe, (uint8_t *)(dpp + 1), size);
 8006010:	4622      	mov	r2, r4
 8006012:	f100 0160 	add.w	r1, r0, #96	; 0x60
 8006016:	3010      	adds	r0, #16
 8006018:	f7ff ffb2 	bl	8005f80 <chPipeObjectInit>
  F_UNLOCK();
 800601c:	4802      	ldr	r0, [pc, #8]	; (8006028 <chFactoryCreatePipe+0x38>)
 800601e:	f7fc ffc7 	bl	8002fb0 <chMtxUnlock>
}
 8006022:	4628      	mov	r0, r5
 8006024:	bd70      	pop	{r4, r5, r6, pc}
 8006026:	bf00      	nop
 8006028:	200010b8 	.word	0x200010b8
 800602c:	00000000 	.word	0x00000000

08006030 <oslib_test_009_006_execute>:

static void oslib_test_009_006_execute(void) {
 8006030:	b538      	push	{r3, r4, r5, lr}
  dyn_pipe_t *dpp;

  /* [9.6.1] Retrieving a dynamic pipe by name, must not exist.*/
  test_set_step(1);
 8006032:	4b47      	ldr	r3, [pc, #284]	; (8006150 <oslib_test_009_006_execute+0x120>)
 8006034:	2201      	movs	r2, #1
 8006036:	601a      	str	r2, [r3, #0]
  {
    dpp = chFactoryFindPipe("mypipe");
 8006038:	4846      	ldr	r0, [pc, #280]	; (8006154 <oslib_test_009_006_execute+0x124>)
 800603a:	f7fd f959 	bl	80032f0 <chFactoryFindPipe>
    test_assert(dpp == NULL, "found");
 800603e:	4946      	ldr	r1, [pc, #280]	; (8006158 <oslib_test_009_006_execute+0x128>)
 8006040:	fab0 f080 	clz	r0, r0
 8006044:	0940      	lsrs	r0, r0, #5
 8006046:	f7fb f8d3 	bl	80011f0 <_test_assert>
 800604a:	b100      	cbz	r0, 800604e <oslib_test_009_006_execute+0x1e>
  {
    dpp = chFactoryFindPipe("mypipe");
    test_assert(dpp == NULL, "found");
  }
  test_end_step(6);
}
 800604c:	bd38      	pop	{r3, r4, r5, pc}
  test_set_step(2);
 800604e:	4b40      	ldr	r3, [pc, #256]	; (8006150 <oslib_test_009_006_execute+0x120>)
 8006050:	2202      	movs	r2, #2
 8006052:	601a      	str	r2, [r3, #0]
    dpp = chFactoryCreatePipe("mypipe", 16U);
 8006054:	2110      	movs	r1, #16
 8006056:	483f      	ldr	r0, [pc, #252]	; (8006154 <oslib_test_009_006_execute+0x124>)
 8006058:	f7ff ffca 	bl	8005ff0 <chFactoryCreatePipe>
    test_assert(dpp != NULL, "cannot create");
 800605c:	4604      	mov	r4, r0
 800605e:	493f      	ldr	r1, [pc, #252]	; (800615c <oslib_test_009_006_execute+0x12c>)
 8006060:	3800      	subs	r0, #0
 8006062:	bf18      	it	ne
 8006064:	2001      	movne	r0, #1
 8006066:	f7fb f8c3 	bl	80011f0 <_test_assert>
 800606a:	2800      	cmp	r0, #0
 800606c:	d1ee      	bne.n	800604c <oslib_test_009_006_execute+0x1c>
  test_set_step(3);
 800606e:	4b38      	ldr	r3, [pc, #224]	; (8006150 <oslib_test_009_006_execute+0x120>)
 8006070:	2203      	movs	r2, #3
 8006072:	601a      	str	r2, [r3, #0]
    dpp1 = chFactoryCreatePipe("mypipe", 16U);
 8006074:	2110      	movs	r1, #16
 8006076:	4837      	ldr	r0, [pc, #220]	; (8006154 <oslib_test_009_006_execute+0x124>)
 8006078:	f7ff ffba 	bl	8005ff0 <chFactoryCreatePipe>
    test_assert(dpp1 == NULL, "can create");
 800607c:	4938      	ldr	r1, [pc, #224]	; (8006160 <oslib_test_009_006_execute+0x130>)
 800607e:	fab0 f080 	clz	r0, r0
 8006082:	0940      	lsrs	r0, r0, #5
 8006084:	f7fb f8b4 	bl	80011f0 <_test_assert>
 8006088:	2800      	cmp	r0, #0
 800608a:	d1df      	bne.n	800604c <oslib_test_009_006_execute+0x1c>
  test_set_step(4);
 800608c:	4b30      	ldr	r3, [pc, #192]	; (8006150 <oslib_test_009_006_execute+0x120>)
 800608e:	2204      	movs	r2, #4
 8006090:	601a      	str	r2, [r3, #0]
    dpp1 = chFactoryFindPipe("mypipe");
 8006092:	4830      	ldr	r0, [pc, #192]	; (8006154 <oslib_test_009_006_execute+0x124>)
 8006094:	f7fd f92c 	bl	80032f0 <chFactoryFindPipe>
    test_assert(dpp1 != NULL, "not found");
 8006098:	4605      	mov	r5, r0
 800609a:	4932      	ldr	r1, [pc, #200]	; (8006164 <oslib_test_009_006_execute+0x134>)
 800609c:	3800      	subs	r0, #0
 800609e:	bf18      	it	ne
 80060a0:	2001      	movne	r0, #1
 80060a2:	f7fb f8a5 	bl	80011f0 <_test_assert>
 80060a6:	2800      	cmp	r0, #0
 80060a8:	d1d0      	bne.n	800604c <oslib_test_009_006_execute+0x1c>
    test_assert(dpp == dpp1, "object reference mismatch");
 80060aa:	492f      	ldr	r1, [pc, #188]	; (8006168 <oslib_test_009_006_execute+0x138>)
 80060ac:	42ac      	cmp	r4, r5
 80060ae:	bf14      	ite	ne
 80060b0:	2000      	movne	r0, #0
 80060b2:	2001      	moveq	r0, #1
 80060b4:	f7fb f89c 	bl	80011f0 <_test_assert>
 80060b8:	2800      	cmp	r0, #0
 80060ba:	d1c7      	bne.n	800604c <oslib_test_009_006_execute+0x1c>
    test_assert(dpp1->element.refs == 2, "object reference mismatch");
 80060bc:	6868      	ldr	r0, [r5, #4]
 80060be:	492a      	ldr	r1, [pc, #168]	; (8006168 <oslib_test_009_006_execute+0x138>)
 80060c0:	2802      	cmp	r0, #2
 80060c2:	bf14      	ite	ne
 80060c4:	2000      	movne	r0, #0
 80060c6:	2001      	moveq	r0, #1
 80060c8:	f7fb f892 	bl	80011f0 <_test_assert>
 80060cc:	2800      	cmp	r0, #0
 80060ce:	d1bd      	bne.n	800604c <oslib_test_009_006_execute+0x1c>
 80060d0:	686b      	ldr	r3, [r5, #4]
 80060d2:	3301      	adds	r3, #1
 80060d4:	606b      	str	r3, [r5, #4]
    test_assert(dpp1 == dpp2, "object reference mismatch");
 80060d6:	4924      	ldr	r1, [pc, #144]	; (8006168 <oslib_test_009_006_execute+0x138>)
 80060d8:	2001      	movs	r0, #1
 80060da:	f7fb f889 	bl	80011f0 <_test_assert>
 80060de:	2800      	cmp	r0, #0
 80060e0:	d1b4      	bne.n	800604c <oslib_test_009_006_execute+0x1c>
    test_assert(dpp2->element.refs == 3, "object reference mismatch");
 80060e2:	6868      	ldr	r0, [r5, #4]
 80060e4:	4920      	ldr	r1, [pc, #128]	; (8006168 <oslib_test_009_006_execute+0x138>)
 80060e6:	2803      	cmp	r0, #3
 80060e8:	bf14      	ite	ne
 80060ea:	2000      	movne	r0, #0
 80060ec:	2001      	moveq	r0, #1
 80060ee:	f7fb f87f 	bl	80011f0 <_test_assert>
 80060f2:	2800      	cmp	r0, #0
 80060f4:	d1aa      	bne.n	800604c <oslib_test_009_006_execute+0x1c>
    chFactoryReleasePipe(dpp2);
 80060f6:	4628      	mov	r0, r5
 80060f8:	f7fd fcb2 	bl	8003a60 <chFactoryReleasePipe>
    test_assert(dpp1->element.refs == 2, "references mismatch");
 80060fc:	6868      	ldr	r0, [r5, #4]
 80060fe:	491b      	ldr	r1, [pc, #108]	; (800616c <oslib_test_009_006_execute+0x13c>)
 8006100:	2802      	cmp	r0, #2
 8006102:	bf14      	ite	ne
 8006104:	2000      	movne	r0, #0
 8006106:	2001      	moveq	r0, #1
 8006108:	f7fb f872 	bl	80011f0 <_test_assert>
 800610c:	2800      	cmp	r0, #0
 800610e:	d19d      	bne.n	800604c <oslib_test_009_006_execute+0x1c>
    chFactoryReleasePipe(dpp1);
 8006110:	4628      	mov	r0, r5
 8006112:	f7fd fca5 	bl	8003a60 <chFactoryReleasePipe>
    test_assert(dpp->element.refs == 1, "references mismatch");
 8006116:	6860      	ldr	r0, [r4, #4]
 8006118:	4914      	ldr	r1, [pc, #80]	; (800616c <oslib_test_009_006_execute+0x13c>)
 800611a:	2801      	cmp	r0, #1
 800611c:	bf14      	ite	ne
 800611e:	2000      	movne	r0, #0
 8006120:	2001      	moveq	r0, #1
 8006122:	f7fb f865 	bl	80011f0 <_test_assert>
 8006126:	2800      	cmp	r0, #0
 8006128:	d190      	bne.n	800604c <oslib_test_009_006_execute+0x1c>
  test_set_step(5);
 800612a:	4d09      	ldr	r5, [pc, #36]	; (8006150 <oslib_test_009_006_execute+0x120>)
 800612c:	2305      	movs	r3, #5
 800612e:	602b      	str	r3, [r5, #0]
    chFactoryReleasePipe(dpp);
 8006130:	4620      	mov	r0, r4
 8006132:	f7fd fc95 	bl	8003a60 <chFactoryReleasePipe>
  test_set_step(6);
 8006136:	2306      	movs	r3, #6
 8006138:	602b      	str	r3, [r5, #0]
    dpp = chFactoryFindPipe("mypipe");
 800613a:	4806      	ldr	r0, [pc, #24]	; (8006154 <oslib_test_009_006_execute+0x124>)
 800613c:	f7fd f8d8 	bl	80032f0 <chFactoryFindPipe>
    test_assert(dpp == NULL, "found");
 8006140:	4905      	ldr	r1, [pc, #20]	; (8006158 <oslib_test_009_006_execute+0x128>)
 8006142:	fab0 f080 	clz	r0, r0
 8006146:	0940      	lsrs	r0, r0, #5
 8006148:	f7fb f852 	bl	80011f0 <_test_assert>
  test_end_step(6);
 800614c:	e77e      	b.n	800604c <oslib_test_009_006_execute+0x1c>
 800614e:	bf00      	nop
 8006150:	20001a7c 	.word	0x20001a7c
 8006154:	0800c678 	.word	0x0800c678
 8006158:	0800c58c 	.word	0x0800c58c
 800615c:	0800c56c 	.word	0x0800c56c
 8006160:	0800c57c 	.word	0x0800c57c
 8006164:	0800c588 	.word	0x0800c588
 8006168:	0800c594 	.word	0x0800c594
 800616c:	0800c5b0 	.word	0x0800c5b0

08006170 <chHeapObjectInit>:
void chHeapObjectInit(memory_heap_t *heapp, void *buf, size_t size) {
 8006170:	b508      	push	{r3, lr}
  heap_header_t *hp = (heap_header_t *)MEM_ALIGN_NEXT(buf, CH_HEAP_ALIGNMENT);
 8006172:	1dcb      	adds	r3, r1, #7
 8006174:	f023 0307 	bic.w	r3, r3, #7
  size -= (size_t)((uint8_t *)hp - (uint8_t *)buf);
 8006178:	1a59      	subs	r1, r3, r1
 800617a:	1a52      	subs	r2, r2, r1
  heapp->provider = NULL;
 800617c:	2100      	movs	r1, #0
 800617e:	6001      	str	r1, [r0, #0]
  H_NEXT(&heapp->header) = hp;
 8006180:	6043      	str	r3, [r0, #4]
  H_PAGES(&heapp->header) = 0;
 8006182:	6081      	str	r1, [r0, #8]
  H_NEXT(hp) = NULL;
 8006184:	6019      	str	r1, [r3, #0]
  H_PAGES(hp) = (size - sizeof (heap_header_t)) / CH_HEAP_ALIGNMENT;
 8006186:	3a08      	subs	r2, #8
 8006188:	08d2      	lsrs	r2, r2, #3
 800618a:	605a      	str	r2, [r3, #4]
  chMtxObjectInit(&heapp->mtx);
 800618c:	300c      	adds	r0, #12
 800618e:	f7ff fe5f 	bl	8005e50 <chMtxObjectInit>
}
 8006192:	bd08      	pop	{r3, pc}
	...

080061a0 <oslib_test_008_001_setup>:
static void oslib_test_008_001_setup(void) {
 80061a0:	b508      	push	{r3, lr}
  chHeapObjectInit(&test_heap, test_heap_buffer, sizeof(test_heap_buffer));
 80061a2:	2280      	movs	r2, #128	; 0x80
 80061a4:	4902      	ldr	r1, [pc, #8]	; (80061b0 <oslib_test_008_001_setup+0x10>)
 80061a6:	4803      	ldr	r0, [pc, #12]	; (80061b4 <oslib_test_008_001_setup+0x14>)
 80061a8:	f7ff ffe2 	bl	8006170 <chHeapObjectInit>
}
 80061ac:	bd08      	pop	{r3, pc}
 80061ae:	bf00      	nop
 80061b0:	200019f8 	.word	0x200019f8
 80061b4:	200019dc 	.word	0x200019dc
	...

080061c0 <rt_test_010_001_setup>:
static void rt_test_010_001_setup(void) {
 80061c0:	b508      	push	{r3, lr}
  chHeapObjectInit(&heap1, test_buffer, sizeof test_buffer);
 80061c2:	f44f 62cd 	mov.w	r2, #1640	; 0x668
 80061c6:	4902      	ldr	r1, [pc, #8]	; (80061d0 <rt_test_010_001_setup+0x10>)
 80061c8:	4802      	ldr	r0, [pc, #8]	; (80061d4 <rt_test_010_001_setup+0x14>)
 80061ca:	f7ff ffd1 	bl	8006170 <chHeapObjectInit>
}
 80061ce:	bd08      	pop	{r3, pc}
 80061d0:	20001368 	.word	0x20001368
 80061d4:	20001168 	.word	0x20001168
	...

080061e0 <_heap_init>:
void _heap_init(void) {
 80061e0:	b508      	push	{r3, lr}
  default_heap.provider = chCoreAllocAlignedWithOffset;
 80061e2:	4805      	ldr	r0, [pc, #20]	; (80061f8 <_heap_init+0x18>)
 80061e4:	4b05      	ldr	r3, [pc, #20]	; (80061fc <_heap_init+0x1c>)
 80061e6:	6003      	str	r3, [r0, #0]
  H_NEXT(&default_heap.header) = NULL;
 80061e8:	2300      	movs	r3, #0
 80061ea:	6043      	str	r3, [r0, #4]
  H_PAGES(&default_heap.header) = 0;
 80061ec:	6083      	str	r3, [r0, #8]
  chMtxObjectInit(&default_heap.mtx);
 80061ee:	300c      	adds	r0, #12
 80061f0:	f7ff fe2e 	bl	8005e50 <chMtxObjectInit>
}
 80061f4:	bd08      	pop	{r3, pc}
 80061f6:	bf00      	nop
 80061f8:	20001108 	.word	0x20001108
 80061fc:	08001991 	.word	0x08001991

08006200 <_tm_init>:
void _tm_init(void) {
 8006200:	b510      	push	{r4, lr}
 8006202:	b086      	sub	sp, #24
  ch.tm.offset = (rtcnt_t)0;
 8006204:	4c07      	ldr	r4, [pc, #28]	; (8006224 <_tm_init+0x24>)
 8006206:	2300      	movs	r3, #0
 8006208:	6763      	str	r3, [r4, #116]	; 0x74
  chTMObjectInit(&tm);
 800620a:	4668      	mov	r0, sp
 800620c:	f7fb fe60 	bl	8001ed0 <chTMObjectInit>
  chTMStartMeasurementX(&tm);
 8006210:	4668      	mov	r0, sp
 8006212:	f7fb fe55 	bl	8001ec0 <chTMStartMeasurementX>
  chTMStopMeasurementX(&tm);
 8006216:	4668      	mov	r0, sp
 8006218:	f7fb fe2a 	bl	8001e70 <chTMStopMeasurementX>
  ch.tm.offset = tm.last;
 800621c:	9b02      	ldr	r3, [sp, #8]
 800621e:	6763      	str	r3, [r4, #116]	; 0x74
}
 8006220:	b006      	add	sp, #24
 8006222:	bd10      	pop	{r4, pc}
 8006224:	20001040 	.word	0x20001040
	...

08006230 <chThdDequeueAllI>:
 * @param[in] tqp       pointer to the threads queue object
 * @param[in] msg       the message code
 *
 * @iclass
 */
void chThdDequeueAllI(threads_queue_t *tqp, msg_t msg) {
 8006230:	b538      	push	{r3, r4, r5, lr}
 8006232:	4604      	mov	r4, r0
 8006234:	460d      	mov	r5, r1
  return (bool)(tqp->next != (const thread_t *)tqp);
 8006236:	6820      	ldr	r0, [r4, #0]

  while (queue_notempty(tqp)) {
 8006238:	4284      	cmp	r4, r0
 800623a:	d006      	beq.n	800624a <chThdDequeueAllI+0x1a>
  tqp->next             = tp->queue.next;
 800623c:	6803      	ldr	r3, [r0, #0]
 800623e:	6023      	str	r3, [r4, #0]
  tqp->next->queue.prev = (thread_t *)tqp;
 8006240:	605c      	str	r4, [r3, #4]

  tp = queue_fifo_remove(tqp);

  chDbgAssert(tp->state == CH_STATE_QUEUED, "invalid state");

  tp->u.rdymsg = msg;
 8006242:	6245      	str	r5, [r0, #36]	; 0x24
  (void) chSchReadyI(tp);
 8006244:	f004 f94c 	bl	800a4e0 <chSchReadyI>
 8006248:	e7f5      	b.n	8006236 <chThdDequeueAllI+0x6>
    chThdDoDequeueNextI(tqp, msg);
  }
}
 800624a:	bd38      	pop	{r3, r4, r5, pc}
 800624c:	0000      	movs	r0, r0
	...

08006250 <chMBResetI>:
 *
 * @param[in] mbp       the pointer to an initialized @p mailbox_t object
 *
 * @api
 */
void chMBResetI(mailbox_t *mbp) {
 8006250:	b510      	push	{r4, lr}
 8006252:	4604      	mov	r4, r0

  chDbgCheckClassI();
  chDbgCheck(mbp != NULL);

  mbp->wrptr = mbp->buffer;
 8006254:	6803      	ldr	r3, [r0, #0]
 8006256:	6083      	str	r3, [r0, #8]
  mbp->rdptr = mbp->buffer;
 8006258:	60c3      	str	r3, [r0, #12]
  mbp->cnt   = (size_t)0;
 800625a:	2300      	movs	r3, #0
 800625c:	6103      	str	r3, [r0, #16]
  mbp->reset = true;
 800625e:	2301      	movs	r3, #1
 8006260:	7503      	strb	r3, [r0, #20]
  chThdDequeueAllI(&mbp->qw, MSG_RESET);
 8006262:	f06f 0101 	mvn.w	r1, #1
 8006266:	3018      	adds	r0, #24
 8006268:	f7ff ffe2 	bl	8006230 <chThdDequeueAllI>
  chThdDequeueAllI(&mbp->qr, MSG_RESET);
 800626c:	f06f 0101 	mvn.w	r1, #1
 8006270:	f104 0020 	add.w	r0, r4, #32
 8006274:	f7ff ffdc 	bl	8006230 <chThdDequeueAllI>
}
 8006278:	bd10      	pop	{r4, pc}
 800627a:	bf00      	nop
 800627c:	0000      	movs	r0, r0
	...

08006280 <chMBReset>:
void chMBReset(mailbox_t *mbp) {
 8006280:	b508      	push	{r3, lr}
 8006282:	2320      	movs	r3, #32
 8006284:	f383 8811 	msr	BASEPRI, r3
  chMBResetI(mbp);
 8006288:	f7ff ffe2 	bl	8006250 <chMBResetI>
  chSchRescheduleS();
 800628c:	f004 f900 	bl	800a490 <chSchRescheduleS>
 8006290:	2300      	movs	r3, #0
 8006292:	f383 8811 	msr	BASEPRI, r3
}
 8006296:	bd08      	pop	{r3, pc}
	...

080062a0 <oslib_test_002_003_teardown>:

static void oslib_test_002_003_teardown(void) {
 80062a0:	b508      	push	{r3, lr}
  chMBReset(&mb1);
 80062a2:	4802      	ldr	r0, [pc, #8]	; (80062ac <oslib_test_002_003_teardown+0xc>)
 80062a4:	f7ff ffec 	bl	8006280 <chMBReset>
}
 80062a8:	bd08      	pop	{r3, pc}
 80062aa:	bf00      	nop
 80062ac:	2000084c 	.word	0x2000084c

080062b0 <oslib_test_002_002_teardown>:
static void oslib_test_002_002_teardown(void) {
 80062b0:	b508      	push	{r3, lr}
  chMBReset(&mb1);
 80062b2:	4802      	ldr	r0, [pc, #8]	; (80062bc <oslib_test_002_002_teardown+0xc>)
 80062b4:	f7ff ffe4 	bl	8006280 <chMBReset>
}
 80062b8:	bd08      	pop	{r3, pc}
 80062ba:	bf00      	nop
 80062bc:	2000084c 	.word	0x2000084c

080062c0 <oslib_test_002_001_teardown>:
static void oslib_test_002_001_teardown(void) {
 80062c0:	b508      	push	{r3, lr}
  chMBReset(&mb1);
 80062c2:	4802      	ldr	r0, [pc, #8]	; (80062cc <oslib_test_002_001_teardown+0xc>)
 80062c4:	f7ff ffdc 	bl	8006280 <chMBReset>
}
 80062c8:	bd08      	pop	{r3, pc}
 80062ca:	bf00      	nop
 80062cc:	2000084c 	.word	0x2000084c

080062d0 <chThdDequeueNextI>:
void chThdDequeueNextI(threads_queue_t *tqp, msg_t msg) {
 80062d0:	b508      	push	{r3, lr}
 80062d2:	4603      	mov	r3, r0
  return (bool)(tqp->next != (const thread_t *)tqp);
 80062d4:	6800      	ldr	r0, [r0, #0]
  if (queue_notempty(tqp)) {
 80062d6:	4283      	cmp	r3, r0
 80062d8:	d005      	beq.n	80062e6 <chThdDequeueNextI+0x16>
  tqp->next             = tp->queue.next;
 80062da:	6802      	ldr	r2, [r0, #0]
 80062dc:	601a      	str	r2, [r3, #0]
  tqp->next->queue.prev = (thread_t *)tqp;
 80062de:	6053      	str	r3, [r2, #4]
  tp->u.rdymsg = msg;
 80062e0:	6241      	str	r1, [r0, #36]	; 0x24
  (void) chSchReadyI(tp);
 80062e2:	f004 f8fd 	bl	800a4e0 <chSchReadyI>
}
 80062e6:	bd08      	pop	{r3, pc}
	...

080062f0 <chMBFetchI>:
 * @retval MSG_TIMEOUT  if the mailbox is empty and a message cannot be
 *                      fetched.
 *
 * @iclass
 */
msg_t chMBFetchI(mailbox_t *mbp, msg_t *msgp) {
 80062f0:	b508      	push	{r3, lr}

  chDbgCheckClassI();
  chDbgCheck((mbp != NULL) && (msgp != NULL));

  /* If the mailbox is in reset state then returns immediately.*/
  if (mbp->reset) {
 80062f2:	7d03      	ldrb	r3, [r0, #20]
 80062f4:	b9ab      	cbnz	r3, 8006322 <chMBFetchI+0x32>
 */
static inline size_t chMBGetUsedCountI(const mailbox_t *mbp) {

  chDbgCheckClassI();

  return mbp->cnt;
 80062f6:	6903      	ldr	r3, [r0, #16]
    return MSG_RESET;
  }

  /* Is there a message in queue? if so then fetch.*/
  if (chMBGetUsedCountI(mbp) > (size_t)0) {
 80062f8:	b1b3      	cbz	r3, 8006328 <chMBFetchI+0x38>
    *msgp = *mbp->rdptr++;
 80062fa:	68c3      	ldr	r3, [r0, #12]
 80062fc:	1d1a      	adds	r2, r3, #4
 80062fe:	60c2      	str	r2, [r0, #12]
 8006300:	681b      	ldr	r3, [r3, #0]
 8006302:	600b      	str	r3, [r1, #0]
    if (mbp->rdptr >= mbp->top) {
 8006304:	68c2      	ldr	r2, [r0, #12]
 8006306:	6843      	ldr	r3, [r0, #4]
 8006308:	429a      	cmp	r2, r3
 800630a:	d301      	bcc.n	8006310 <chMBFetchI+0x20>
      mbp->rdptr = mbp->buffer;
 800630c:	6803      	ldr	r3, [r0, #0]
 800630e:	60c3      	str	r3, [r0, #12]
    }
    mbp->cnt--;
 8006310:	6903      	ldr	r3, [r0, #16]
 8006312:	3b01      	subs	r3, #1
 8006314:	6103      	str	r3, [r0, #16]

    /* If there is a writer waiting then makes it ready.*/
    chThdDequeueNextI(&mbp->qw, MSG_OK);
 8006316:	2100      	movs	r1, #0
 8006318:	3018      	adds	r0, #24
 800631a:	f7ff ffd9 	bl	80062d0 <chThdDequeueNextI>

    return MSG_OK;
 800631e:	2000      	movs	r0, #0
  }

  /* No message, immediate timeout.*/
  return MSG_TIMEOUT;
}
 8006320:	bd08      	pop	{r3, pc}
    return MSG_RESET;
 8006322:	f06f 0001 	mvn.w	r0, #1
 8006326:	e7fb      	b.n	8006320 <chMBFetchI+0x30>
  return MSG_TIMEOUT;
 8006328:	f04f 30ff 	mov.w	r0, #4294967295	; 0xffffffff
 800632c:	e7f8      	b.n	8006320 <chMBFetchI+0x30>
 800632e:	bf00      	nop

08006330 <chMBPostAheadI>:
msg_t chMBPostAheadI(mailbox_t *mbp, msg_t msg) {
 8006330:	b538      	push	{r3, r4, r5, lr}
  if (mbp->reset) {
 8006332:	7d03      	ldrb	r3, [r0, #20]
 8006334:	b9c3      	cbnz	r3, 8006368 <chMBPostAheadI+0x38>
  return (size_t)(mbp->top - mbp->buffer);
 8006336:	6842      	ldr	r2, [r0, #4]
 8006338:	6804      	ldr	r4, [r0, #0]
 800633a:	1b15      	subs	r5, r2, r4
  return mbp->cnt;
 800633c:	6903      	ldr	r3, [r0, #16]
  if (chMBGetFreeCountI(mbp) > (size_t)0) {
 800633e:	ebb3 0fa5 	cmp.w	r3, r5, asr #2
 8006342:	d014      	beq.n	800636e <chMBPostAheadI+0x3e>
    if (--mbp->rdptr < mbp->buffer) {
 8006344:	68c3      	ldr	r3, [r0, #12]
 8006346:	3b04      	subs	r3, #4
 8006348:	60c3      	str	r3, [r0, #12]
 800634a:	42a3      	cmp	r3, r4
 800634c:	d201      	bcs.n	8006352 <chMBPostAheadI+0x22>
      mbp->rdptr = mbp->top - 1;
 800634e:	3a04      	subs	r2, #4
 8006350:	60c2      	str	r2, [r0, #12]
    *mbp->rdptr = msg;
 8006352:	68c3      	ldr	r3, [r0, #12]
 8006354:	6019      	str	r1, [r3, #0]
    mbp->cnt++;
 8006356:	6903      	ldr	r3, [r0, #16]
 8006358:	3301      	adds	r3, #1
 800635a:	6103      	str	r3, [r0, #16]
    chThdDequeueNextI(&mbp->qr, MSG_OK);
 800635c:	2100      	movs	r1, #0
 800635e:	3020      	adds	r0, #32
 8006360:	f7ff ffb6 	bl	80062d0 <chThdDequeueNextI>
    return MSG_OK;
 8006364:	2000      	movs	r0, #0
}
 8006366:	bd38      	pop	{r3, r4, r5, pc}
    return MSG_RESET;
 8006368:	f06f 0001 	mvn.w	r0, #1
 800636c:	e7fb      	b.n	8006366 <chMBPostAheadI+0x36>
  return MSG_TIMEOUT;
 800636e:	f04f 30ff 	mov.w	r0, #4294967295	; 0xffffffff
 8006372:	e7f8      	b.n	8006366 <chMBPostAheadI+0x36>
	...

08006380 <chMBPostI>:
msg_t chMBPostI(mailbox_t *mbp, msg_t msg) {
 8006380:	b508      	push	{r3, lr}
  if (mbp->reset) {
 8006382:	7d03      	ldrb	r3, [r0, #20]
 8006384:	b9cb      	cbnz	r3, 80063ba <chMBPostI+0x3a>
  return (size_t)(mbp->top - mbp->buffer);
 8006386:	6843      	ldr	r3, [r0, #4]
 8006388:	6802      	ldr	r2, [r0, #0]
 800638a:	1a9b      	subs	r3, r3, r2
  return mbp->cnt;
 800638c:	6902      	ldr	r2, [r0, #16]
  if (chMBGetFreeCountI(mbp) > (size_t)0) {
 800638e:	ebb2 0fa3 	cmp.w	r2, r3, asr #2
 8006392:	d015      	beq.n	80063c0 <chMBPostI+0x40>
    *mbp->wrptr++ = msg;
 8006394:	6883      	ldr	r3, [r0, #8]
 8006396:	1d1a      	adds	r2, r3, #4
 8006398:	6082      	str	r2, [r0, #8]
 800639a:	6019      	str	r1, [r3, #0]
    if (mbp->wrptr >= mbp->top) {
 800639c:	6882      	ldr	r2, [r0, #8]
 800639e:	6843      	ldr	r3, [r0, #4]
 80063a0:	429a      	cmp	r2, r3
 80063a2:	d301      	bcc.n	80063a8 <chMBPostI+0x28>
      mbp->wrptr = mbp->buffer;
 80063a4:	6803      	ldr	r3, [r0, #0]
 80063a6:	6083      	str	r3, [r0, #8]
    mbp->cnt++;
 80063a8:	6903      	ldr	r3, [r0, #16]
 80063aa:	3301      	adds	r3, #1
 80063ac:	6103      	str	r3, [r0, #16]
    chThdDequeueNextI(&mbp->qr, MSG_OK);
 80063ae:	2100      	movs	r1, #0
 80063b0:	3020      	adds	r0, #32
 80063b2:	f7ff ff8d 	bl	80062d0 <chThdDequeueNextI>
    return MSG_OK;
 80063b6:	2000      	movs	r0, #0
}
 80063b8:	bd08      	pop	{r3, pc}
    return MSG_RESET;
 80063ba:	f06f 0001 	mvn.w	r0, #1
 80063be:	e7fb      	b.n	80063b8 <chMBPostI+0x38>
  return MSG_TIMEOUT;
 80063c0:	f04f 30ff 	mov.w	r0, #4294967295	; 0xffffffff
 80063c4:	e7f8      	b.n	80063b8 <chMBPostI+0x38>
 80063c6:	bf00      	nop
	...

080063d0 <chThdEnqueueTimeoutS>:
  if (TIME_IMMEDIATE == timeout) {
 80063d0:	b159      	cbz	r1, 80063ea <chThdEnqueueTimeoutS+0x1a>
msg_t chThdEnqueueTimeoutS(threads_queue_t *tqp, sysinterval_t timeout) {
 80063d2:	b510      	push	{r4, lr}
  queue_insert(currp, tqp);
 80063d4:	4b06      	ldr	r3, [pc, #24]	; (80063f0 <chThdEnqueueTimeoutS+0x20>)
 80063d6:	699b      	ldr	r3, [r3, #24]
  tp->queue.next             = (thread_t *)tqp;
 80063d8:	6018      	str	r0, [r3, #0]
  tp->queue.prev             = tqp->prev;
 80063da:	6842      	ldr	r2, [r0, #4]
 80063dc:	605a      	str	r2, [r3, #4]
  tp->queue.prev->queue.next = tp;
 80063de:	6013      	str	r3, [r2, #0]
  tqp->prev                  = tp;
 80063e0:	6043      	str	r3, [r0, #4]
  return chSchGoSleepTimeoutS(CH_STATE_QUEUED, timeout);
 80063e2:	2004      	movs	r0, #4
 80063e4:	f004 fd9c 	bl	800af20 <chSchGoSleepTimeoutS>
}
 80063e8:	bd10      	pop	{r4, pc}
    return MSG_TIMEOUT;
 80063ea:	f04f 30ff 	mov.w	r0, #4294967295	; 0xffffffff
}
 80063ee:	4770      	bx	lr
 80063f0:	20001040 	.word	0x20001040
	...

08006400 <chMBFetchTimeoutS>:
msg_t chMBFetchTimeoutS(mailbox_t *mbp, msg_t *msgp, sysinterval_t timeout) {
 8006400:	b570      	push	{r4, r5, r6, lr}
 8006402:	4604      	mov	r4, r0
 8006404:	460e      	mov	r6, r1
 8006406:	4615      	mov	r5, r2
    if (mbp->reset) {
 8006408:	7d23      	ldrb	r3, [r4, #20]
 800640a:	bb0b      	cbnz	r3, 8006450 <chMBFetchTimeoutS+0x50>
 800640c:	6923      	ldr	r3, [r4, #16]
    if (chMBGetUsedCountI(mbp) > (size_t)0) {
 800640e:	b943      	cbnz	r3, 8006422 <chMBFetchTimeoutS+0x22>
    rdymsg = chThdEnqueueTimeoutS(&mbp->qr, timeout);
 8006410:	4629      	mov	r1, r5
 8006412:	f104 0020 	add.w	r0, r4, #32
 8006416:	f7ff ffdb 	bl	80063d0 <chThdEnqueueTimeoutS>
  } while (rdymsg == MSG_OK);
 800641a:	4603      	mov	r3, r0
 800641c:	2800      	cmp	r0, #0
 800641e:	d0f3      	beq.n	8006408 <chMBFetchTimeoutS+0x8>
 8006420:	e018      	b.n	8006454 <chMBFetchTimeoutS+0x54>
      *msgp = *mbp->rdptr++;
 8006422:	68e3      	ldr	r3, [r4, #12]
 8006424:	1d1a      	adds	r2, r3, #4
 8006426:	60e2      	str	r2, [r4, #12]
 8006428:	681b      	ldr	r3, [r3, #0]
 800642a:	6033      	str	r3, [r6, #0]
      if (mbp->rdptr >= mbp->top) {
 800642c:	68e2      	ldr	r2, [r4, #12]
 800642e:	6863      	ldr	r3, [r4, #4]
 8006430:	429a      	cmp	r2, r3
 8006432:	d301      	bcc.n	8006438 <chMBFetchTimeoutS+0x38>
        mbp->rdptr = mbp->buffer;
 8006434:	6823      	ldr	r3, [r4, #0]
 8006436:	60e3      	str	r3, [r4, #12]
      mbp->cnt--;
 8006438:	6923      	ldr	r3, [r4, #16]
 800643a:	3b01      	subs	r3, #1
 800643c:	6123      	str	r3, [r4, #16]
      chThdDequeueNextI(&mbp->qw, MSG_OK);
 800643e:	2100      	movs	r1, #0
 8006440:	f104 0018 	add.w	r0, r4, #24
 8006444:	f7ff ff44 	bl	80062d0 <chThdDequeueNextI>
      chSchRescheduleS();
 8006448:	f004 f822 	bl	800a490 <chSchRescheduleS>
      return MSG_OK;
 800644c:	2300      	movs	r3, #0
 800644e:	e001      	b.n	8006454 <chMBFetchTimeoutS+0x54>
      return MSG_RESET;
 8006450:	f06f 0301 	mvn.w	r3, #1
}
 8006454:	4618      	mov	r0, r3
 8006456:	bd70      	pop	{r4, r5, r6, pc}
	...

08006460 <chMBFetchTimeout>:
msg_t chMBFetchTimeout(mailbox_t *mbp, msg_t *msgp, sysinterval_t timeout) {
 8006460:	b508      	push	{r3, lr}
 8006462:	2320      	movs	r3, #32
 8006464:	f383 8811 	msr	BASEPRI, r3
  rdymsg = chMBFetchTimeoutS(mbp, msgp, timeout);
 8006468:	f7ff ffca 	bl	8006400 <chMBFetchTimeoutS>
 800646c:	2300      	movs	r3, #0
 800646e:	f383 8811 	msr	BASEPRI, r3
}
 8006472:	bd08      	pop	{r3, pc}
	...

08006480 <Thread1.lto_priv.0>:

static THD_WORKING_AREA(wa1Thread1, 256);
static THD_WORKING_AREA(wa2Thread1, 256);
static THD_FUNCTION(Thread1, arg) {
 8006480:	b530      	push	{r4, r5, lr}
 8006482:	b083      	sub	sp, #12
 8006484:	e002      	b.n	800648c <Thread1.lto_priv.0+0xc>

      /* Returning the job descriptor object.*/
      chGuardedPoolFree(&jqp->free, (void *)jp);
    }
    else {
      msg = MSG_JOB_NULL;
 8006486:	f06f 0401 	mvn.w	r4, #1

  (void)arg;

  do {
    msg = chJobDispatch(&jq);
  } while (msg == MSG_OK);
 800648a:	b99c      	cbnz	r4, 80064b4 <Thread1.lto_priv.0+0x34>
  msg = chMBFetchTimeout(&jqp->mbx, &jmsg, TIME_INFINITE);
 800648c:	f04f 32ff 	mov.w	r2, #4294967295	; 0xffffffff
 8006490:	a901      	add	r1, sp, #4
 8006492:	4809      	ldr	r0, [pc, #36]	; (80064b8 <Thread1.lto_priv.0+0x38>)
 8006494:	f7ff ffe4 	bl	8006460 <chMBFetchTimeout>
  if (msg == MSG_OK) {
 8006498:	4604      	mov	r4, r0
 800649a:	2800      	cmp	r0, #0
 800649c:	d1f5      	bne.n	800648a <Thread1.lto_priv.0+0xa>
    job_descriptor_t *jp = (job_descriptor_t *)jmsg;
 800649e:	9d01      	ldr	r5, [sp, #4]
    if (jp->jobfunc != NULL) {
 80064a0:	682b      	ldr	r3, [r5, #0]
 80064a2:	2b00      	cmp	r3, #0
 80064a4:	d0ef      	beq.n	8006486 <Thread1.lto_priv.0+0x6>
      jp->jobfunc(jp->jobarg);
 80064a6:	6868      	ldr	r0, [r5, #4]
 80064a8:	4798      	blx	r3
      chGuardedPoolFree(&jqp->free, (void *)jp);
 80064aa:	4629      	mov	r1, r5
 80064ac:	4803      	ldr	r0, [pc, #12]	; (80064bc <Thread1.lto_priv.0+0x3c>)
 80064ae:	f7fe fa8f 	bl	80049d0 <chGuardedPoolFree>
 80064b2:	e7ea      	b.n	800648a <Thread1.lto_priv.0+0xa>
}
 80064b4:	b003      	add	sp, #12
 80064b6:	bd30      	pop	{r4, r5, pc}
 80064b8:	200011e0 	.word	0x200011e0
 80064bc:	200011c4 	.word	0x200011c4

080064c0 <chMBPostAheadTimeoutS>:
msg_t chMBPostAheadTimeoutS(mailbox_t *mbp, msg_t msg, sysinterval_t timeout) {
 80064c0:	b5f8      	push	{r3, r4, r5, r6, r7, lr}
 80064c2:	4604      	mov	r4, r0
 80064c4:	460e      	mov	r6, r1
 80064c6:	4617      	mov	r7, r2
    if (mbp->reset) {
 80064c8:	7d23      	ldrb	r3, [r4, #20]
 80064ca:	bb23      	cbnz	r3, 8006516 <chMBPostAheadTimeoutS+0x56>
  return (size_t)(mbp->top - mbp->buffer);
 80064cc:	6863      	ldr	r3, [r4, #4]
 80064ce:	6820      	ldr	r0, [r4, #0]
 80064d0:	1a1a      	subs	r2, r3, r0
  return mbp->cnt;
 80064d2:	6925      	ldr	r5, [r4, #16]
    if (chMBGetFreeCountI(mbp) > (size_t)0) {
 80064d4:	ebb5 0fa2 	cmp.w	r5, r2, asr #2
 80064d8:	d108      	bne.n	80064ec <chMBPostAheadTimeoutS+0x2c>
    rdymsg = chThdEnqueueTimeoutS(&mbp->qw, timeout);
 80064da:	4639      	mov	r1, r7
 80064dc:	f104 0018 	add.w	r0, r4, #24
 80064e0:	f7ff ff76 	bl	80063d0 <chThdEnqueueTimeoutS>
  } while (rdymsg == MSG_OK);
 80064e4:	4603      	mov	r3, r0
 80064e6:	2800      	cmp	r0, #0
 80064e8:	d0ee      	beq.n	80064c8 <chMBPostAheadTimeoutS+0x8>
 80064ea:	e016      	b.n	800651a <chMBPostAheadTimeoutS+0x5a>
      if (--mbp->rdptr < mbp->buffer) {
 80064ec:	68e2      	ldr	r2, [r4, #12]
 80064ee:	3a04      	subs	r2, #4
 80064f0:	60e2      	str	r2, [r4, #12]
 80064f2:	4282      	cmp	r2, r0
 80064f4:	d201      	bcs.n	80064fa <chMBPostAheadTimeoutS+0x3a>
        mbp->rdptr = mbp->top - 1;
 80064f6:	3b04      	subs	r3, #4
 80064f8:	60e3      	str	r3, [r4, #12]
      *mbp->rdptr = msg;
 80064fa:	68e3      	ldr	r3, [r4, #12]
 80064fc:	601e      	str	r6, [r3, #0]
      mbp->cnt++;
 80064fe:	6923      	ldr	r3, [r4, #16]
 8006500:	3301      	adds	r3, #1
 8006502:	6123      	str	r3, [r4, #16]
      chThdDequeueNextI(&mbp->qr, MSG_OK);
 8006504:	2100      	movs	r1, #0
 8006506:	f104 0020 	add.w	r0, r4, #32
 800650a:	f7ff fee1 	bl	80062d0 <chThdDequeueNextI>
      chSchRescheduleS();
 800650e:	f003 ffbf 	bl	800a490 <chSchRescheduleS>
      return MSG_OK;
 8006512:	2300      	movs	r3, #0
 8006514:	e001      	b.n	800651a <chMBPostAheadTimeoutS+0x5a>
      return MSG_RESET;
 8006516:	f06f 0301 	mvn.w	r3, #1
}
 800651a:	4618      	mov	r0, r3
 800651c:	bdf8      	pop	{r3, r4, r5, r6, r7, pc}
 800651e:	bf00      	nop

08006520 <chMBPostAheadTimeout>:
msg_t chMBPostAheadTimeout(mailbox_t *mbp, msg_t msg, sysinterval_t timeout) {
 8006520:	b508      	push	{r3, lr}
 8006522:	2320      	movs	r3, #32
 8006524:	f383 8811 	msr	BASEPRI, r3
  rdymsg = chMBPostAheadTimeoutS(mbp, msg, timeout);
 8006528:	f7ff ffca 	bl	80064c0 <chMBPostAheadTimeoutS>
 800652c:	2300      	movs	r3, #0
 800652e:	f383 8811 	msr	BASEPRI, r3
}
 8006532:	bd08      	pop	{r3, pc}
	...

08006540 <chMBPostTimeoutS>:
msg_t chMBPostTimeoutS(mailbox_t *mbp, msg_t msg, sysinterval_t timeout) {
 8006540:	b570      	push	{r4, r5, r6, lr}
 8006542:	4604      	mov	r4, r0
 8006544:	460e      	mov	r6, r1
 8006546:	4615      	mov	r5, r2
    if (mbp->reset) {
 8006548:	7d23      	ldrb	r3, [r4, #20]
 800654a:	bb2b      	cbnz	r3, 8006598 <chMBPostTimeoutS+0x58>
  return (size_t)(mbp->top - mbp->buffer);
 800654c:	6863      	ldr	r3, [r4, #4]
 800654e:	6822      	ldr	r2, [r4, #0]
 8006550:	1a9b      	subs	r3, r3, r2
  return mbp->cnt;
 8006552:	6920      	ldr	r0, [r4, #16]
    if (chMBGetFreeCountI(mbp) > (size_t)0) {
 8006554:	ebb0 0fa3 	cmp.w	r0, r3, asr #2
 8006558:	d108      	bne.n	800656c <chMBPostTimeoutS+0x2c>
    rdymsg = chThdEnqueueTimeoutS(&mbp->qw, timeout);
 800655a:	4629      	mov	r1, r5
 800655c:	f104 0018 	add.w	r0, r4, #24
 8006560:	f7ff ff36 	bl	80063d0 <chThdEnqueueTimeoutS>
  } while (rdymsg == MSG_OK);
 8006564:	4603      	mov	r3, r0
 8006566:	2800      	cmp	r0, #0
 8006568:	d0ee      	beq.n	8006548 <chMBPostTimeoutS+0x8>
 800656a:	e017      	b.n	800659c <chMBPostTimeoutS+0x5c>
      *mbp->wrptr++ = msg;
 800656c:	68a3      	ldr	r3, [r4, #8]
 800656e:	1d1a      	adds	r2, r3, #4
 8006570:	60a2      	str	r2, [r4, #8]
 8006572:	601e      	str	r6, [r3, #0]
      if (mbp->wrptr >= mbp->top) {
 8006574:	68a2      	ldr	r2, [r4, #8]
 8006576:	6863      	ldr	r3, [r4, #4]
 8006578:	429a      	cmp	r2, r3
 800657a:	d301      	bcc.n	8006580 <chMBPostTimeoutS+0x40>
        mbp->wrptr = mbp->buffer;
 800657c:	6823      	ldr	r3, [r4, #0]
 800657e:	60a3      	str	r3, [r4, #8]
      mbp->cnt++;
 8006580:	6923      	ldr	r3, [r4, #16]
 8006582:	3301      	adds	r3, #1
 8006584:	6123      	str	r3, [r4, #16]
      chThdDequeueNextI(&mbp->qr, MSG_OK);
 8006586:	2100      	movs	r1, #0
 8006588:	f104 0020 	add.w	r0, r4, #32
 800658c:	f7ff fea0 	bl	80062d0 <chThdDequeueNextI>
      chSchRescheduleS();
 8006590:	f003 ff7e 	bl	800a490 <chSchRescheduleS>
      return MSG_OK;
 8006594:	2300      	movs	r3, #0
 8006596:	e001      	b.n	800659c <chMBPostTimeoutS+0x5c>
      return MSG_RESET;
 8006598:	f06f 0301 	mvn.w	r3, #1
}
 800659c:	4618      	mov	r0, r3
 800659e:	bd70      	pop	{r4, r5, r6, pc}

080065a0 <chMBPostTimeout>:
msg_t chMBPostTimeout(mailbox_t *mbp, msg_t msg, sysinterval_t timeout) {
 80065a0:	b508      	push	{r3, lr}
 80065a2:	2320      	movs	r3, #32
 80065a4:	f383 8811 	msr	BASEPRI, r3
  rdymsg = chMBPostTimeoutS(mbp, msg, timeout);
 80065a8:	f7ff ffca 	bl	8006540 <chMBPostTimeoutS>
 80065ac:	2300      	movs	r3, #0
 80065ae:	f383 8811 	msr	BASEPRI, r3
}
 80065b2:	bd08      	pop	{r3, pc}
	...

080065c0 <oslib_test_002_003_execute>:

static void oslib_test_002_003_execute(void) {
 80065c0:	b530      	push	{r4, r5, lr}
 80065c2:	b083      	sub	sp, #12
  msg_t msg1, msg2;
  unsigned i;

  /* [2.3.1] Filling the mailbox.*/
  test_set_step(1);
 80065c4:	4b46      	ldr	r3, [pc, #280]	; (80066e0 <oslib_test_002_003_execute+0x120>)
 80065c6:	2201      	movs	r2, #1
 80065c8:	601a      	str	r2, [r3, #0]
  {
    for (i = 0; i < MB_SIZE; i++) {
 80065ca:	2400      	movs	r4, #0
 80065cc:	2c03      	cmp	r4, #3
 80065ce:	d80f      	bhi.n	80065f0 <oslib_test_002_003_execute+0x30>
      msg1 = chMBPostTimeout(&mb1, 'B' + i, TIME_INFINITE);
 80065d0:	f04f 32ff 	mov.w	r2, #4294967295	; 0xffffffff
 80065d4:	f104 0142 	add.w	r1, r4, #66	; 0x42
 80065d8:	4842      	ldr	r0, [pc, #264]	; (80066e4 <oslib_test_002_003_execute+0x124>)
 80065da:	f7ff ffe1 	bl	80065a0 <chMBPostTimeout>
      test_assert(msg1 == MSG_OK, "wrong wake-up message");
 80065de:	4942      	ldr	r1, [pc, #264]	; (80066e8 <oslib_test_002_003_execute+0x128>)
 80065e0:	fab0 f080 	clz	r0, r0
 80065e4:	0940      	lsrs	r0, r0, #5
 80065e6:	f7fa fe03 	bl	80011f0 <_test_assert>
 80065ea:	b990      	cbnz	r0, 8006612 <oslib_test_002_003_execute+0x52>
    for (i = 0; i < MB_SIZE; i++) {
 80065ec:	3401      	adds	r4, #1
 80065ee:	e7ed      	b.n	80065cc <oslib_test_002_003_execute+0xc>
  }
  test_end_step(1);

  /* [2.3.2] Testing chMBPostTimeout(), chMBPostI(),
     chMBPostAheadTimeout() and chMBPostAheadI() timeout.*/
  test_set_step(2);
 80065f0:	4b3b      	ldr	r3, [pc, #236]	; (80066e0 <oslib_test_002_003_execute+0x120>)
 80065f2:	2202      	movs	r2, #2
 80065f4:	601a      	str	r2, [r3, #0]
  {
    msg1 = chMBPostTimeout(&mb1, 'X', 1);
 80065f6:	2201      	movs	r2, #1
 80065f8:	2158      	movs	r1, #88	; 0x58
 80065fa:	483a      	ldr	r0, [pc, #232]	; (80066e4 <oslib_test_002_003_execute+0x124>)
 80065fc:	f7ff ffd0 	bl	80065a0 <chMBPostTimeout>
    test_assert(msg1 == MSG_TIMEOUT, "wrong wake-up message");
 8006600:	4939      	ldr	r1, [pc, #228]	; (80066e8 <oslib_test_002_003_execute+0x128>)
 8006602:	f1b0 3fff 	cmp.w	r0, #4294967295	; 0xffffffff
 8006606:	bf14      	ite	ne
 8006608:	2000      	movne	r0, #0
 800660a:	2001      	moveq	r0, #1
 800660c:	f7fa fdf0 	bl	80011f0 <_test_assert>
 8006610:	b108      	cbz	r0, 8006616 <oslib_test_002_003_execute+0x56>
    msg1 = chMBFetchI(&mb1, &msg2);
    chSysUnlock();
    test_assert(msg1 == MSG_TIMEOUT, "wrong wake-up message");
  }
  test_end_step(4);
}
 8006612:	b003      	add	sp, #12
 8006614:	bd30      	pop	{r4, r5, pc}
 8006616:	2320      	movs	r3, #32
 8006618:	f383 8811 	msr	BASEPRI, r3
    msg1 = chMBPostI(&mb1, 'X');
 800661c:	2158      	movs	r1, #88	; 0x58
 800661e:	4831      	ldr	r0, [pc, #196]	; (80066e4 <oslib_test_002_003_execute+0x124>)
 8006620:	f7ff feae 	bl	8006380 <chMBPostI>
 8006624:	2300      	movs	r3, #0
 8006626:	f383 8811 	msr	BASEPRI, r3
    test_assert(msg1 == MSG_TIMEOUT, "wrong wake-up message");
 800662a:	492f      	ldr	r1, [pc, #188]	; (80066e8 <oslib_test_002_003_execute+0x128>)
 800662c:	f1b0 3fff 	cmp.w	r0, #4294967295	; 0xffffffff
 8006630:	bf14      	ite	ne
 8006632:	2000      	movne	r0, #0
 8006634:	2001      	moveq	r0, #1
 8006636:	f7fa fddb 	bl	80011f0 <_test_assert>
 800663a:	2800      	cmp	r0, #0
 800663c:	d1e9      	bne.n	8006612 <oslib_test_002_003_execute+0x52>
    msg1 = chMBPostAheadTimeout(&mb1, 'X', 1);
 800663e:	2201      	movs	r2, #1
 8006640:	2158      	movs	r1, #88	; 0x58
 8006642:	4828      	ldr	r0, [pc, #160]	; (80066e4 <oslib_test_002_003_execute+0x124>)
 8006644:	f7ff ff6c 	bl	8006520 <chMBPostAheadTimeout>
    test_assert(msg1 == MSG_TIMEOUT, "wrong wake-up message");
 8006648:	4927      	ldr	r1, [pc, #156]	; (80066e8 <oslib_test_002_003_execute+0x128>)
 800664a:	f1b0 3fff 	cmp.w	r0, #4294967295	; 0xffffffff
 800664e:	bf14      	ite	ne
 8006650:	2000      	movne	r0, #0
 8006652:	2001      	moveq	r0, #1
 8006654:	f7fa fdcc 	bl	80011f0 <_test_assert>
 8006658:	2800      	cmp	r0, #0
 800665a:	d1da      	bne.n	8006612 <oslib_test_002_003_execute+0x52>
 800665c:	2320      	movs	r3, #32
 800665e:	f383 8811 	msr	BASEPRI, r3
    msg1 = chMBPostAheadI(&mb1, 'X');
 8006662:	2158      	movs	r1, #88	; 0x58
 8006664:	481f      	ldr	r0, [pc, #124]	; (80066e4 <oslib_test_002_003_execute+0x124>)
 8006666:	f7ff fe63 	bl	8006330 <chMBPostAheadI>
 800666a:	2300      	movs	r3, #0
 800666c:	f383 8811 	msr	BASEPRI, r3
    test_assert(msg1 == MSG_TIMEOUT, "wrong wake-up message");
 8006670:	491d      	ldr	r1, [pc, #116]	; (80066e8 <oslib_test_002_003_execute+0x128>)
 8006672:	f1b0 3fff 	cmp.w	r0, #4294967295	; 0xffffffff
 8006676:	bf14      	ite	ne
 8006678:	2000      	movne	r0, #0
 800667a:	2001      	moveq	r0, #1
 800667c:	f7fa fdb8 	bl	80011f0 <_test_assert>
 8006680:	2800      	cmp	r0, #0
 8006682:	d1c6      	bne.n	8006612 <oslib_test_002_003_execute+0x52>
  test_set_step(3);
 8006684:	4d16      	ldr	r5, [pc, #88]	; (80066e0 <oslib_test_002_003_execute+0x120>)
 8006686:	2303      	movs	r3, #3
 8006688:	602b      	str	r3, [r5, #0]
    chMBReset(&mb1);
 800668a:	4c16      	ldr	r4, [pc, #88]	; (80066e4 <oslib_test_002_003_execute+0x124>)
 800668c:	4620      	mov	r0, r4
 800668e:	f7ff fdf7 	bl	8006280 <chMBReset>
 *
 * @xclass
 */
static inline void chMBResumeX(mailbox_t *mbp) {

  mbp->reset = false;
 8006692:	2300      	movs	r3, #0
 8006694:	7523      	strb	r3, [r4, #20]
  test_set_step(4);
 8006696:	2304      	movs	r3, #4
 8006698:	602b      	str	r3, [r5, #0]
    msg1 = chMBFetchTimeout(&mb1, &msg2, 1);
 800669a:	2201      	movs	r2, #1
 800669c:	eb0d 0103 	add.w	r1, sp, r3
 80066a0:	4620      	mov	r0, r4
 80066a2:	f7ff fedd 	bl	8006460 <chMBFetchTimeout>
    test_assert(msg1 == MSG_TIMEOUT, "wrong wake-up message");
 80066a6:	4910      	ldr	r1, [pc, #64]	; (80066e8 <oslib_test_002_003_execute+0x128>)
 80066a8:	f1b0 3fff 	cmp.w	r0, #4294967295	; 0xffffffff
 80066ac:	bf14      	ite	ne
 80066ae:	2000      	movne	r0, #0
 80066b0:	2001      	moveq	r0, #1
 80066b2:	f7fa fd9d 	bl	80011f0 <_test_assert>
 80066b6:	2800      	cmp	r0, #0
 80066b8:	d1ab      	bne.n	8006612 <oslib_test_002_003_execute+0x52>
 80066ba:	2320      	movs	r3, #32
 80066bc:	f383 8811 	msr	BASEPRI, r3
    msg1 = chMBFetchI(&mb1, &msg2);
 80066c0:	a901      	add	r1, sp, #4
 80066c2:	4620      	mov	r0, r4
 80066c4:	f7ff fe14 	bl	80062f0 <chMBFetchI>
 80066c8:	2300      	movs	r3, #0
 80066ca:	f383 8811 	msr	BASEPRI, r3
    test_assert(msg1 == MSG_TIMEOUT, "wrong wake-up message");
 80066ce:	4906      	ldr	r1, [pc, #24]	; (80066e8 <oslib_test_002_003_execute+0x128>)
 80066d0:	f1b0 3fff 	cmp.w	r0, #4294967295	; 0xffffffff
 80066d4:	bf14      	ite	ne
 80066d6:	2000      	movne	r0, #0
 80066d8:	2001      	moveq	r0, #1
 80066da:	f7fa fd89 	bl	80011f0 <_test_assert>
 80066de:	e798      	b.n	8006612 <oslib_test_002_003_execute+0x52>
 80066e0:	20001a7c 	.word	0x20001a7c
 80066e4:	2000084c 	.word	0x2000084c
 80066e8:	0800caa8 	.word	0x0800caa8
 80066ec:	00000000 	.word	0x00000000

080066f0 <oslib_test_002_002_execute>:
static void oslib_test_002_002_execute(void) {
 80066f0:	b570      	push	{r4, r5, r6, lr}
 80066f2:	b082      	sub	sp, #8
  test_set_step(1);
 80066f4:	4bb0      	ldr	r3, [pc, #704]	; (80069b8 <oslib_test_002_002_execute+0x2c8>)
 80066f6:	2201      	movs	r2, #1
 80066f8:	601a      	str	r2, [r3, #0]
 80066fa:	2320      	movs	r3, #32
 80066fc:	f383 8811 	msr	BASEPRI, r3
  return (size_t)(mbp->top - mbp->buffer);
 8006700:	4aae      	ldr	r2, [pc, #696]	; (80069bc <oslib_test_002_002_execute+0x2cc>)
 8006702:	6850      	ldr	r0, [r2, #4]
 8006704:	6813      	ldr	r3, [r2, #0]
 8006706:	1ac3      	subs	r3, r0, r3
  return mbp->cnt;
 8006708:	6910      	ldr	r0, [r2, #16]
  return chMBGetSizeI(mbp) - chMBGetUsedCountI(mbp);
 800670a:	ebc0 00a3 	rsb	r0, r0, r3, asr #2
    test_assert_lock(chMBGetFreeCountI(&mb1) == MB_SIZE, "wrong size");
 800670e:	49ac      	ldr	r1, [pc, #688]	; (80069c0 <oslib_test_002_002_execute+0x2d0>)
 8006710:	2804      	cmp	r0, #4
 8006712:	bf14      	ite	ne
 8006714:	2000      	movne	r0, #0
 8006716:	2001      	moveq	r0, #1
 8006718:	f7fa fd6a 	bl	80011f0 <_test_assert>
 800671c:	b120      	cbz	r0, 8006728 <oslib_test_002_002_execute+0x38>
 800671e:	2300      	movs	r3, #0
 8006720:	f383 8811 	msr	BASEPRI, r3
}
 8006724:	b002      	add	sp, #8
 8006726:	bd70      	pop	{r4, r5, r6, pc}
 8006728:	2600      	movs	r6, #0
 800672a:	f386 8811 	msr	BASEPRI, r6
  test_set_step(2);
 800672e:	4ba2      	ldr	r3, [pc, #648]	; (80069b8 <oslib_test_002_002_execute+0x2c8>)
 8006730:	2202      	movs	r2, #2
 8006732:	601a      	str	r2, [r3, #0]
 8006734:	2520      	movs	r5, #32
 8006736:	f385 8811 	msr	BASEPRI, r5
    chMBResetI(&mb1);
 800673a:	4ca0      	ldr	r4, [pc, #640]	; (80069bc <oslib_test_002_002_execute+0x2cc>)
 800673c:	4620      	mov	r0, r4
 800673e:	f7ff fd87 	bl	8006250 <chMBResetI>
 8006742:	f386 8811 	msr	BASEPRI, r6
 8006746:	f385 8811 	msr	BASEPRI, r5
  return (size_t)(mbp->top - mbp->buffer);
 800674a:	6860      	ldr	r0, [r4, #4]
 800674c:	6823      	ldr	r3, [r4, #0]
 800674e:	1ac3      	subs	r3, r0, r3
  return mbp->cnt;
 8006750:	6920      	ldr	r0, [r4, #16]
  return chMBGetSizeI(mbp) - chMBGetUsedCountI(mbp);
 8006752:	ebc0 00a3 	rsb	r0, r0, r3, asr #2
    test_assert_lock(chMBGetFreeCountI(&mb1) == MB_SIZE, "not empty");
 8006756:	499b      	ldr	r1, [pc, #620]	; (80069c4 <oslib_test_002_002_execute+0x2d4>)
 8006758:	2804      	cmp	r0, #4
 800675a:	bf14      	ite	ne
 800675c:	2000      	movne	r0, #0
 800675e:	2001      	moveq	r0, #1
 8006760:	f7fa fd46 	bl	80011f0 <_test_assert>
 8006764:	b110      	cbz	r0, 800676c <oslib_test_002_002_execute+0x7c>
 8006766:	f386 8811 	msr	BASEPRI, r6
 800676a:	e7db      	b.n	8006724 <oslib_test_002_002_execute+0x34>
 800676c:	2300      	movs	r3, #0
 800676e:	f383 8811 	msr	BASEPRI, r3
 8006772:	2320      	movs	r3, #32
 8006774:	f383 8811 	msr	BASEPRI, r3
  return mbp->cnt;
 8006778:	4b90      	ldr	r3, [pc, #576]	; (80069bc <oslib_test_002_002_execute+0x2cc>)
 800677a:	6918      	ldr	r0, [r3, #16]
    test_assert_lock(chMBGetUsedCountI(&mb1) == 0, "still full");
 800677c:	4992      	ldr	r1, [pc, #584]	; (80069c8 <oslib_test_002_002_execute+0x2d8>)
 800677e:	fab0 f080 	clz	r0, r0
 8006782:	0940      	lsrs	r0, r0, #5
 8006784:	f7fa fd34 	bl	80011f0 <_test_assert>
 8006788:	b118      	cbz	r0, 8006792 <oslib_test_002_002_execute+0xa2>
 800678a:	2300      	movs	r3, #0
 800678c:	f383 8811 	msr	BASEPRI, r3
 8006790:	e7c8      	b.n	8006724 <oslib_test_002_002_execute+0x34>
 8006792:	2300      	movs	r3, #0
 8006794:	f383 8811 	msr	BASEPRI, r3
 8006798:	2320      	movs	r3, #32
 800679a:	f383 8811 	msr	BASEPRI, r3
    test_assert_lock(mb1.buffer == mb1.wrptr, "write pointer not aligned to base");
 800679e:	4b87      	ldr	r3, [pc, #540]	; (80069bc <oslib_test_002_002_execute+0x2cc>)
 80067a0:	6818      	ldr	r0, [r3, #0]
 80067a2:	689b      	ldr	r3, [r3, #8]
 80067a4:	4989      	ldr	r1, [pc, #548]	; (80069cc <oslib_test_002_002_execute+0x2dc>)
 80067a6:	4298      	cmp	r0, r3
 80067a8:	bf14      	ite	ne
 80067aa:	2000      	movne	r0, #0
 80067ac:	2001      	moveq	r0, #1
 80067ae:	f7fa fd1f 	bl	80011f0 <_test_assert>
 80067b2:	b118      	cbz	r0, 80067bc <oslib_test_002_002_execute+0xcc>
 80067b4:	2300      	movs	r3, #0
 80067b6:	f383 8811 	msr	BASEPRI, r3
 80067ba:	e7b3      	b.n	8006724 <oslib_test_002_002_execute+0x34>
 80067bc:	2300      	movs	r3, #0
 80067be:	f383 8811 	msr	BASEPRI, r3
 80067c2:	2320      	movs	r3, #32
 80067c4:	f383 8811 	msr	BASEPRI, r3
    test_assert_lock(mb1.buffer == mb1.rdptr, "read pointer not aligned to base");
 80067c8:	4b7c      	ldr	r3, [pc, #496]	; (80069bc <oslib_test_002_002_execute+0x2cc>)
 80067ca:	6818      	ldr	r0, [r3, #0]
 80067cc:	68db      	ldr	r3, [r3, #12]
 80067ce:	4980      	ldr	r1, [pc, #512]	; (80069d0 <oslib_test_002_002_execute+0x2e0>)
 80067d0:	4298      	cmp	r0, r3
 80067d2:	bf14      	ite	ne
 80067d4:	2000      	movne	r0, #0
 80067d6:	2001      	moveq	r0, #1
 80067d8:	f7fa fd0a 	bl	80011f0 <_test_assert>
 80067dc:	b9f0      	cbnz	r0, 800681c <oslib_test_002_002_execute+0x12c>
 80067de:	2400      	movs	r4, #0
 80067e0:	f384 8811 	msr	BASEPRI, r4
  mbp->reset = false;
 80067e4:	4b75      	ldr	r3, [pc, #468]	; (80069bc <oslib_test_002_002_execute+0x2cc>)
 80067e6:	751c      	strb	r4, [r3, #20]
  test_set_step(3);
 80067e8:	4b73      	ldr	r3, [pc, #460]	; (80069b8 <oslib_test_002_002_execute+0x2c8>)
 80067ea:	2203      	movs	r2, #3
 80067ec:	601a      	str	r2, [r3, #0]
    for (i = 0; i < MB_SIZE - 1; i++) {
 80067ee:	2c02      	cmp	r4, #2
 80067f0:	d818      	bhi.n	8006824 <oslib_test_002_002_execute+0x134>
 80067f2:	2320      	movs	r3, #32
 80067f4:	f383 8811 	msr	BASEPRI, r3
      msg1 = chMBPostI(&mb1, 'B' + i);
 80067f8:	f104 0142 	add.w	r1, r4, #66	; 0x42
 80067fc:	486f      	ldr	r0, [pc, #444]	; (80069bc <oslib_test_002_002_execute+0x2cc>)
 80067fe:	f7ff fdbf 	bl	8006380 <chMBPostI>
 8006802:	2300      	movs	r3, #0
 8006804:	f383 8811 	msr	BASEPRI, r3
      test_assert(msg1 == MSG_OK, "wrong wake-up message");
 8006808:	4972      	ldr	r1, [pc, #456]	; (80069d4 <oslib_test_002_002_execute+0x2e4>)
 800680a:	fab0 f080 	clz	r0, r0
 800680e:	0940      	lsrs	r0, r0, #5
 8006810:	f7fa fcee 	bl	80011f0 <_test_assert>
 8006814:	2800      	cmp	r0, #0
 8006816:	d185      	bne.n	8006724 <oslib_test_002_002_execute+0x34>
    for (i = 0; i < MB_SIZE - 1; i++) {
 8006818:	3401      	adds	r4, #1
 800681a:	e7e8      	b.n	80067ee <oslib_test_002_002_execute+0xfe>
 800681c:	2300      	movs	r3, #0
 800681e:	f383 8811 	msr	BASEPRI, r3
    test_assert_lock(mb1.buffer == mb1.rdptr, "read pointer not aligned to base");
 8006822:	e77f      	b.n	8006724 <oslib_test_002_002_execute+0x34>
 8006824:	2320      	movs	r3, #32
 8006826:	f383 8811 	msr	BASEPRI, r3
    msg1 = chMBPostAheadI(&mb1, 'A');
 800682a:	2141      	movs	r1, #65	; 0x41
 800682c:	4863      	ldr	r0, [pc, #396]	; (80069bc <oslib_test_002_002_execute+0x2cc>)
 800682e:	f7ff fd7f 	bl	8006330 <chMBPostAheadI>
 8006832:	2300      	movs	r3, #0
 8006834:	f383 8811 	msr	BASEPRI, r3
    test_assert(msg1 == MSG_OK, "wrong wake-up message");
 8006838:	4966      	ldr	r1, [pc, #408]	; (80069d4 <oslib_test_002_002_execute+0x2e4>)
 800683a:	fab0 f080 	clz	r0, r0
 800683e:	0940      	lsrs	r0, r0, #5
 8006840:	f7fa fcd6 	bl	80011f0 <_test_assert>
 8006844:	2800      	cmp	r0, #0
 8006846:	f47f af6d 	bne.w	8006724 <oslib_test_002_002_execute+0x34>
  test_set_step(4);
 800684a:	4b5b      	ldr	r3, [pc, #364]	; (80069b8 <oslib_test_002_002_execute+0x2c8>)
 800684c:	2204      	movs	r2, #4
 800684e:	601a      	str	r2, [r3, #0]
 8006850:	2320      	movs	r3, #32
 8006852:	f383 8811 	msr	BASEPRI, r3
  return (size_t)(mbp->top - mbp->buffer);
 8006856:	4a59      	ldr	r2, [pc, #356]	; (80069bc <oslib_test_002_002_execute+0x2cc>)
 8006858:	6853      	ldr	r3, [r2, #4]
 800685a:	6811      	ldr	r1, [r2, #0]
 800685c:	1a5b      	subs	r3, r3, r1
  return mbp->cnt;
 800685e:	6912      	ldr	r2, [r2, #16]
    test_assert_lock(chMBGetFreeCountI(&mb1) == 0, "still empty");
 8006860:	ebb2 0fa3 	cmp.w	r2, r3, asr #2
 8006864:	495c      	ldr	r1, [pc, #368]	; (80069d8 <oslib_test_002_002_execute+0x2e8>)
 8006866:	bf0c      	ite	eq
 8006868:	2001      	moveq	r0, #1
 800686a:	2000      	movne	r0, #0
 800686c:	f7fa fcc0 	bl	80011f0 <_test_assert>
 8006870:	b118      	cbz	r0, 800687a <oslib_test_002_002_execute+0x18a>
 8006872:	2300      	movs	r3, #0
 8006874:	f383 8811 	msr	BASEPRI, r3
 8006878:	e754      	b.n	8006724 <oslib_test_002_002_execute+0x34>
 800687a:	2300      	movs	r3, #0
 800687c:	f383 8811 	msr	BASEPRI, r3
 8006880:	2320      	movs	r3, #32
 8006882:	f383 8811 	msr	BASEPRI, r3
 8006886:	4b4d      	ldr	r3, [pc, #308]	; (80069bc <oslib_test_002_002_execute+0x2cc>)
 8006888:	6918      	ldr	r0, [r3, #16]
    test_assert_lock(chMBGetUsedCountI(&mb1) == MB_SIZE, "not full");
 800688a:	4954      	ldr	r1, [pc, #336]	; (80069dc <oslib_test_002_002_execute+0x2ec>)
 800688c:	2804      	cmp	r0, #4
 800688e:	bf14      	ite	ne
 8006890:	2000      	movne	r0, #0
 8006892:	2001      	moveq	r0, #1
 8006894:	f7fa fcac 	bl	80011f0 <_test_assert>
 8006898:	b118      	cbz	r0, 80068a2 <oslib_test_002_002_execute+0x1b2>
 800689a:	2300      	movs	r3, #0
 800689c:	f383 8811 	msr	BASEPRI, r3
 80068a0:	e740      	b.n	8006724 <oslib_test_002_002_execute+0x34>
 80068a2:	2300      	movs	r3, #0
 80068a4:	f383 8811 	msr	BASEPRI, r3
 80068a8:	2320      	movs	r3, #32
 80068aa:	f383 8811 	msr	BASEPRI, r3
    test_assert_lock(mb1.rdptr == mb1.wrptr, "pointers not aligned");
 80068ae:	4b43      	ldr	r3, [pc, #268]	; (80069bc <oslib_test_002_002_execute+0x2cc>)
 80068b0:	68d8      	ldr	r0, [r3, #12]
 80068b2:	689b      	ldr	r3, [r3, #8]
 80068b4:	494a      	ldr	r1, [pc, #296]	; (80069e0 <oslib_test_002_002_execute+0x2f0>)
 80068b6:	4298      	cmp	r0, r3
 80068b8:	bf14      	ite	ne
 80068ba:	2000      	movne	r0, #0
 80068bc:	2001      	moveq	r0, #1
 80068be:	f7fa fc97 	bl	80011f0 <_test_assert>
 80068c2:	b930      	cbnz	r0, 80068d2 <oslib_test_002_002_execute+0x1e2>
 80068c4:	2400      	movs	r4, #0
 80068c6:	f384 8811 	msr	BASEPRI, r4
  test_set_step(5);
 80068ca:	4b3b      	ldr	r3, [pc, #236]	; (80069b8 <oslib_test_002_002_execute+0x2c8>)
 80068cc:	2205      	movs	r2, #5
 80068ce:	601a      	str	r2, [r3, #0]
    for (i = 0; i < MB_SIZE; i++) {
 80068d0:	e008      	b.n	80068e4 <oslib_test_002_002_execute+0x1f4>
 80068d2:	2300      	movs	r3, #0
 80068d4:	f383 8811 	msr	BASEPRI, r3
    test_assert_lock(mb1.rdptr == mb1.wrptr, "pointers not aligned");
 80068d8:	e724      	b.n	8006724 <oslib_test_002_002_execute+0x34>
      test_emit_token(msg2);
 80068da:	f89d 0004 	ldrb.w	r0, [sp, #4]
 80068de:	f7f9 ff97 	bl	8000810 <test_emit_token>
    for (i = 0; i < MB_SIZE; i++) {
 80068e2:	3401      	adds	r4, #1
 80068e4:	2c03      	cmp	r4, #3
 80068e6:	d812      	bhi.n	800690e <oslib_test_002_002_execute+0x21e>
 80068e8:	2320      	movs	r3, #32
 80068ea:	f383 8811 	msr	BASEPRI, r3
      msg1 = chMBFetchI(&mb1, &msg2);
 80068ee:	a901      	add	r1, sp, #4
 80068f0:	4832      	ldr	r0, [pc, #200]	; (80069bc <oslib_test_002_002_execute+0x2cc>)
 80068f2:	f7ff fcfd 	bl	80062f0 <chMBFetchI>
 80068f6:	2300      	movs	r3, #0
 80068f8:	f383 8811 	msr	BASEPRI, r3
      test_assert(msg1 == MSG_OK, "wrong wake-up message");
 80068fc:	4935      	ldr	r1, [pc, #212]	; (80069d4 <oslib_test_002_002_execute+0x2e4>)
 80068fe:	fab0 f080 	clz	r0, r0
 8006902:	0940      	lsrs	r0, r0, #5
 8006904:	f7fa fc74 	bl	80011f0 <_test_assert>
 8006908:	2800      	cmp	r0, #0
 800690a:	d0e6      	beq.n	80068da <oslib_test_002_002_execute+0x1ea>
 800690c:	e70a      	b.n	8006724 <oslib_test_002_002_execute+0x34>
    test_assert_sequence("ABCD", "wrong get sequence");
 800690e:	4935      	ldr	r1, [pc, #212]	; (80069e4 <oslib_test_002_002_execute+0x2f4>)
 8006910:	4835      	ldr	r0, [pc, #212]	; (80069e8 <oslib_test_002_002_execute+0x2f8>)
 8006912:	f7fa fd1d 	bl	8001350 <_test_assert_sequence>
 8006916:	2800      	cmp	r0, #0
 8006918:	f47f af04 	bne.w	8006724 <oslib_test_002_002_execute+0x34>
  test_set_step(6);
 800691c:	4b26      	ldr	r3, [pc, #152]	; (80069b8 <oslib_test_002_002_execute+0x2c8>)
 800691e:	2206      	movs	r2, #6
 8006920:	601a      	str	r2, [r3, #0]
    msg1 = chMBPostTimeout(&mb1, 'B' + i, TIME_INFINITE);
 8006922:	f04f 32ff 	mov.w	r2, #4294967295	; 0xffffffff
 8006926:	f104 0142 	add.w	r1, r4, #66	; 0x42
 800692a:	4824      	ldr	r0, [pc, #144]	; (80069bc <oslib_test_002_002_execute+0x2cc>)
 800692c:	f7ff fe38 	bl	80065a0 <chMBPostTimeout>
    test_assert(msg1 == MSG_OK, "wrong wake-up message");
 8006930:	4928      	ldr	r1, [pc, #160]	; (80069d4 <oslib_test_002_002_execute+0x2e4>)
 8006932:	fab0 f080 	clz	r0, r0
 8006936:	0940      	lsrs	r0, r0, #5
 8006938:	f7fa fc5a 	bl	80011f0 <_test_assert>
 800693c:	2800      	cmp	r0, #0
 800693e:	f47f aef1 	bne.w	8006724 <oslib_test_002_002_execute+0x34>
    msg1 = chMBFetchTimeout(&mb1, &msg2, TIME_INFINITE);
 8006942:	f04f 32ff 	mov.w	r2, #4294967295	; 0xffffffff
 8006946:	a901      	add	r1, sp, #4
 8006948:	481c      	ldr	r0, [pc, #112]	; (80069bc <oslib_test_002_002_execute+0x2cc>)
 800694a:	f7ff fd89 	bl	8006460 <chMBFetchTimeout>
    test_assert(msg1 == MSG_OK, "wrong wake-up message");
 800694e:	4921      	ldr	r1, [pc, #132]	; (80069d4 <oslib_test_002_002_execute+0x2e4>)
 8006950:	fab0 f080 	clz	r0, r0
 8006954:	0940      	lsrs	r0, r0, #5
 8006956:	f7fa fc4b 	bl	80011f0 <_test_assert>
 800695a:	2800      	cmp	r0, #0
 800695c:	f47f aee2 	bne.w	8006724 <oslib_test_002_002_execute+0x34>
  test_set_step(7);
 8006960:	4b15      	ldr	r3, [pc, #84]	; (80069b8 <oslib_test_002_002_execute+0x2c8>)
 8006962:	2207      	movs	r2, #7
 8006964:	601a      	str	r2, [r3, #0]
 8006966:	2320      	movs	r3, #32
 8006968:	f383 8811 	msr	BASEPRI, r3
  return (size_t)(mbp->top - mbp->buffer);
 800696c:	4a13      	ldr	r2, [pc, #76]	; (80069bc <oslib_test_002_002_execute+0x2cc>)
 800696e:	6853      	ldr	r3, [r2, #4]
 8006970:	6810      	ldr	r0, [r2, #0]
 8006972:	1a1b      	subs	r3, r3, r0
  return mbp->cnt;
 8006974:	6910      	ldr	r0, [r2, #16]
  return chMBGetSizeI(mbp) - chMBGetUsedCountI(mbp);
 8006976:	ebc0 00a3 	rsb	r0, r0, r3, asr #2
    test_assert_lock(chMBGetFreeCountI(&mb1) == MB_SIZE, "not empty");
 800697a:	4912      	ldr	r1, [pc, #72]	; (80069c4 <oslib_test_002_002_execute+0x2d4>)
 800697c:	2804      	cmp	r0, #4
 800697e:	bf14      	ite	ne
 8006980:	2000      	movne	r0, #0
 8006982:	2001      	moveq	r0, #1
 8006984:	f7fa fc34 	bl	80011f0 <_test_assert>
 8006988:	b118      	cbz	r0, 8006992 <oslib_test_002_002_execute+0x2a2>
 800698a:	2300      	movs	r3, #0
 800698c:	f383 8811 	msr	BASEPRI, r3
 8006990:	e6c8      	b.n	8006724 <oslib_test_002_002_execute+0x34>
 8006992:	2300      	movs	r3, #0
 8006994:	f383 8811 	msr	BASEPRI, r3
 8006998:	2320      	movs	r3, #32
 800699a:	f383 8811 	msr	BASEPRI, r3
  return mbp->cnt;
 800699e:	4b07      	ldr	r3, [pc, #28]	; (80069bc <oslib_test_002_002_execute+0x2cc>)
 80069a0:	6918      	ldr	r0, [r3, #16]
    test_assert_lock(chMBGetUsedCountI(&mb1) == 0, "still full");
 80069a2:	4909      	ldr	r1, [pc, #36]	; (80069c8 <oslib_test_002_002_execute+0x2d8>)
 80069a4:	fab0 f080 	clz	r0, r0
 80069a8:	0940      	lsrs	r0, r0, #5
 80069aa:	f7fa fc21 	bl	80011f0 <_test_assert>
 80069ae:	b1e8      	cbz	r0, 80069ec <oslib_test_002_002_execute+0x2fc>
 80069b0:	2300      	movs	r3, #0
 80069b2:	f383 8811 	msr	BASEPRI, r3
 80069b6:	e6b5      	b.n	8006724 <oslib_test_002_002_execute+0x34>
 80069b8:	20001a7c 	.word	0x20001a7c
 80069bc:	2000084c 	.word	0x2000084c
 80069c0:	0800c830 	.word	0x0800c830
 80069c4:	0800c778 	.word	0x0800c778
 80069c8:	0800cac0 	.word	0x0800cac0
 80069cc:	0800cacc 	.word	0x0800cacc
 80069d0:	0800caf0 	.word	0x0800caf0
 80069d4:	0800caa8 	.word	0x0800caa8
 80069d8:	0800cb14 	.word	0x0800cb14
 80069dc:	0800cb20 	.word	0x0800cb20
 80069e0:	0800cb2c 	.word	0x0800cb2c
 80069e4:	0800cb44 	.word	0x0800cb44
 80069e8:	0800cb58 	.word	0x0800cb58
 80069ec:	2300      	movs	r3, #0
 80069ee:	f383 8811 	msr	BASEPRI, r3
    test_assert(mb1.buffer == mb1.wrptr, "write pointer not aligned to base");
 80069f2:	4b0c      	ldr	r3, [pc, #48]	; (8006a24 <oslib_test_002_002_execute+0x334>)
 80069f4:	6818      	ldr	r0, [r3, #0]
 80069f6:	689b      	ldr	r3, [r3, #8]
 80069f8:	490b      	ldr	r1, [pc, #44]	; (8006a28 <oslib_test_002_002_execute+0x338>)
 80069fa:	4298      	cmp	r0, r3
 80069fc:	bf14      	ite	ne
 80069fe:	2000      	movne	r0, #0
 8006a00:	2001      	moveq	r0, #1
 8006a02:	f7fa fbf5 	bl	80011f0 <_test_assert>
 8006a06:	2800      	cmp	r0, #0
 8006a08:	f47f ae8c 	bne.w	8006724 <oslib_test_002_002_execute+0x34>
    test_assert(mb1.buffer == mb1.rdptr, "read pointer not aligned to base");
 8006a0c:	4b05      	ldr	r3, [pc, #20]	; (8006a24 <oslib_test_002_002_execute+0x334>)
 8006a0e:	6818      	ldr	r0, [r3, #0]
 8006a10:	68db      	ldr	r3, [r3, #12]
 8006a12:	4906      	ldr	r1, [pc, #24]	; (8006a2c <oslib_test_002_002_execute+0x33c>)
 8006a14:	4298      	cmp	r0, r3
 8006a16:	bf14      	ite	ne
 8006a18:	2000      	movne	r0, #0
 8006a1a:	2001      	moveq	r0, #1
 8006a1c:	f7fa fbe8 	bl	80011f0 <_test_assert>
 8006a20:	e680      	b.n	8006724 <oslib_test_002_002_execute+0x34>
 8006a22:	bf00      	nop
 8006a24:	2000084c 	.word	0x2000084c
 8006a28:	0800cacc 	.word	0x0800cacc
 8006a2c:	0800caf0 	.word	0x0800caf0

08006a30 <oslib_test_002_001_execute>:
static void oslib_test_002_001_execute(void) {
 8006a30:	b510      	push	{r4, lr}
 8006a32:	b082      	sub	sp, #8
  test_set_step(1);
 8006a34:	4b99      	ldr	r3, [pc, #612]	; (8006c9c <oslib_test_002_001_execute+0x26c>)
 8006a36:	2201      	movs	r2, #1
 8006a38:	601a      	str	r2, [r3, #0]
 8006a3a:	2320      	movs	r3, #32
 8006a3c:	f383 8811 	msr	BASEPRI, r3
  return (size_t)(mbp->top - mbp->buffer);
 8006a40:	4a97      	ldr	r2, [pc, #604]	; (8006ca0 <oslib_test_002_001_execute+0x270>)
 8006a42:	6850      	ldr	r0, [r2, #4]
 8006a44:	6813      	ldr	r3, [r2, #0]
 8006a46:	1ac3      	subs	r3, r0, r3
  return mbp->cnt;
 8006a48:	6910      	ldr	r0, [r2, #16]
  return chMBGetSizeI(mbp) - chMBGetUsedCountI(mbp);
 8006a4a:	ebc0 00a3 	rsb	r0, r0, r3, asr #2
    test_assert_lock(chMBGetFreeCountI(&mb1) == MB_SIZE, "wrong size");
 8006a4e:	4995      	ldr	r1, [pc, #596]	; (8006ca4 <oslib_test_002_001_execute+0x274>)
 8006a50:	2804      	cmp	r0, #4
 8006a52:	bf14      	ite	ne
 8006a54:	2000      	movne	r0, #0
 8006a56:	2001      	moveq	r0, #1
 8006a58:	f7fa fbca 	bl	80011f0 <_test_assert>
 8006a5c:	b120      	cbz	r0, 8006a68 <oslib_test_002_001_execute+0x38>
 8006a5e:	2300      	movs	r3, #0
 8006a60:	f383 8811 	msr	BASEPRI, r3
}
 8006a64:	b002      	add	sp, #8
 8006a66:	bd10      	pop	{r4, pc}
 8006a68:	2300      	movs	r3, #0
 8006a6a:	f383 8811 	msr	BASEPRI, r3
  test_set_step(2);
 8006a6e:	4b8b      	ldr	r3, [pc, #556]	; (8006c9c <oslib_test_002_001_execute+0x26c>)
 8006a70:	2202      	movs	r2, #2
 8006a72:	601a      	str	r2, [r3, #0]
    chMBReset(&mb1);
 8006a74:	4c8a      	ldr	r4, [pc, #552]	; (8006ca0 <oslib_test_002_001_execute+0x270>)
 8006a76:	4620      	mov	r0, r4
 8006a78:	f7ff fc02 	bl	8006280 <chMBReset>
 8006a7c:	2320      	movs	r3, #32
 8006a7e:	f383 8811 	msr	BASEPRI, r3
  return (size_t)(mbp->top - mbp->buffer);
 8006a82:	6860      	ldr	r0, [r4, #4]
 8006a84:	6823      	ldr	r3, [r4, #0]
 8006a86:	1ac3      	subs	r3, r0, r3
  return mbp->cnt;
 8006a88:	6920      	ldr	r0, [r4, #16]
  return chMBGetSizeI(mbp) - chMBGetUsedCountI(mbp);
 8006a8a:	ebc0 00a3 	rsb	r0, r0, r3, asr #2
    test_assert_lock(chMBGetFreeCountI(&mb1) == MB_SIZE, "not empty");
 8006a8e:	4986      	ldr	r1, [pc, #536]	; (8006ca8 <oslib_test_002_001_execute+0x278>)
 8006a90:	2804      	cmp	r0, #4
 8006a92:	bf14      	ite	ne
 8006a94:	2000      	movne	r0, #0
 8006a96:	2001      	moveq	r0, #1
 8006a98:	f7fa fbaa 	bl	80011f0 <_test_assert>
 8006a9c:	b118      	cbz	r0, 8006aa6 <oslib_test_002_001_execute+0x76>
 8006a9e:	2300      	movs	r3, #0
 8006aa0:	f383 8811 	msr	BASEPRI, r3
 8006aa4:	e7de      	b.n	8006a64 <oslib_test_002_001_execute+0x34>
 8006aa6:	2300      	movs	r3, #0
 8006aa8:	f383 8811 	msr	BASEPRI, r3
 8006aac:	2320      	movs	r3, #32
 8006aae:	f383 8811 	msr	BASEPRI, r3
  return mbp->cnt;
 8006ab2:	4b7b      	ldr	r3, [pc, #492]	; (8006ca0 <oslib_test_002_001_execute+0x270>)
 8006ab4:	6918      	ldr	r0, [r3, #16]
    test_assert_lock(chMBGetUsedCountI(&mb1) == 0, "still full");
 8006ab6:	497d      	ldr	r1, [pc, #500]	; (8006cac <oslib_test_002_001_execute+0x27c>)
 8006ab8:	fab0 f080 	clz	r0, r0
 8006abc:	0940      	lsrs	r0, r0, #5
 8006abe:	f7fa fb97 	bl	80011f0 <_test_assert>
 8006ac2:	b118      	cbz	r0, 8006acc <oslib_test_002_001_execute+0x9c>
 8006ac4:	2300      	movs	r3, #0
 8006ac6:	f383 8811 	msr	BASEPRI, r3
 8006aca:	e7cb      	b.n	8006a64 <oslib_test_002_001_execute+0x34>
 8006acc:	2300      	movs	r3, #0
 8006ace:	f383 8811 	msr	BASEPRI, r3
 8006ad2:	2320      	movs	r3, #32
 8006ad4:	f383 8811 	msr	BASEPRI, r3
    test_assert_lock(mb1.buffer == mb1.wrptr, "write pointer not aligned to base");
 8006ad8:	4b71      	ldr	r3, [pc, #452]	; (8006ca0 <oslib_test_002_001_execute+0x270>)
 8006ada:	6818      	ldr	r0, [r3, #0]
 8006adc:	689b      	ldr	r3, [r3, #8]
 8006ade:	4974      	ldr	r1, [pc, #464]	; (8006cb0 <oslib_test_002_001_execute+0x280>)
 8006ae0:	4298      	cmp	r0, r3
 8006ae2:	bf14      	ite	ne
 8006ae4:	2000      	movne	r0, #0
 8006ae6:	2001      	moveq	r0, #1
 8006ae8:	f7fa fb82 	bl	80011f0 <_test_assert>
 8006aec:	b118      	cbz	r0, 8006af6 <oslib_test_002_001_execute+0xc6>
 8006aee:	2300      	movs	r3, #0
 8006af0:	f383 8811 	msr	BASEPRI, r3
 8006af4:	e7b6      	b.n	8006a64 <oslib_test_002_001_execute+0x34>
 8006af6:	2300      	movs	r3, #0
 8006af8:	f383 8811 	msr	BASEPRI, r3
 8006afc:	2320      	movs	r3, #32
 8006afe:	f383 8811 	msr	BASEPRI, r3
    test_assert_lock(mb1.buffer == mb1.rdptr, "read pointer not aligned to base");
 8006b02:	4b67      	ldr	r3, [pc, #412]	; (8006ca0 <oslib_test_002_001_execute+0x270>)
 8006b04:	6818      	ldr	r0, [r3, #0]
 8006b06:	68db      	ldr	r3, [r3, #12]
 8006b08:	496a      	ldr	r1, [pc, #424]	; (8006cb4 <oslib_test_002_001_execute+0x284>)
 8006b0a:	4298      	cmp	r0, r3
 8006b0c:	bf14      	ite	ne
 8006b0e:	2000      	movne	r0, #0
 8006b10:	2001      	moveq	r0, #1
 8006b12:	f7fa fb6d 	bl	80011f0 <_test_assert>
 8006b16:	b118      	cbz	r0, 8006b20 <oslib_test_002_001_execute+0xf0>
 8006b18:	2300      	movs	r3, #0
 8006b1a:	f383 8811 	msr	BASEPRI, r3
 8006b1e:	e7a1      	b.n	8006a64 <oslib_test_002_001_execute+0x34>
 8006b20:	2100      	movs	r1, #0
 8006b22:	f381 8811 	msr	BASEPRI, r1
  test_set_step(3);
 8006b26:	4b5d      	ldr	r3, [pc, #372]	; (8006c9c <oslib_test_002_001_execute+0x26c>)
 8006b28:	2203      	movs	r2, #3
 8006b2a:	601a      	str	r2, [r3, #0]
    msg1 = chMBPostTimeout(&mb1, (msg_t)0, TIME_INFINITE);
 8006b2c:	f04f 32ff 	mov.w	r2, #4294967295	; 0xffffffff
 8006b30:	485b      	ldr	r0, [pc, #364]	; (8006ca0 <oslib_test_002_001_execute+0x270>)
 8006b32:	f7ff fd35 	bl	80065a0 <chMBPostTimeout>
    test_assert(msg1 == MSG_RESET, "not in reset state");
 8006b36:	4960      	ldr	r1, [pc, #384]	; (8006cb8 <oslib_test_002_001_execute+0x288>)
 8006b38:	f110 0f02 	cmn.w	r0, #2
 8006b3c:	bf14      	ite	ne
 8006b3e:	2000      	movne	r0, #0
 8006b40:	2001      	moveq	r0, #1
 8006b42:	f7fa fb55 	bl	80011f0 <_test_assert>
 8006b46:	2800      	cmp	r0, #0
 8006b48:	d18c      	bne.n	8006a64 <oslib_test_002_001_execute+0x34>
    msg1 = chMBPostAheadTimeout(&mb1, (msg_t)0, TIME_INFINITE);
 8006b4a:	f04f 32ff 	mov.w	r2, #4294967295	; 0xffffffff
 8006b4e:	2100      	movs	r1, #0
 8006b50:	4853      	ldr	r0, [pc, #332]	; (8006ca0 <oslib_test_002_001_execute+0x270>)
 8006b52:	f7ff fce5 	bl	8006520 <chMBPostAheadTimeout>
    test_assert(msg1 == MSG_RESET, "not in reset state");
 8006b56:	4958      	ldr	r1, [pc, #352]	; (8006cb8 <oslib_test_002_001_execute+0x288>)
 8006b58:	f110 0f02 	cmn.w	r0, #2
 8006b5c:	bf14      	ite	ne
 8006b5e:	2000      	movne	r0, #0
 8006b60:	2001      	moveq	r0, #1
 8006b62:	f7fa fb45 	bl	80011f0 <_test_assert>
 8006b66:	2800      	cmp	r0, #0
 8006b68:	f47f af7c 	bne.w	8006a64 <oslib_test_002_001_execute+0x34>
    msg1 = chMBFetchTimeout(&mb1, &msg2, TIME_INFINITE);
 8006b6c:	f04f 32ff 	mov.w	r2, #4294967295	; 0xffffffff
 8006b70:	a901      	add	r1, sp, #4
 8006b72:	484b      	ldr	r0, [pc, #300]	; (8006ca0 <oslib_test_002_001_execute+0x270>)
 8006b74:	f7ff fc74 	bl	8006460 <chMBFetchTimeout>
    test_assert(msg1 == MSG_RESET, "not in reset state");
 8006b78:	494f      	ldr	r1, [pc, #316]	; (8006cb8 <oslib_test_002_001_execute+0x288>)
 8006b7a:	f110 0f02 	cmn.w	r0, #2
 8006b7e:	bf14      	ite	ne
 8006b80:	2000      	movne	r0, #0
 8006b82:	2001      	moveq	r0, #1
 8006b84:	f7fa fb34 	bl	80011f0 <_test_assert>
 8006b88:	2800      	cmp	r0, #0
 8006b8a:	f47f af6b 	bne.w	8006a64 <oslib_test_002_001_execute+0x34>
  mbp->reset = false;
 8006b8e:	2400      	movs	r4, #0
 8006b90:	4b43      	ldr	r3, [pc, #268]	; (8006ca0 <oslib_test_002_001_execute+0x270>)
 8006b92:	751c      	strb	r4, [r3, #20]
  test_set_step(4);
 8006b94:	4b41      	ldr	r3, [pc, #260]	; (8006c9c <oslib_test_002_001_execute+0x26c>)
 8006b96:	2204      	movs	r2, #4
 8006b98:	601a      	str	r2, [r3, #0]
    for (i = 0; i < MB_SIZE - 1; i++) {
 8006b9a:	2c02      	cmp	r4, #2
 8006b9c:	d811      	bhi.n	8006bc2 <oslib_test_002_001_execute+0x192>
      msg1 = chMBPostTimeout(&mb1, 'B' + i, TIME_INFINITE);
 8006b9e:	f04f 32ff 	mov.w	r2, #4294967295	; 0xffffffff
 8006ba2:	f104 0142 	add.w	r1, r4, #66	; 0x42
 8006ba6:	483e      	ldr	r0, [pc, #248]	; (8006ca0 <oslib_test_002_001_execute+0x270>)
 8006ba8:	f7ff fcfa 	bl	80065a0 <chMBPostTimeout>
      test_assert(msg1 == MSG_OK, "wrong wake-up message");
 8006bac:	4943      	ldr	r1, [pc, #268]	; (8006cbc <oslib_test_002_001_execute+0x28c>)
 8006bae:	fab0 f080 	clz	r0, r0
 8006bb2:	0940      	lsrs	r0, r0, #5
 8006bb4:	f7fa fb1c 	bl	80011f0 <_test_assert>
 8006bb8:	2800      	cmp	r0, #0
 8006bba:	f47f af53 	bne.w	8006a64 <oslib_test_002_001_execute+0x34>
    for (i = 0; i < MB_SIZE - 1; i++) {
 8006bbe:	3401      	adds	r4, #1
 8006bc0:	e7eb      	b.n	8006b9a <oslib_test_002_001_execute+0x16a>
    msg1 = chMBPostAheadTimeout(&mb1, 'A', TIME_INFINITE);
 8006bc2:	f04f 32ff 	mov.w	r2, #4294967295	; 0xffffffff
 8006bc6:	2141      	movs	r1, #65	; 0x41
 8006bc8:	4835      	ldr	r0, [pc, #212]	; (8006ca0 <oslib_test_002_001_execute+0x270>)
 8006bca:	f7ff fca9 	bl	8006520 <chMBPostAheadTimeout>
    test_assert(msg1 == MSG_OK, "wrong wake-up message");
 8006bce:	493b      	ldr	r1, [pc, #236]	; (8006cbc <oslib_test_002_001_execute+0x28c>)
 8006bd0:	fab0 f080 	clz	r0, r0
 8006bd4:	0940      	lsrs	r0, r0, #5
 8006bd6:	f7fa fb0b 	bl	80011f0 <_test_assert>
 8006bda:	2800      	cmp	r0, #0
 8006bdc:	f47f af42 	bne.w	8006a64 <oslib_test_002_001_execute+0x34>
  test_set_step(5);
 8006be0:	4b2e      	ldr	r3, [pc, #184]	; (8006c9c <oslib_test_002_001_execute+0x26c>)
 8006be2:	2205      	movs	r2, #5
 8006be4:	601a      	str	r2, [r3, #0]
 8006be6:	2320      	movs	r3, #32
 8006be8:	f383 8811 	msr	BASEPRI, r3
  return (size_t)(mbp->top - mbp->buffer);
 8006bec:	4a2c      	ldr	r2, [pc, #176]	; (8006ca0 <oslib_test_002_001_execute+0x270>)
 8006bee:	6853      	ldr	r3, [r2, #4]
 8006bf0:	6811      	ldr	r1, [r2, #0]
 8006bf2:	1a5b      	subs	r3, r3, r1
  return mbp->cnt;
 8006bf4:	6912      	ldr	r2, [r2, #16]
    test_assert_lock(chMBGetFreeCountI(&mb1) == 0, "still empty");
 8006bf6:	ebb2 0fa3 	cmp.w	r2, r3, asr #2
 8006bfa:	4931      	ldr	r1, [pc, #196]	; (8006cc0 <oslib_test_002_001_execute+0x290>)
 8006bfc:	bf0c      	ite	eq
 8006bfe:	2001      	moveq	r0, #1
 8006c00:	2000      	movne	r0, #0
 8006c02:	f7fa faf5 	bl	80011f0 <_test_assert>
 8006c06:	b118      	cbz	r0, 8006c10 <oslib_test_002_001_execute+0x1e0>
 8006c08:	2300      	movs	r3, #0
 8006c0a:	f383 8811 	msr	BASEPRI, r3
 8006c0e:	e729      	b.n	8006a64 <oslib_test_002_001_execute+0x34>
 8006c10:	2300      	movs	r3, #0
 8006c12:	f383 8811 	msr	BASEPRI, r3
 8006c16:	2320      	movs	r3, #32
 8006c18:	f383 8811 	msr	BASEPRI, r3
 8006c1c:	4b20      	ldr	r3, [pc, #128]	; (8006ca0 <oslib_test_002_001_execute+0x270>)
 8006c1e:	6918      	ldr	r0, [r3, #16]
    test_assert_lock(chMBGetUsedCountI(&mb1) == MB_SIZE, "not full");
 8006c20:	4928      	ldr	r1, [pc, #160]	; (8006cc4 <oslib_test_002_001_execute+0x294>)
 8006c22:	2804      	cmp	r0, #4
 8006c24:	bf14      	ite	ne
 8006c26:	2000      	movne	r0, #0
 8006c28:	2001      	moveq	r0, #1
 8006c2a:	f7fa fae1 	bl	80011f0 <_test_assert>
 8006c2e:	b118      	cbz	r0, 8006c38 <oslib_test_002_001_execute+0x208>
 8006c30:	2300      	movs	r3, #0
 8006c32:	f383 8811 	msr	BASEPRI, r3
 8006c36:	e715      	b.n	8006a64 <oslib_test_002_001_execute+0x34>
 8006c38:	2300      	movs	r3, #0
 8006c3a:	f383 8811 	msr	BASEPRI, r3
 8006c3e:	2320      	movs	r3, #32
 8006c40:	f383 8811 	msr	BASEPRI, r3
    test_assert_lock(mb1.rdptr == mb1.wrptr, "pointers not aligned");
 8006c44:	4b16      	ldr	r3, [pc, #88]	; (8006ca0 <oslib_test_002_001_execute+0x270>)
 8006c46:	68d8      	ldr	r0, [r3, #12]
 8006c48:	689b      	ldr	r3, [r3, #8]
 8006c4a:	491f      	ldr	r1, [pc, #124]	; (8006cc8 <oslib_test_002_001_execute+0x298>)
 8006c4c:	4298      	cmp	r0, r3
 8006c4e:	bf14      	ite	ne
 8006c50:	2000      	movne	r0, #0
 8006c52:	2001      	moveq	r0, #1
 8006c54:	f7fa facc 	bl	80011f0 <_test_assert>
 8006c58:	b930      	cbnz	r0, 8006c68 <oslib_test_002_001_execute+0x238>
 8006c5a:	2400      	movs	r4, #0
 8006c5c:	f384 8811 	msr	BASEPRI, r4
  test_set_step(6);
 8006c60:	4b0e      	ldr	r3, [pc, #56]	; (8006c9c <oslib_test_002_001_execute+0x26c>)
 8006c62:	2206      	movs	r2, #6
 8006c64:	601a      	str	r2, [r3, #0]
    for (i = 0; i < MB_SIZE; i++) {
 8006c66:	e008      	b.n	8006c7a <oslib_test_002_001_execute+0x24a>
 8006c68:	2300      	movs	r3, #0
 8006c6a:	f383 8811 	msr	BASEPRI, r3
    test_assert_lock(mb1.rdptr == mb1.wrptr, "pointers not aligned");
 8006c6e:	e6f9      	b.n	8006a64 <oslib_test_002_001_execute+0x34>
      test_emit_token(msg2);
 8006c70:	f89d 0004 	ldrb.w	r0, [sp, #4]
 8006c74:	f7f9 fdcc 	bl	8000810 <test_emit_token>
    for (i = 0; i < MB_SIZE; i++) {
 8006c78:	3401      	adds	r4, #1
 8006c7a:	2c03      	cmp	r4, #3
 8006c7c:	d826      	bhi.n	8006ccc <oslib_test_002_001_execute+0x29c>
      msg1 = chMBFetchTimeout(&mb1, &msg2, TIME_INFINITE);
 8006c7e:	f04f 32ff 	mov.w	r2, #4294967295	; 0xffffffff
 8006c82:	a901      	add	r1, sp, #4
 8006c84:	4806      	ldr	r0, [pc, #24]	; (8006ca0 <oslib_test_002_001_execute+0x270>)
 8006c86:	f7ff fbeb 	bl	8006460 <chMBFetchTimeout>
      test_assert(msg1 == MSG_OK, "wrong wake-up message");
 8006c8a:	490c      	ldr	r1, [pc, #48]	; (8006cbc <oslib_test_002_001_execute+0x28c>)
 8006c8c:	fab0 f080 	clz	r0, r0
 8006c90:	0940      	lsrs	r0, r0, #5
 8006c92:	f7fa faad 	bl	80011f0 <_test_assert>
 8006c96:	2800      	cmp	r0, #0
 8006c98:	d0ea      	beq.n	8006c70 <oslib_test_002_001_execute+0x240>
 8006c9a:	e6e3      	b.n	8006a64 <oslib_test_002_001_execute+0x34>
 8006c9c:	20001a7c 	.word	0x20001a7c
 8006ca0:	2000084c 	.word	0x2000084c
 8006ca4:	0800c830 	.word	0x0800c830
 8006ca8:	0800c778 	.word	0x0800c778
 8006cac:	0800cac0 	.word	0x0800cac0
 8006cb0:	0800cacc 	.word	0x0800cacc
 8006cb4:	0800caf0 	.word	0x0800caf0
 8006cb8:	0800cb60 	.word	0x0800cb60
 8006cbc:	0800caa8 	.word	0x0800caa8
 8006cc0:	0800cb14 	.word	0x0800cb14
 8006cc4:	0800cb20 	.word	0x0800cb20
 8006cc8:	0800cb2c 	.word	0x0800cb2c
    test_assert_sequence("ABCD", "wrong get sequence");
 8006ccc:	4937      	ldr	r1, [pc, #220]	; (8006dac <oslib_test_002_001_execute+0x37c>)
 8006cce:	4838      	ldr	r0, [pc, #224]	; (8006db0 <oslib_test_002_001_execute+0x380>)
 8006cd0:	f7fa fb3e 	bl	8001350 <_test_assert_sequence>
 8006cd4:	2800      	cmp	r0, #0
 8006cd6:	f47f aec5 	bne.w	8006a64 <oslib_test_002_001_execute+0x34>
  test_set_step(7);
 8006cda:	4b36      	ldr	r3, [pc, #216]	; (8006db4 <oslib_test_002_001_execute+0x384>)
 8006cdc:	2207      	movs	r2, #7
 8006cde:	601a      	str	r2, [r3, #0]
    msg1 = chMBPostTimeout(&mb1, 'B' + i, TIME_INFINITE);
 8006ce0:	f04f 32ff 	mov.w	r2, #4294967295	; 0xffffffff
 8006ce4:	f104 0142 	add.w	r1, r4, #66	; 0x42
 8006ce8:	4833      	ldr	r0, [pc, #204]	; (8006db8 <oslib_test_002_001_execute+0x388>)
 8006cea:	f7ff fc59 	bl	80065a0 <chMBPostTimeout>
    test_assert(msg1 == MSG_OK, "wrong wake-up message");
 8006cee:	4933      	ldr	r1, [pc, #204]	; (8006dbc <oslib_test_002_001_execute+0x38c>)
 8006cf0:	fab0 f080 	clz	r0, r0
 8006cf4:	0940      	lsrs	r0, r0, #5
 8006cf6:	f7fa fa7b 	bl	80011f0 <_test_assert>
 8006cfa:	2800      	cmp	r0, #0
 8006cfc:	f47f aeb2 	bne.w	8006a64 <oslib_test_002_001_execute+0x34>
    msg1 = chMBFetchTimeout(&mb1, &msg2, TIME_INFINITE);
 8006d00:	f04f 32ff 	mov.w	r2, #4294967295	; 0xffffffff
 8006d04:	a901      	add	r1, sp, #4
 8006d06:	482c      	ldr	r0, [pc, #176]	; (8006db8 <oslib_test_002_001_execute+0x388>)
 8006d08:	f7ff fbaa 	bl	8006460 <chMBFetchTimeout>
    test_assert(msg1 == MSG_OK, "wrong wake-up message");
 8006d0c:	492b      	ldr	r1, [pc, #172]	; (8006dbc <oslib_test_002_001_execute+0x38c>)
 8006d0e:	fab0 f080 	clz	r0, r0
 8006d12:	0940      	lsrs	r0, r0, #5
 8006d14:	f7fa fa6c 	bl	80011f0 <_test_assert>
 8006d18:	2800      	cmp	r0, #0
 8006d1a:	f47f aea3 	bne.w	8006a64 <oslib_test_002_001_execute+0x34>
  test_set_step(8);
 8006d1e:	4b25      	ldr	r3, [pc, #148]	; (8006db4 <oslib_test_002_001_execute+0x384>)
 8006d20:	2208      	movs	r2, #8
 8006d22:	601a      	str	r2, [r3, #0]
 8006d24:	2320      	movs	r3, #32
 8006d26:	f383 8811 	msr	BASEPRI, r3
  return (size_t)(mbp->top - mbp->buffer);
 8006d2a:	4a23      	ldr	r2, [pc, #140]	; (8006db8 <oslib_test_002_001_execute+0x388>)
 8006d2c:	6853      	ldr	r3, [r2, #4]
 8006d2e:	6810      	ldr	r0, [r2, #0]
 8006d30:	1a1b      	subs	r3, r3, r0
  return mbp->cnt;
 8006d32:	6910      	ldr	r0, [r2, #16]
  return chMBGetSizeI(mbp) - chMBGetUsedCountI(mbp);
 8006d34:	ebc0 00a3 	rsb	r0, r0, r3, asr #2
    test_assert_lock(chMBGetFreeCountI(&mb1) == MB_SIZE, "not empty");
 8006d38:	4921      	ldr	r1, [pc, #132]	; (8006dc0 <oslib_test_002_001_execute+0x390>)
 8006d3a:	2804      	cmp	r0, #4
 8006d3c:	bf14      	ite	ne
 8006d3e:	2000      	movne	r0, #0
 8006d40:	2001      	moveq	r0, #1
 8006d42:	f7fa fa55 	bl	80011f0 <_test_assert>
 8006d46:	b118      	cbz	r0, 8006d50 <oslib_test_002_001_execute+0x320>
 8006d48:	2300      	movs	r3, #0
 8006d4a:	f383 8811 	msr	BASEPRI, r3
 8006d4e:	e689      	b.n	8006a64 <oslib_test_002_001_execute+0x34>
 8006d50:	2300      	movs	r3, #0
 8006d52:	f383 8811 	msr	BASEPRI, r3
 8006d56:	2320      	movs	r3, #32
 8006d58:	f383 8811 	msr	BASEPRI, r3
  return mbp->cnt;
 8006d5c:	4b16      	ldr	r3, [pc, #88]	; (8006db8 <oslib_test_002_001_execute+0x388>)
 8006d5e:	6918      	ldr	r0, [r3, #16]
    test_assert_lock(chMBGetUsedCountI(&mb1) == 0, "still full");
 8006d60:	4918      	ldr	r1, [pc, #96]	; (8006dc4 <oslib_test_002_001_execute+0x394>)
 8006d62:	fab0 f080 	clz	r0, r0
 8006d66:	0940      	lsrs	r0, r0, #5
 8006d68:	f7fa fa42 	bl	80011f0 <_test_assert>
 8006d6c:	b118      	cbz	r0, 8006d76 <oslib_test_002_001_execute+0x346>
 8006d6e:	2300      	movs	r3, #0
 8006d70:	f383 8811 	msr	BASEPRI, r3
 8006d74:	e676      	b.n	8006a64 <oslib_test_002_001_execute+0x34>
 8006d76:	2300      	movs	r3, #0
 8006d78:	f383 8811 	msr	BASEPRI, r3
    test_assert(mb1.buffer == mb1.wrptr, "write pointer not aligned to base");
 8006d7c:	4b0e      	ldr	r3, [pc, #56]	; (8006db8 <oslib_test_002_001_execute+0x388>)
 8006d7e:	6818      	ldr	r0, [r3, #0]
 8006d80:	689b      	ldr	r3, [r3, #8]
 8006d82:	4911      	ldr	r1, [pc, #68]	; (8006dc8 <oslib_test_002_001_execute+0x398>)
 8006d84:	4298      	cmp	r0, r3
 8006d86:	bf14      	ite	ne
 8006d88:	2000      	movne	r0, #0
 8006d8a:	2001      	moveq	r0, #1
 8006d8c:	f7fa fa30 	bl	80011f0 <_test_assert>
 8006d90:	2800      	cmp	r0, #0
 8006d92:	f47f ae67 	bne.w	8006a64 <oslib_test_002_001_execute+0x34>
    test_assert(mb1.buffer == mb1.rdptr, "read pointer not aligned to base");
 8006d96:	4b08      	ldr	r3, [pc, #32]	; (8006db8 <oslib_test_002_001_execute+0x388>)
 8006d98:	6818      	ldr	r0, [r3, #0]
 8006d9a:	68db      	ldr	r3, [r3, #12]
 8006d9c:	490b      	ldr	r1, [pc, #44]	; (8006dcc <oslib_test_002_001_execute+0x39c>)
 8006d9e:	4298      	cmp	r0, r3
 8006da0:	bf14      	ite	ne
 8006da2:	2000      	movne	r0, #0
 8006da4:	2001      	moveq	r0, #1
 8006da6:	f7fa fa23 	bl	80011f0 <_test_assert>
 8006daa:	e65b      	b.n	8006a64 <oslib_test_002_001_execute+0x34>
 8006dac:	0800cb44 	.word	0x0800cb44
 8006db0:	0800cb58 	.word	0x0800cb58
 8006db4:	20001a7c 	.word	0x20001a7c
 8006db8:	2000084c 	.word	0x2000084c
 8006dbc:	0800caa8 	.word	0x0800caa8
 8006dc0:	0800c778 	.word	0x0800c778
 8006dc4:	0800cac0 	.word	0x0800cac0
 8006dc8:	0800cacc 	.word	0x0800cacc
 8006dcc:	0800caf0 	.word	0x0800caf0

08006dd0 <chThdResumeI>:
void chThdResumeI(thread_reference_t *trp, msg_t msg) {
 8006dd0:	b508      	push	{r3, lr}
 8006dd2:	4603      	mov	r3, r0
  if (*trp != NULL) {
 8006dd4:	6800      	ldr	r0, [r0, #0]
 8006dd6:	b120      	cbz	r0, 8006de2 <chThdResumeI+0x12>
    *trp = NULL;
 8006dd8:	2200      	movs	r2, #0
 8006dda:	601a      	str	r2, [r3, #0]
    tp->u.rdymsg = msg;
 8006ddc:	6241      	str	r1, [r0, #36]	; 0x24
    (void) chSchReadyI(tp);
 8006dde:	f003 fb7f 	bl	800a4e0 <chSchReadyI>
}
 8006de2:	bd08      	pop	{r3, pc}
	...

08006df0 <thread1.lto_priv.0>:
static THD_FUNCTION(thread1, p) {
 8006df0:	b510      	push	{r4, lr}
 8006df2:	4604      	mov	r4, r0
 8006df4:	2320      	movs	r3, #32
 8006df6:	f383 8811 	msr	BASEPRI, r3
  chThdResumeI(&tr1, MSG_OK);
 8006dfa:	2100      	movs	r1, #0
 8006dfc:	4805      	ldr	r0, [pc, #20]	; (8006e14 <thread1.lto_priv.0+0x24>)
 8006dfe:	f7ff ffe7 	bl	8006dd0 <chThdResumeI>
  chSchRescheduleS();
 8006e02:	f003 fb45 	bl	800a490 <chSchRescheduleS>
 8006e06:	2300      	movs	r3, #0
 8006e08:	f383 8811 	msr	BASEPRI, r3
  test_emit_token(*(char *)p);
 8006e0c:	7820      	ldrb	r0, [r4, #0]
 8006e0e:	f7f9 fcff 	bl	8000810 <test_emit_token>
}
 8006e12:	bd10      	pop	{r4, pc}
 8006e14:	20001aa8 	.word	0x20001aa8
	...

08006e20 <chPipeReset>:
void chPipeReset(pipe_t *pp) {
 8006e20:	b570      	push	{r4, r5, r6, lr}
 8006e22:	4604      	mov	r4, r0
  PC_LOCK(pp);
 8006e24:	f100 0520 	add.w	r5, r0, #32
 8006e28:	4628      	mov	r0, r5
 8006e2a:	f7fc fa19 	bl	8003260 <chMtxLock>
  pp->wrptr = pp->buffer;
 8006e2e:	6823      	ldr	r3, [r4, #0]
 8006e30:	60a3      	str	r3, [r4, #8]
  pp->rdptr = pp->buffer;
 8006e32:	60e3      	str	r3, [r4, #12]
  pp->cnt   = (size_t)0;
 8006e34:	2600      	movs	r6, #0
 8006e36:	6126      	str	r6, [r4, #16]
  pp->reset = true;
 8006e38:	2301      	movs	r3, #1
 8006e3a:	7523      	strb	r3, [r4, #20]
 8006e3c:	2320      	movs	r3, #32
 8006e3e:	f383 8811 	msr	BASEPRI, r3
  chThdResumeI(&pp->wtr, MSG_RESET);
 8006e42:	f06f 0101 	mvn.w	r1, #1
 8006e46:	f104 0018 	add.w	r0, r4, #24
 8006e4a:	f7ff ffc1 	bl	8006dd0 <chThdResumeI>
  chThdResumeI(&pp->rtr, MSG_RESET);
 8006e4e:	f06f 0101 	mvn.w	r1, #1
 8006e52:	f104 001c 	add.w	r0, r4, #28
 8006e56:	f7ff ffbb 	bl	8006dd0 <chThdResumeI>
  chSchRescheduleS();
 8006e5a:	f003 fb19 	bl	800a490 <chSchRescheduleS>
 8006e5e:	f386 8811 	msr	BASEPRI, r6
  PC_UNLOCK(pp);
 8006e62:	4628      	mov	r0, r5
 8006e64:	f7fc f8a4 	bl	8002fb0 <chMtxUnlock>
}
 8006e68:	bd70      	pop	{r4, r5, r6, pc}
 8006e6a:	bf00      	nop
 8006e6c:	0000      	movs	r0, r0
	...

08006e70 <oslib_test_003_001_execute>:
static void oslib_test_003_001_execute(void) {
 8006e70:	b510      	push	{r4, lr}
 8006e72:	b084      	sub	sp, #16
  test_set_step(1);
 8006e74:	4b0e      	ldr	r3, [pc, #56]	; (8006eb0 <oslib_test_003_001_execute+0x40>)
 8006e76:	2201      	movs	r2, #1
 8006e78:	601a      	str	r2, [r3, #0]
    chPipeReset(&pipe1);
 8006e7a:	4c0e      	ldr	r4, [pc, #56]	; (8006eb4 <oslib_test_003_001_execute+0x44>)
 8006e7c:	4620      	mov	r0, r4
 8006e7e:	f7ff ffcf 	bl	8006e20 <chPipeReset>
    test_assert((pipe1.rdptr == pipe1.buffer) &&
 8006e82:	6823      	ldr	r3, [r4, #0]
 8006e84:	68e2      	ldr	r2, [r4, #12]
 8006e86:	429a      	cmp	r2, r3
 8006e88:	d006      	beq.n	8006e98 <oslib_test_003_001_execute+0x28>
 8006e8a:	2000      	movs	r0, #0
 8006e8c:	490a      	ldr	r1, [pc, #40]	; (8006eb8 <oslib_test_003_001_execute+0x48>)
 8006e8e:	f7fa f9af 	bl	80011f0 <_test_assert>
 8006e92:	b198      	cbz	r0, 8006ebc <oslib_test_003_001_execute+0x4c>
}
 8006e94:	b004      	add	sp, #16
 8006e96:	bd10      	pop	{r4, pc}
    test_assert((pipe1.rdptr == pipe1.buffer) &&
 8006e98:	68a2      	ldr	r2, [r4, #8]
 8006e9a:	4293      	cmp	r3, r2
 8006e9c:	d001      	beq.n	8006ea2 <oslib_test_003_001_execute+0x32>
 8006e9e:	2000      	movs	r0, #0
 8006ea0:	e7f4      	b.n	8006e8c <oslib_test_003_001_execute+0x1c>
 8006ea2:	6923      	ldr	r3, [r4, #16]
 8006ea4:	b10b      	cbz	r3, 8006eaa <oslib_test_003_001_execute+0x3a>
 8006ea6:	2000      	movs	r0, #0
 8006ea8:	e7f0      	b.n	8006e8c <oslib_test_003_001_execute+0x1c>
 8006eaa:	2001      	movs	r0, #1
 8006eac:	e7ee      	b.n	8006e8c <oslib_test_003_001_execute+0x1c>
 8006eae:	bf00      	nop
 8006eb0:	20001a7c 	.word	0x20001a7c
 8006eb4:	2000088c 	.word	0x2000088c
 8006eb8:	0800c83c 	.word	0x0800c83c
  test_set_step(2);
 8006ebc:	4bb3      	ldr	r3, [pc, #716]	; (800718c <oslib_test_003_001_execute+0x31c>)
 8006ebe:	2202      	movs	r2, #2
 8006ec0:	601a      	str	r2, [r3, #0]
    n = chPipeWriteTimeout(&pipe1, pipe_pattern, PIPE_SIZE, TIME_IMMEDIATE);
 8006ec2:	2300      	movs	r3, #0
 8006ec4:	2210      	movs	r2, #16
 8006ec6:	49b2      	ldr	r1, [pc, #712]	; (8007190 <oslib_test_003_001_execute+0x320>)
 8006ec8:	48b2      	ldr	r0, [pc, #712]	; (8007194 <oslib_test_003_001_execute+0x324>)
 8006eca:	f7fe f9a9 	bl	8005220 <chPipeWriteTimeout>
    test_assert(n == 0, "not reset");
 8006ece:	49b2      	ldr	r1, [pc, #712]	; (8007198 <oslib_test_003_001_execute+0x328>)
 8006ed0:	fab0 f080 	clz	r0, r0
 8006ed4:	0940      	lsrs	r0, r0, #5
 8006ed6:	f7fa f98b 	bl	80011f0 <_test_assert>
 8006eda:	2800      	cmp	r0, #0
 8006edc:	d1da      	bne.n	8006e94 <oslib_test_003_001_execute+0x24>
    test_assert((pipe1.rdptr == pipe1.buffer) &&
 8006ede:	4bad      	ldr	r3, [pc, #692]	; (8007194 <oslib_test_003_001_execute+0x324>)
 8006ee0:	681a      	ldr	r2, [r3, #0]
 8006ee2:	68db      	ldr	r3, [r3, #12]
 8006ee4:	4293      	cmp	r3, r2
 8006ee6:	f000 81d3 	beq.w	8007290 <oslib_test_003_001_execute+0x420>
 8006eea:	2000      	movs	r0, #0
 8006eec:	49ab      	ldr	r1, [pc, #684]	; (800719c <oslib_test_003_001_execute+0x32c>)
 8006eee:	f7fa f97f 	bl	80011f0 <_test_assert>
 8006ef2:	2800      	cmp	r0, #0
 8006ef4:	d1ce      	bne.n	8006e94 <oslib_test_003_001_execute+0x24>
  test_set_step(3);
 8006ef6:	4ba5      	ldr	r3, [pc, #660]	; (800718c <oslib_test_003_001_execute+0x31c>)
 8006ef8:	2203      	movs	r2, #3
 8006efa:	601a      	str	r2, [r3, #0]
    n = chPipeReadTimeout(&pipe1, buf, PIPE_SIZE, TIME_IMMEDIATE);
 8006efc:	2300      	movs	r3, #0
 8006efe:	2210      	movs	r2, #16
 8006f00:	4669      	mov	r1, sp
 8006f02:	48a4      	ldr	r0, [pc, #656]	; (8007194 <oslib_test_003_001_execute+0x324>)
 8006f04:	f7fe f954 	bl	80051b0 <chPipeReadTimeout>
    test_assert(n == 0, "not reset");
 8006f08:	49a3      	ldr	r1, [pc, #652]	; (8007198 <oslib_test_003_001_execute+0x328>)
 8006f0a:	fab0 f080 	clz	r0, r0
 8006f0e:	0940      	lsrs	r0, r0, #5
 8006f10:	f7fa f96e 	bl	80011f0 <_test_assert>
 8006f14:	2800      	cmp	r0, #0
 8006f16:	d1bd      	bne.n	8006e94 <oslib_test_003_001_execute+0x24>
    test_assert((pipe1.rdptr == pipe1.buffer) &&
 8006f18:	4b9e      	ldr	r3, [pc, #632]	; (8007194 <oslib_test_003_001_execute+0x324>)
 8006f1a:	681a      	ldr	r2, [r3, #0]
 8006f1c:	68db      	ldr	r3, [r3, #12]
 8006f1e:	4293      	cmp	r3, r2
 8006f20:	f000 81c3 	beq.w	80072aa <oslib_test_003_001_execute+0x43a>
 8006f24:	2000      	movs	r0, #0
 8006f26:	499d      	ldr	r1, [pc, #628]	; (800719c <oslib_test_003_001_execute+0x32c>)
 8006f28:	f7fa f962 	bl	80011f0 <_test_assert>
 8006f2c:	2800      	cmp	r0, #0
 8006f2e:	d1b1      	bne.n	8006e94 <oslib_test_003_001_execute+0x24>
  test_set_step(4);
 8006f30:	4b96      	ldr	r3, [pc, #600]	; (800718c <oslib_test_003_001_execute+0x31c>)
 8006f32:	2204      	movs	r2, #4
 8006f34:	601a      	str	r2, [r3, #0]
 *
 * @api
 */
static inline void chPipeResume(pipe_t *pp) {

  pp->reset = false;
 8006f36:	4b97      	ldr	r3, [pc, #604]	; (8007194 <oslib_test_003_001_execute+0x324>)
 8006f38:	2200      	movs	r2, #0
 8006f3a:	751a      	strb	r2, [r3, #20]
    test_assert((pipe1.rdptr == pipe1.buffer) &&
 8006f3c:	681a      	ldr	r2, [r3, #0]
 8006f3e:	68db      	ldr	r3, [r3, #12]
 8006f40:	4293      	cmp	r3, r2
 8006f42:	f000 81bf 	beq.w	80072c4 <oslib_test_003_001_execute+0x454>
 8006f46:	4995      	ldr	r1, [pc, #596]	; (800719c <oslib_test_003_001_execute+0x32c>)
 8006f48:	f7fa f952 	bl	80011f0 <_test_assert>
 8006f4c:	2800      	cmp	r0, #0
 8006f4e:	d1a1      	bne.n	8006e94 <oslib_test_003_001_execute+0x24>
  test_set_step(5);
 8006f50:	4b8e      	ldr	r3, [pc, #568]	; (800718c <oslib_test_003_001_execute+0x31c>)
 8006f52:	2205      	movs	r2, #5
 8006f54:	601a      	str	r2, [r3, #0]
    n = chPipeWriteTimeout(&pipe1, pipe_pattern, PIPE_SIZE, TIME_IMMEDIATE);
 8006f56:	2300      	movs	r3, #0
 8006f58:	2210      	movs	r2, #16
 8006f5a:	498d      	ldr	r1, [pc, #564]	; (8007190 <oslib_test_003_001_execute+0x320>)
 8006f5c:	488d      	ldr	r0, [pc, #564]	; (8007194 <oslib_test_003_001_execute+0x324>)
 8006f5e:	f7fe f95f 	bl	8005220 <chPipeWriteTimeout>
    test_assert(n == PIPE_SIZE, "wrong size");
 8006f62:	498f      	ldr	r1, [pc, #572]	; (80071a0 <oslib_test_003_001_execute+0x330>)
 8006f64:	2810      	cmp	r0, #16
 8006f66:	bf14      	ite	ne
 8006f68:	2000      	movne	r0, #0
 8006f6a:	2001      	moveq	r0, #1
 8006f6c:	f7fa f940 	bl	80011f0 <_test_assert>
 8006f70:	2800      	cmp	r0, #0
 8006f72:	d18f      	bne.n	8006e94 <oslib_test_003_001_execute+0x24>
    test_assert((pipe1.rdptr == pipe1.buffer) &&
 8006f74:	4b87      	ldr	r3, [pc, #540]	; (8007194 <oslib_test_003_001_execute+0x324>)
 8006f76:	681a      	ldr	r2, [r3, #0]
 8006f78:	68db      	ldr	r3, [r3, #12]
 8006f7a:	4293      	cmp	r3, r2
 8006f7c:	f000 81af 	beq.w	80072de <oslib_test_003_001_execute+0x46e>
 8006f80:	2000      	movs	r0, #0
 8006f82:	4986      	ldr	r1, [pc, #536]	; (800719c <oslib_test_003_001_execute+0x32c>)
 8006f84:	f7fa f934 	bl	80011f0 <_test_assert>
 8006f88:	2800      	cmp	r0, #0
 8006f8a:	d183      	bne.n	8006e94 <oslib_test_003_001_execute+0x24>
  test_set_step(6);
 8006f8c:	4b7f      	ldr	r3, [pc, #508]	; (800718c <oslib_test_003_001_execute+0x31c>)
 8006f8e:	2206      	movs	r2, #6
 8006f90:	601a      	str	r2, [r3, #0]
    n = chPipeReadTimeout(&pipe1, buf, PIPE_SIZE, TIME_IMMEDIATE);
 8006f92:	2300      	movs	r3, #0
 8006f94:	2210      	movs	r2, #16
 8006f96:	4669      	mov	r1, sp
 8006f98:	487e      	ldr	r0, [pc, #504]	; (8007194 <oslib_test_003_001_execute+0x324>)
 8006f9a:	f7fe f909 	bl	80051b0 <chPipeReadTimeout>
    test_assert(n == PIPE_SIZE, "wrong size");
 8006f9e:	4980      	ldr	r1, [pc, #512]	; (80071a0 <oslib_test_003_001_execute+0x330>)
 8006fa0:	2810      	cmp	r0, #16
 8006fa2:	bf14      	ite	ne
 8006fa4:	2000      	movne	r0, #0
 8006fa6:	2001      	moveq	r0, #1
 8006fa8:	f7fa f922 	bl	80011f0 <_test_assert>
 8006fac:	2800      	cmp	r0, #0
 8006fae:	f47f af71 	bne.w	8006e94 <oslib_test_003_001_execute+0x24>
    test_assert((pipe1.rdptr == pipe1.buffer) &&
 8006fb2:	4b78      	ldr	r3, [pc, #480]	; (8007194 <oslib_test_003_001_execute+0x324>)
 8006fb4:	681a      	ldr	r2, [r3, #0]
 8006fb6:	68db      	ldr	r3, [r3, #12]
 8006fb8:	4293      	cmp	r3, r2
 8006fba:	f000 819d 	beq.w	80072f8 <oslib_test_003_001_execute+0x488>
 8006fbe:	2000      	movs	r0, #0
 8006fc0:	4976      	ldr	r1, [pc, #472]	; (800719c <oslib_test_003_001_execute+0x32c>)
 8006fc2:	f7fa f915 	bl	80011f0 <_test_assert>
 8006fc6:	2800      	cmp	r0, #0
 8006fc8:	f47f af64 	bne.w	8006e94 <oslib_test_003_001_execute+0x24>
    test_assert(memcmp(pipe_pattern, buf, PIPE_SIZE) == 0, "content mismatch");
 8006fcc:	2210      	movs	r2, #16
 8006fce:	4669      	mov	r1, sp
 8006fd0:	486f      	ldr	r0, [pc, #444]	; (8007190 <oslib_test_003_001_execute+0x320>)
 8006fd2:	f004 f919 	bl	800b208 <memcmp>
 8006fd6:	4973      	ldr	r1, [pc, #460]	; (80071a4 <oslib_test_003_001_execute+0x334>)
 8006fd8:	fab0 f080 	clz	r0, r0
 8006fdc:	0940      	lsrs	r0, r0, #5
 8006fde:	f7fa f907 	bl	80011f0 <_test_assert>
 8006fe2:	2800      	cmp	r0, #0
 8006fe4:	f47f af56 	bne.w	8006e94 <oslib_test_003_001_execute+0x24>
  test_set_step(7);
 8006fe8:	4b68      	ldr	r3, [pc, #416]	; (800718c <oslib_test_003_001_execute+0x31c>)
 8006fea:	2207      	movs	r2, #7
 8006fec:	601a      	str	r2, [r3, #0]
    n = chPipeWriteTimeout(&pipe1, pipe_pattern, 4, TIME_IMMEDIATE);
 8006fee:	2300      	movs	r3, #0
 8006ff0:	2204      	movs	r2, #4
 8006ff2:	4967      	ldr	r1, [pc, #412]	; (8007190 <oslib_test_003_001_execute+0x320>)
 8006ff4:	4867      	ldr	r0, [pc, #412]	; (8007194 <oslib_test_003_001_execute+0x324>)
 8006ff6:	f7fe f913 	bl	8005220 <chPipeWriteTimeout>
    test_assert(n == 4, "wrong size");
 8006ffa:	4969      	ldr	r1, [pc, #420]	; (80071a0 <oslib_test_003_001_execute+0x330>)
 8006ffc:	2804      	cmp	r0, #4
 8006ffe:	bf14      	ite	ne
 8007000:	2000      	movne	r0, #0
 8007002:	2001      	moveq	r0, #1
 8007004:	f7fa f8f4 	bl	80011f0 <_test_assert>
 8007008:	2800      	cmp	r0, #0
 800700a:	f47f af43 	bne.w	8006e94 <oslib_test_003_001_execute+0x24>
    test_assert((pipe1.rdptr != pipe1.wrptr) &&
 800700e:	4a61      	ldr	r2, [pc, #388]	; (8007194 <oslib_test_003_001_execute+0x324>)
 8007010:	68d3      	ldr	r3, [r2, #12]
 8007012:	6892      	ldr	r2, [r2, #8]
 8007014:	4293      	cmp	r3, r2
 8007016:	f000 8183 	beq.w	8007320 <oslib_test_003_001_execute+0x4b0>
 800701a:	4a5e      	ldr	r2, [pc, #376]	; (8007194 <oslib_test_003_001_execute+0x324>)
 800701c:	6812      	ldr	r2, [r2, #0]
 800701e:	4293      	cmp	r3, r2
 8007020:	f000 8177 	beq.w	8007312 <oslib_test_003_001_execute+0x4a2>
 8007024:	2000      	movs	r0, #0
 8007026:	495d      	ldr	r1, [pc, #372]	; (800719c <oslib_test_003_001_execute+0x32c>)
 8007028:	f7fa f8e2 	bl	80011f0 <_test_assert>
 800702c:	2800      	cmp	r0, #0
 800702e:	f47f af31 	bne.w	8006e94 <oslib_test_003_001_execute+0x24>
  test_set_step(8);
 8007032:	4b56      	ldr	r3, [pc, #344]	; (800718c <oslib_test_003_001_execute+0x31c>)
 8007034:	2208      	movs	r2, #8
 8007036:	601a      	str	r2, [r3, #0]
    n = chPipeWriteTimeout(&pipe1, pipe_pattern, PIPE_SIZE - 4, TIME_IMMEDIATE);
 8007038:	2300      	movs	r3, #0
 800703a:	220c      	movs	r2, #12
 800703c:	4954      	ldr	r1, [pc, #336]	; (8007190 <oslib_test_003_001_execute+0x320>)
 800703e:	4855      	ldr	r0, [pc, #340]	; (8007194 <oslib_test_003_001_execute+0x324>)
 8007040:	f7fe f8ee 	bl	8005220 <chPipeWriteTimeout>
    test_assert(n == PIPE_SIZE - 4, "wrong size");
 8007044:	4956      	ldr	r1, [pc, #344]	; (80071a0 <oslib_test_003_001_execute+0x330>)
 8007046:	280c      	cmp	r0, #12
 8007048:	bf14      	ite	ne
 800704a:	2000      	movne	r0, #0
 800704c:	2001      	moveq	r0, #1
 800704e:	f7fa f8cf 	bl	80011f0 <_test_assert>
 8007052:	2800      	cmp	r0, #0
 8007054:	f47f af1e 	bne.w	8006e94 <oslib_test_003_001_execute+0x24>
    test_assert((pipe1.rdptr == pipe1.buffer) &&
 8007058:	4a4e      	ldr	r2, [pc, #312]	; (8007194 <oslib_test_003_001_execute+0x324>)
 800705a:	6813      	ldr	r3, [r2, #0]
 800705c:	68d2      	ldr	r2, [r2, #12]
 800705e:	429a      	cmp	r2, r3
 8007060:	f000 8160 	beq.w	8007324 <oslib_test_003_001_execute+0x4b4>
 8007064:	2000      	movs	r0, #0
 8007066:	494d      	ldr	r1, [pc, #308]	; (800719c <oslib_test_003_001_execute+0x32c>)
 8007068:	f7fa f8c2 	bl	80011f0 <_test_assert>
 800706c:	2800      	cmp	r0, #0
 800706e:	f47f af11 	bne.w	8006e94 <oslib_test_003_001_execute+0x24>
  test_set_step(9);
 8007072:	4b46      	ldr	r3, [pc, #280]	; (800718c <oslib_test_003_001_execute+0x31c>)
 8007074:	2209      	movs	r2, #9
 8007076:	601a      	str	r2, [r3, #0]
    n = chPipeReadTimeout(&pipe1, buf, 4, TIME_IMMEDIATE);
 8007078:	2300      	movs	r3, #0
 800707a:	2204      	movs	r2, #4
 800707c:	4669      	mov	r1, sp
 800707e:	4845      	ldr	r0, [pc, #276]	; (8007194 <oslib_test_003_001_execute+0x324>)
 8007080:	f7fe f896 	bl	80051b0 <chPipeReadTimeout>
    test_assert(n == 4, "wrong size");
 8007084:	4946      	ldr	r1, [pc, #280]	; (80071a0 <oslib_test_003_001_execute+0x330>)
 8007086:	2804      	cmp	r0, #4
 8007088:	bf14      	ite	ne
 800708a:	2000      	movne	r0, #0
 800708c:	2001      	moveq	r0, #1
 800708e:	f7fa f8af 	bl	80011f0 <_test_assert>
 8007092:	2800      	cmp	r0, #0
 8007094:	f47f aefe 	bne.w	8006e94 <oslib_test_003_001_execute+0x24>
    test_assert((pipe1.rdptr != pipe1.buffer) &&
 8007098:	4a3e      	ldr	r2, [pc, #248]	; (8007194 <oslib_test_003_001_execute+0x324>)
 800709a:	6813      	ldr	r3, [r2, #0]
 800709c:	68d2      	ldr	r2, [r2, #12]
 800709e:	429a      	cmp	r2, r3
 80070a0:	f000 8154 	beq.w	800734c <oslib_test_003_001_execute+0x4dc>
 80070a4:	4a3b      	ldr	r2, [pc, #236]	; (8007194 <oslib_test_003_001_execute+0x324>)
 80070a6:	6892      	ldr	r2, [r2, #8]
 80070a8:	4293      	cmp	r3, r2
 80070aa:	f000 8148 	beq.w	800733e <oslib_test_003_001_execute+0x4ce>
 80070ae:	2000      	movs	r0, #0
 80070b0:	493a      	ldr	r1, [pc, #232]	; (800719c <oslib_test_003_001_execute+0x32c>)
 80070b2:	f7fa f89d 	bl	80011f0 <_test_assert>
 80070b6:	2800      	cmp	r0, #0
 80070b8:	f47f aeec 	bne.w	8006e94 <oslib_test_003_001_execute+0x24>
    test_assert(memcmp(pipe_pattern, buf, 4) == 0, "content mismatch");
 80070bc:	2204      	movs	r2, #4
 80070be:	4669      	mov	r1, sp
 80070c0:	4833      	ldr	r0, [pc, #204]	; (8007190 <oslib_test_003_001_execute+0x320>)
 80070c2:	f004 f8a1 	bl	800b208 <memcmp>
 80070c6:	4937      	ldr	r1, [pc, #220]	; (80071a4 <oslib_test_003_001_execute+0x334>)
 80070c8:	fab0 f080 	clz	r0, r0
 80070cc:	0940      	lsrs	r0, r0, #5
 80070ce:	f7fa f88f 	bl	80011f0 <_test_assert>
 80070d2:	2800      	cmp	r0, #0
 80070d4:	f47f aede 	bne.w	8006e94 <oslib_test_003_001_execute+0x24>
  test_set_step(10);
 80070d8:	4b2c      	ldr	r3, [pc, #176]	; (800718c <oslib_test_003_001_execute+0x31c>)
 80070da:	220a      	movs	r2, #10
 80070dc:	601a      	str	r2, [r3, #0]
    n = chPipeReadTimeout(&pipe1, buf, PIPE_SIZE - 4, TIME_IMMEDIATE);
 80070de:	2300      	movs	r3, #0
 80070e0:	220c      	movs	r2, #12
 80070e2:	4669      	mov	r1, sp
 80070e4:	482b      	ldr	r0, [pc, #172]	; (8007194 <oslib_test_003_001_execute+0x324>)
 80070e6:	f7fe f863 	bl	80051b0 <chPipeReadTimeout>
    test_assert(n == PIPE_SIZE - 4, "wrong size");
 80070ea:	492d      	ldr	r1, [pc, #180]	; (80071a0 <oslib_test_003_001_execute+0x330>)
 80070ec:	280c      	cmp	r0, #12
 80070ee:	bf14      	ite	ne
 80070f0:	2000      	movne	r0, #0
 80070f2:	2001      	moveq	r0, #1
 80070f4:	f7fa f87c 	bl	80011f0 <_test_assert>
 80070f8:	2800      	cmp	r0, #0
 80070fa:	f47f aecb 	bne.w	8006e94 <oslib_test_003_001_execute+0x24>
    test_assert((pipe1.rdptr == pipe1.buffer) &&
 80070fe:	4a25      	ldr	r2, [pc, #148]	; (8007194 <oslib_test_003_001_execute+0x324>)
 8007100:	6813      	ldr	r3, [r2, #0]
 8007102:	68d2      	ldr	r2, [r2, #12]
 8007104:	429a      	cmp	r2, r3
 8007106:	f000 8123 	beq.w	8007350 <oslib_test_003_001_execute+0x4e0>
 800710a:	2000      	movs	r0, #0
 800710c:	4923      	ldr	r1, [pc, #140]	; (800719c <oslib_test_003_001_execute+0x32c>)
 800710e:	f7fa f86f 	bl	80011f0 <_test_assert>
 8007112:	2800      	cmp	r0, #0
 8007114:	f47f aebe 	bne.w	8006e94 <oslib_test_003_001_execute+0x24>
    test_assert(memcmp(pipe_pattern, buf, PIPE_SIZE - 4) == 0, "content mismatch");
 8007118:	220c      	movs	r2, #12
 800711a:	4669      	mov	r1, sp
 800711c:	481c      	ldr	r0, [pc, #112]	; (8007190 <oslib_test_003_001_execute+0x320>)
 800711e:	f004 f873 	bl	800b208 <memcmp>
 8007122:	4920      	ldr	r1, [pc, #128]	; (80071a4 <oslib_test_003_001_execute+0x334>)
 8007124:	fab0 f080 	clz	r0, r0
 8007128:	0940      	lsrs	r0, r0, #5
 800712a:	f7fa f861 	bl	80011f0 <_test_assert>
 800712e:	2800      	cmp	r0, #0
 8007130:	f47f aeb0 	bne.w	8006e94 <oslib_test_003_001_execute+0x24>
  test_set_step(11);
 8007134:	4b15      	ldr	r3, [pc, #84]	; (800718c <oslib_test_003_001_execute+0x31c>)
 8007136:	220b      	movs	r2, #11
 8007138:	601a      	str	r2, [r3, #0]
    n = chPipeWriteTimeout(&pipe1, pipe_pattern, 5, TIME_IMMEDIATE);
 800713a:	2300      	movs	r3, #0
 800713c:	2205      	movs	r2, #5
 800713e:	4914      	ldr	r1, [pc, #80]	; (8007190 <oslib_test_003_001_execute+0x320>)
 8007140:	4814      	ldr	r0, [pc, #80]	; (8007194 <oslib_test_003_001_execute+0x324>)
 8007142:	f7fe f86d 	bl	8005220 <chPipeWriteTimeout>
    test_assert(n == 5, "wrong size");
 8007146:	4916      	ldr	r1, [pc, #88]	; (80071a0 <oslib_test_003_001_execute+0x330>)
 8007148:	2805      	cmp	r0, #5
 800714a:	bf14      	ite	ne
 800714c:	2000      	movne	r0, #0
 800714e:	2001      	moveq	r0, #1
 8007150:	f7fa f84e 	bl	80011f0 <_test_assert>
 8007154:	2800      	cmp	r0, #0
 8007156:	f47f ae9d 	bne.w	8006e94 <oslib_test_003_001_execute+0x24>
    test_assert((pipe1.rdptr != pipe1.wrptr) &&
 800715a:	4a0e      	ldr	r2, [pc, #56]	; (8007194 <oslib_test_003_001_execute+0x324>)
 800715c:	68d3      	ldr	r3, [r2, #12]
 800715e:	6892      	ldr	r2, [r2, #8]
 8007160:	4293      	cmp	r3, r2
 8007162:	f000 8109 	beq.w	8007378 <oslib_test_003_001_execute+0x508>
 8007166:	4a0b      	ldr	r2, [pc, #44]	; (8007194 <oslib_test_003_001_execute+0x324>)
 8007168:	6812      	ldr	r2, [r2, #0]
 800716a:	4293      	cmp	r3, r2
 800716c:	f000 80fd 	beq.w	800736a <oslib_test_003_001_execute+0x4fa>
 8007170:	2000      	movs	r0, #0
 8007172:	490a      	ldr	r1, [pc, #40]	; (800719c <oslib_test_003_001_execute+0x32c>)
 8007174:	f7fa f83c 	bl	80011f0 <_test_assert>
 8007178:	2800      	cmp	r0, #0
 800717a:	f47f ae8b 	bne.w	8006e94 <oslib_test_003_001_execute+0x24>
  test_set_step(12);
 800717e:	4b03      	ldr	r3, [pc, #12]	; (800718c <oslib_test_003_001_execute+0x31c>)
 8007180:	220c      	movs	r2, #12
 8007182:	601a      	str	r2, [r3, #0]
    n = chPipeReadTimeout(&pipe1, buf, 5, TIME_IMMEDIATE);
 8007184:	2300      	movs	r3, #0
 8007186:	2205      	movs	r2, #5
 8007188:	4669      	mov	r1, sp
 800718a:	e00d      	b.n	80071a8 <oslib_test_003_001_execute+0x338>
 800718c:	20001a7c 	.word	0x20001a7c
 8007190:	0800db00 	.word	0x0800db00
 8007194:	2000088c 	.word	0x2000088c
 8007198:	0800cb74 	.word	0x0800cb74
 800719c:	0800c83c 	.word	0x0800c83c
 80071a0:	0800c830 	.word	0x0800c830
 80071a4:	0800cb80 	.word	0x0800cb80
 80071a8:	4888      	ldr	r0, [pc, #544]	; (80073cc <oslib_test_003_001_execute+0x55c>)
 80071aa:	f7fe f801 	bl	80051b0 <chPipeReadTimeout>
    test_assert(n == 5, "wrong size");
 80071ae:	4988      	ldr	r1, [pc, #544]	; (80073d0 <oslib_test_003_001_execute+0x560>)
 80071b0:	2805      	cmp	r0, #5
 80071b2:	bf14      	ite	ne
 80071b4:	2000      	movne	r0, #0
 80071b6:	2001      	moveq	r0, #1
 80071b8:	f7fa f81a 	bl	80011f0 <_test_assert>
 80071bc:	2800      	cmp	r0, #0
 80071be:	f47f ae69 	bne.w	8006e94 <oslib_test_003_001_execute+0x24>
    test_assert((pipe1.rdptr == pipe1.wrptr) &&
 80071c2:	4a82      	ldr	r2, [pc, #520]	; (80073cc <oslib_test_003_001_execute+0x55c>)
 80071c4:	6893      	ldr	r3, [r2, #8]
 80071c6:	68d2      	ldr	r2, [r2, #12]
 80071c8:	429a      	cmp	r2, r3
 80071ca:	f000 80d7 	beq.w	800737c <oslib_test_003_001_execute+0x50c>
 80071ce:	2000      	movs	r0, #0
 80071d0:	4980      	ldr	r1, [pc, #512]	; (80073d4 <oslib_test_003_001_execute+0x564>)
 80071d2:	f7fa f80d 	bl	80011f0 <_test_assert>
 80071d6:	2800      	cmp	r0, #0
 80071d8:	f47f ae5c 	bne.w	8006e94 <oslib_test_003_001_execute+0x24>
    test_assert(memcmp(pipe_pattern, buf, 5) == 0, "content mismatch");
 80071dc:	2205      	movs	r2, #5
 80071de:	4669      	mov	r1, sp
 80071e0:	487d      	ldr	r0, [pc, #500]	; (80073d8 <oslib_test_003_001_execute+0x568>)
 80071e2:	f004 f811 	bl	800b208 <memcmp>
 80071e6:	497d      	ldr	r1, [pc, #500]	; (80073dc <oslib_test_003_001_execute+0x56c>)
 80071e8:	fab0 f080 	clz	r0, r0
 80071ec:	0940      	lsrs	r0, r0, #5
 80071ee:	f7f9 ffff 	bl	80011f0 <_test_assert>
 80071f2:	2800      	cmp	r0, #0
 80071f4:	f47f ae4e 	bne.w	8006e94 <oslib_test_003_001_execute+0x24>
  test_set_step(13);
 80071f8:	4b79      	ldr	r3, [pc, #484]	; (80073e0 <oslib_test_003_001_execute+0x570>)
 80071fa:	220d      	movs	r2, #13
 80071fc:	601a      	str	r2, [r3, #0]
    n = chPipeWriteTimeout(&pipe1, pipe_pattern, PIPE_SIZE, TIME_IMMEDIATE);
 80071fe:	2300      	movs	r3, #0
 8007200:	2210      	movs	r2, #16
 8007202:	4975      	ldr	r1, [pc, #468]	; (80073d8 <oslib_test_003_001_execute+0x568>)
 8007204:	4871      	ldr	r0, [pc, #452]	; (80073cc <oslib_test_003_001_execute+0x55c>)
 8007206:	f7fe f80b 	bl	8005220 <chPipeWriteTimeout>
    test_assert(n == PIPE_SIZE, "wrong size");
 800720a:	4971      	ldr	r1, [pc, #452]	; (80073d0 <oslib_test_003_001_execute+0x560>)
 800720c:	2810      	cmp	r0, #16
 800720e:	bf14      	ite	ne
 8007210:	2000      	movne	r0, #0
 8007212:	2001      	moveq	r0, #1
 8007214:	f7f9 ffec 	bl	80011f0 <_test_assert>
 8007218:	2800      	cmp	r0, #0
 800721a:	f47f ae3b 	bne.w	8006e94 <oslib_test_003_001_execute+0x24>
    test_assert((pipe1.rdptr == pipe1.wrptr) &&
 800721e:	4a6b      	ldr	r2, [pc, #428]	; (80073cc <oslib_test_003_001_execute+0x55c>)
 8007220:	6893      	ldr	r3, [r2, #8]
 8007222:	68d2      	ldr	r2, [r2, #12]
 8007224:	429a      	cmp	r2, r3
 8007226:	f000 80b6 	beq.w	8007396 <oslib_test_003_001_execute+0x526>
 800722a:	2000      	movs	r0, #0
 800722c:	4969      	ldr	r1, [pc, #420]	; (80073d4 <oslib_test_003_001_execute+0x564>)
 800722e:	f7f9 ffdf 	bl	80011f0 <_test_assert>
 8007232:	2800      	cmp	r0, #0
 8007234:	f47f ae2e 	bne.w	8006e94 <oslib_test_003_001_execute+0x24>
  test_set_step(14);
 8007238:	4b69      	ldr	r3, [pc, #420]	; (80073e0 <oslib_test_003_001_execute+0x570>)
 800723a:	220e      	movs	r2, #14
 800723c:	601a      	str	r2, [r3, #0]
    n = chPipeReadTimeout(&pipe1, buf, PIPE_SIZE, TIME_IMMEDIATE);
 800723e:	2300      	movs	r3, #0
 8007240:	2210      	movs	r2, #16
 8007242:	4669      	mov	r1, sp
 8007244:	4861      	ldr	r0, [pc, #388]	; (80073cc <oslib_test_003_001_execute+0x55c>)
 8007246:	f7fd ffb3 	bl	80051b0 <chPipeReadTimeout>
    test_assert(n == PIPE_SIZE, "wrong size");
 800724a:	4961      	ldr	r1, [pc, #388]	; (80073d0 <oslib_test_003_001_execute+0x560>)
 800724c:	2810      	cmp	r0, #16
 800724e:	bf14      	ite	ne
 8007250:	2000      	movne	r0, #0
 8007252:	2001      	moveq	r0, #1
 8007254:	f7f9 ffcc 	bl	80011f0 <_test_assert>
 8007258:	2800      	cmp	r0, #0
 800725a:	f47f ae1b 	bne.w	8006e94 <oslib_test_003_001_execute+0x24>
    test_assert((pipe1.rdptr == pipe1.wrptr) &&
 800725e:	4a5b      	ldr	r2, [pc, #364]	; (80073cc <oslib_test_003_001_execute+0x55c>)
 8007260:	6893      	ldr	r3, [r2, #8]
 8007262:	68d2      	ldr	r2, [r2, #12]
 8007264:	429a      	cmp	r2, r3
 8007266:	f000 80a3 	beq.w	80073b0 <oslib_test_003_001_execute+0x540>
 800726a:	2000      	movs	r0, #0
 800726c:	4959      	ldr	r1, [pc, #356]	; (80073d4 <oslib_test_003_001_execute+0x564>)
 800726e:	f7f9 ffbf 	bl	80011f0 <_test_assert>
 8007272:	2800      	cmp	r0, #0
 8007274:	f47f ae0e 	bne.w	8006e94 <oslib_test_003_001_execute+0x24>
    test_assert(memcmp(pipe_pattern, buf, PIPE_SIZE) == 0, "content mismatch");
 8007278:	2210      	movs	r2, #16
 800727a:	4669      	mov	r1, sp
 800727c:	4856      	ldr	r0, [pc, #344]	; (80073d8 <oslib_test_003_001_execute+0x568>)
 800727e:	f003 ffc3 	bl	800b208 <memcmp>
 8007282:	4956      	ldr	r1, [pc, #344]	; (80073dc <oslib_test_003_001_execute+0x56c>)
 8007284:	fab0 f080 	clz	r0, r0
 8007288:	0940      	lsrs	r0, r0, #5
 800728a:	f7f9 ffb1 	bl	80011f0 <_test_assert>
 800728e:	e601      	b.n	8006e94 <oslib_test_003_001_execute+0x24>
    test_assert((pipe1.rdptr == pipe1.buffer) &&
 8007290:	4b4e      	ldr	r3, [pc, #312]	; (80073cc <oslib_test_003_001_execute+0x55c>)
 8007292:	689b      	ldr	r3, [r3, #8]
 8007294:	429a      	cmp	r2, r3
 8007296:	d001      	beq.n	800729c <oslib_test_003_001_execute+0x42c>
 8007298:	2000      	movs	r0, #0
 800729a:	e627      	b.n	8006eec <oslib_test_003_001_execute+0x7c>
 800729c:	4b4b      	ldr	r3, [pc, #300]	; (80073cc <oslib_test_003_001_execute+0x55c>)
 800729e:	691b      	ldr	r3, [r3, #16]
 80072a0:	2b00      	cmp	r3, #0
 80072a2:	f47f ae23 	bne.w	8006eec <oslib_test_003_001_execute+0x7c>
 80072a6:	2001      	movs	r0, #1
 80072a8:	e620      	b.n	8006eec <oslib_test_003_001_execute+0x7c>
    test_assert((pipe1.rdptr == pipe1.buffer) &&
 80072aa:	4b48      	ldr	r3, [pc, #288]	; (80073cc <oslib_test_003_001_execute+0x55c>)
 80072ac:	689b      	ldr	r3, [r3, #8]
 80072ae:	429a      	cmp	r2, r3
 80072b0:	d001      	beq.n	80072b6 <oslib_test_003_001_execute+0x446>
 80072b2:	2000      	movs	r0, #0
 80072b4:	e637      	b.n	8006f26 <oslib_test_003_001_execute+0xb6>
 80072b6:	4b45      	ldr	r3, [pc, #276]	; (80073cc <oslib_test_003_001_execute+0x55c>)
 80072b8:	691b      	ldr	r3, [r3, #16]
 80072ba:	2b00      	cmp	r3, #0
 80072bc:	f47f ae33 	bne.w	8006f26 <oslib_test_003_001_execute+0xb6>
 80072c0:	2001      	movs	r0, #1
 80072c2:	e630      	b.n	8006f26 <oslib_test_003_001_execute+0xb6>
    test_assert((pipe1.rdptr == pipe1.buffer) &&
 80072c4:	4b41      	ldr	r3, [pc, #260]	; (80073cc <oslib_test_003_001_execute+0x55c>)
 80072c6:	689b      	ldr	r3, [r3, #8]
 80072c8:	429a      	cmp	r2, r3
 80072ca:	d001      	beq.n	80072d0 <oslib_test_003_001_execute+0x460>
 80072cc:	2000      	movs	r0, #0
 80072ce:	e63a      	b.n	8006f46 <oslib_test_003_001_execute+0xd6>
 80072d0:	4b3e      	ldr	r3, [pc, #248]	; (80073cc <oslib_test_003_001_execute+0x55c>)
 80072d2:	691b      	ldr	r3, [r3, #16]
 80072d4:	b10b      	cbz	r3, 80072da <oslib_test_003_001_execute+0x46a>
 80072d6:	2000      	movs	r0, #0
 80072d8:	e635      	b.n	8006f46 <oslib_test_003_001_execute+0xd6>
 80072da:	2001      	movs	r0, #1
 80072dc:	e633      	b.n	8006f46 <oslib_test_003_001_execute+0xd6>
    test_assert((pipe1.rdptr == pipe1.buffer) &&
 80072de:	4b3b      	ldr	r3, [pc, #236]	; (80073cc <oslib_test_003_001_execute+0x55c>)
 80072e0:	689b      	ldr	r3, [r3, #8]
 80072e2:	429a      	cmp	r2, r3
 80072e4:	d001      	beq.n	80072ea <oslib_test_003_001_execute+0x47a>
 80072e6:	2000      	movs	r0, #0
 80072e8:	e64b      	b.n	8006f82 <oslib_test_003_001_execute+0x112>
 80072ea:	4b38      	ldr	r3, [pc, #224]	; (80073cc <oslib_test_003_001_execute+0x55c>)
 80072ec:	691b      	ldr	r3, [r3, #16]
 80072ee:	2b10      	cmp	r3, #16
 80072f0:	f47f ae47 	bne.w	8006f82 <oslib_test_003_001_execute+0x112>
 80072f4:	2001      	movs	r0, #1
 80072f6:	e644      	b.n	8006f82 <oslib_test_003_001_execute+0x112>
    test_assert((pipe1.rdptr == pipe1.buffer) &&
 80072f8:	4b34      	ldr	r3, [pc, #208]	; (80073cc <oslib_test_003_001_execute+0x55c>)
 80072fa:	689b      	ldr	r3, [r3, #8]
 80072fc:	429a      	cmp	r2, r3
 80072fe:	d001      	beq.n	8007304 <oslib_test_003_001_execute+0x494>
 8007300:	2000      	movs	r0, #0
 8007302:	e65d      	b.n	8006fc0 <oslib_test_003_001_execute+0x150>
 8007304:	4b31      	ldr	r3, [pc, #196]	; (80073cc <oslib_test_003_001_execute+0x55c>)
 8007306:	691b      	ldr	r3, [r3, #16]
 8007308:	2b00      	cmp	r3, #0
 800730a:	f47f ae59 	bne.w	8006fc0 <oslib_test_003_001_execute+0x150>
 800730e:	2001      	movs	r0, #1
 8007310:	e656      	b.n	8006fc0 <oslib_test_003_001_execute+0x150>
    test_assert((pipe1.rdptr != pipe1.wrptr) &&
 8007312:	4b2e      	ldr	r3, [pc, #184]	; (80073cc <oslib_test_003_001_execute+0x55c>)
 8007314:	691b      	ldr	r3, [r3, #16]
 8007316:	2b04      	cmp	r3, #4
 8007318:	f47f ae85 	bne.w	8007026 <oslib_test_003_001_execute+0x1b6>
 800731c:	2001      	movs	r0, #1
 800731e:	e682      	b.n	8007026 <oslib_test_003_001_execute+0x1b6>
 8007320:	2000      	movs	r0, #0
 8007322:	e680      	b.n	8007026 <oslib_test_003_001_execute+0x1b6>
    test_assert((pipe1.rdptr == pipe1.buffer) &&
 8007324:	4a29      	ldr	r2, [pc, #164]	; (80073cc <oslib_test_003_001_execute+0x55c>)
 8007326:	6892      	ldr	r2, [r2, #8]
 8007328:	4293      	cmp	r3, r2
 800732a:	d001      	beq.n	8007330 <oslib_test_003_001_execute+0x4c0>
 800732c:	2000      	movs	r0, #0
 800732e:	e69a      	b.n	8007066 <oslib_test_003_001_execute+0x1f6>
 8007330:	4b26      	ldr	r3, [pc, #152]	; (80073cc <oslib_test_003_001_execute+0x55c>)
 8007332:	691b      	ldr	r3, [r3, #16]
 8007334:	2b10      	cmp	r3, #16
 8007336:	f47f ae96 	bne.w	8007066 <oslib_test_003_001_execute+0x1f6>
 800733a:	2001      	movs	r0, #1
 800733c:	e693      	b.n	8007066 <oslib_test_003_001_execute+0x1f6>
    test_assert((pipe1.rdptr != pipe1.buffer) &&
 800733e:	4b23      	ldr	r3, [pc, #140]	; (80073cc <oslib_test_003_001_execute+0x55c>)
 8007340:	691b      	ldr	r3, [r3, #16]
 8007342:	2b0c      	cmp	r3, #12
 8007344:	f47f aeb4 	bne.w	80070b0 <oslib_test_003_001_execute+0x240>
 8007348:	2001      	movs	r0, #1
 800734a:	e6b1      	b.n	80070b0 <oslib_test_003_001_execute+0x240>
 800734c:	2000      	movs	r0, #0
 800734e:	e6af      	b.n	80070b0 <oslib_test_003_001_execute+0x240>
    test_assert((pipe1.rdptr == pipe1.buffer) &&
 8007350:	4a1e      	ldr	r2, [pc, #120]	; (80073cc <oslib_test_003_001_execute+0x55c>)
 8007352:	6892      	ldr	r2, [r2, #8]
 8007354:	4293      	cmp	r3, r2
 8007356:	d001      	beq.n	800735c <oslib_test_003_001_execute+0x4ec>
 8007358:	2000      	movs	r0, #0
 800735a:	e6d7      	b.n	800710c <oslib_test_003_001_execute+0x29c>
 800735c:	4b1b      	ldr	r3, [pc, #108]	; (80073cc <oslib_test_003_001_execute+0x55c>)
 800735e:	691b      	ldr	r3, [r3, #16]
 8007360:	2b00      	cmp	r3, #0
 8007362:	f47f aed3 	bne.w	800710c <oslib_test_003_001_execute+0x29c>
 8007366:	2001      	movs	r0, #1
 8007368:	e6d0      	b.n	800710c <oslib_test_003_001_execute+0x29c>
    test_assert((pipe1.rdptr != pipe1.wrptr) &&
 800736a:	4b18      	ldr	r3, [pc, #96]	; (80073cc <oslib_test_003_001_execute+0x55c>)
 800736c:	691b      	ldr	r3, [r3, #16]
 800736e:	2b05      	cmp	r3, #5
 8007370:	f47f aeff 	bne.w	8007172 <oslib_test_003_001_execute+0x302>
 8007374:	2001      	movs	r0, #1
 8007376:	e6fc      	b.n	8007172 <oslib_test_003_001_execute+0x302>
 8007378:	2000      	movs	r0, #0
 800737a:	e6fa      	b.n	8007172 <oslib_test_003_001_execute+0x302>
    test_assert((pipe1.rdptr == pipe1.wrptr) &&
 800737c:	4a13      	ldr	r2, [pc, #76]	; (80073cc <oslib_test_003_001_execute+0x55c>)
 800737e:	6812      	ldr	r2, [r2, #0]
 8007380:	4293      	cmp	r3, r2
 8007382:	d006      	beq.n	8007392 <oslib_test_003_001_execute+0x522>
 8007384:	4b11      	ldr	r3, [pc, #68]	; (80073cc <oslib_test_003_001_execute+0x55c>)
 8007386:	691b      	ldr	r3, [r3, #16]
 8007388:	2b00      	cmp	r3, #0
 800738a:	f47f af21 	bne.w	80071d0 <oslib_test_003_001_execute+0x360>
 800738e:	2001      	movs	r0, #1
 8007390:	e71e      	b.n	80071d0 <oslib_test_003_001_execute+0x360>
 8007392:	2000      	movs	r0, #0
 8007394:	e71c      	b.n	80071d0 <oslib_test_003_001_execute+0x360>
    test_assert((pipe1.rdptr == pipe1.wrptr) &&
 8007396:	4a0d      	ldr	r2, [pc, #52]	; (80073cc <oslib_test_003_001_execute+0x55c>)
 8007398:	6812      	ldr	r2, [r2, #0]
 800739a:	4293      	cmp	r3, r2
 800739c:	d006      	beq.n	80073ac <oslib_test_003_001_execute+0x53c>
 800739e:	4b0b      	ldr	r3, [pc, #44]	; (80073cc <oslib_test_003_001_execute+0x55c>)
 80073a0:	691b      	ldr	r3, [r3, #16]
 80073a2:	2b10      	cmp	r3, #16
 80073a4:	f47f af42 	bne.w	800722c <oslib_test_003_001_execute+0x3bc>
 80073a8:	2001      	movs	r0, #1
 80073aa:	e73f      	b.n	800722c <oslib_test_003_001_execute+0x3bc>
 80073ac:	2000      	movs	r0, #0
 80073ae:	e73d      	b.n	800722c <oslib_test_003_001_execute+0x3bc>
    test_assert((pipe1.rdptr == pipe1.wrptr) &&
 80073b0:	4a06      	ldr	r2, [pc, #24]	; (80073cc <oslib_test_003_001_execute+0x55c>)
 80073b2:	6812      	ldr	r2, [r2, #0]
 80073b4:	4293      	cmp	r3, r2
 80073b6:	d006      	beq.n	80073c6 <oslib_test_003_001_execute+0x556>
 80073b8:	4b04      	ldr	r3, [pc, #16]	; (80073cc <oslib_test_003_001_execute+0x55c>)
 80073ba:	691b      	ldr	r3, [r3, #16]
 80073bc:	2b00      	cmp	r3, #0
 80073be:	f47f af55 	bne.w	800726c <oslib_test_003_001_execute+0x3fc>
 80073c2:	2001      	movs	r0, #1
 80073c4:	e752      	b.n	800726c <oslib_test_003_001_execute+0x3fc>
 80073c6:	2000      	movs	r0, #0
 80073c8:	e750      	b.n	800726c <oslib_test_003_001_execute+0x3fc>
 80073ca:	bf00      	nop
 80073cc:	2000088c 	.word	0x2000088c
 80073d0:	0800c830 	.word	0x0800c830
 80073d4:	0800c83c 	.word	0x0800c83c
 80073d8:	0800db00 	.word	0x0800db00
 80073dc:	0800cb80 	.word	0x0800cb80
 80073e0:	20001a7c 	.word	0x20001a7c
	...

080073f0 <chThdExit>:
void chThdExit(msg_t msg) {
 80073f0:	b508      	push	{r3, lr}
 80073f2:	2320      	movs	r3, #32
 80073f4:	f383 8811 	msr	BASEPRI, r3
  chThdExitS(msg);
 80073f8:	f7fd fc92 	bl	8004d20 <chThdExitS>
}
 80073fc:	bd08      	pop	{r3, pc}
 80073fe:	bf00      	nop

08007400 <Thread1.lto_priv.1>:

static THD_WORKING_AREA(waThread1, 256);
static THD_FUNCTION(Thread1, arg) {
 8007400:	b508      	push	{r3, lr}

  (void)arg;

  exit_flag = false;
 8007402:	4b07      	ldr	r3, [pc, #28]	; (8007420 <Thread1.lto_priv.1+0x20>)
 8007404:	2200      	movs	r2, #0
 8007406:	701a      	strb	r2, [r3, #0]
  do {
    chDelegateDispatch();
 8007408:	f7fa ff62 	bl	80022d0 <chDelegateDispatch>
  } while (!exit_flag);
 800740c:	4b04      	ldr	r3, [pc, #16]	; (8007420 <Thread1.lto_priv.1+0x20>)
 800740e:	781b      	ldrb	r3, [r3, #0]
 8007410:	2b00      	cmp	r3, #0
 8007412:	d0f9      	beq.n	8007408 <Thread1.lto_priv.1+0x8>

  chThdExit(0x0FA5);
 8007414:	f640 70a5 	movw	r0, #4005	; 0xfa5
 8007418:	f7ff ffea 	bl	80073f0 <chThdExit>
}
 800741c:	bd08      	pop	{r3, pc}
 800741e:	bf00      	nop
 8007420:	20001124 	.word	0x20001124
	...

08007430 <bmk_thread3>:
static THD_FUNCTION(bmk_thread3, p) {
 8007430:	b508      	push	{r3, lr}
  chThdExit((msg_t)p);
 8007432:	f7ff ffdd 	bl	80073f0 <chThdExit>
}
 8007436:	bd08      	pop	{r3, pc}
	...

08007440 <_thread_init>:
thread_t *_thread_init(thread_t *tp, const char *name, tprio_t prio) {
 8007440:	b410      	push	{r4}
  tp->prio      = prio;
 8007442:	6082      	str	r2, [r0, #8]
  tp->state     = CH_STATE_WTSTART;
 8007444:	2402      	movs	r4, #2
 8007446:	f880 4020 	strb.w	r4, [r0, #32]
  tp->flags     = CH_FLAG_MODE_STATIC;
 800744a:	2400      	movs	r4, #0
 800744c:	f880 4021 	strb.w	r4, [r0, #33]	; 0x21
  tp->realprio  = prio;
 8007450:	63c2      	str	r2, [r0, #60]	; 0x3c
  tp->mtxlist   = NULL;
 8007452:	6384      	str	r4, [r0, #56]	; 0x38
  tp->epending  = (eventmask_t)0;
 8007454:	6344      	str	r4, [r0, #52]	; 0x34
  tp->refs      = (trefs_t)1;
 8007456:	2201      	movs	r2, #1
 8007458:	f880 2022 	strb.w	r2, [r0, #34]	; 0x22
  tp->name      = name;
 800745c:	6181      	str	r1, [r0, #24]
  REG_INSERT(tp);
 800745e:	4a07      	ldr	r2, [pc, #28]	; (800747c <_thread_init+0x3c>)
 8007460:	6102      	str	r2, [r0, #16]
 8007462:	6951      	ldr	r1, [r2, #20]
 8007464:	6141      	str	r1, [r0, #20]
 8007466:	6108      	str	r0, [r1, #16]
 8007468:	6150      	str	r0, [r2, #20]
  list_init(&tp->waiting);
 800746a:	f100 0228 	add.w	r2, r0, #40	; 0x28
  tlp->next = (thread_t *)tlp;
 800746e:	6282      	str	r2, [r0, #40]	; 0x28
  queue_init(&tp->msgqueue);
 8007470:	f100 022c 	add.w	r2, r0, #44	; 0x2c
  tqp->next = (thread_t *)tqp;
 8007474:	62c2      	str	r2, [r0, #44]	; 0x2c
  tqp->prev = (thread_t *)tqp;
 8007476:	6302      	str	r2, [r0, #48]	; 0x30
}
 8007478:	bc10      	pop	{r4}
 800747a:	4770      	bx	lr
 800747c:	20001040 	.word	0x20001040

08007480 <chThdCreateStatic>:
                            tprio_t prio, tfunc_t pf, void *arg) {
 8007480:	b510      	push	{r4, lr}
 8007482:	4604      	mov	r4, r0
 8007484:	2020      	movs	r0, #32
 8007486:	f380 8811 	msr	BASEPRI, r0
  tp = (thread_t *)((uint8_t *)wsp + size -
 800748a:	3948      	subs	r1, #72	; 0x48
 800748c:	1860      	adds	r0, r4, r1
  tp->wabase = (stkalign_t *)wsp;
 800748e:	61c4      	str	r4, [r0, #28]
  PORT_SETUP_CONTEXT(tp, wsp, tp, pf, arg);
 8007490:	f1a0 0124 	sub.w	r1, r0, #36	; 0x24
 8007494:	60c1      	str	r1, [r0, #12]
 8007496:	f840 3c24 	str.w	r3, [r0, #-36]
 800749a:	9b02      	ldr	r3, [sp, #8]
 800749c:	f840 3c20 	str.w	r3, [r0, #-32]
 80074a0:	4b07      	ldr	r3, [pc, #28]	; (80074c0 <chThdCreateStatic+0x40>)
 80074a2:	f840 3c04 	str.w	r3, [r0, #-4]
  tp = _thread_init(tp, "noname", prio);
 80074a6:	4907      	ldr	r1, [pc, #28]	; (80074c4 <chThdCreateStatic+0x44>)
 80074a8:	f7ff ffca 	bl	8007440 <_thread_init>
 80074ac:	4604      	mov	r4, r0
  chSchWakeupS(tp, MSG_OK);
 80074ae:	2100      	movs	r1, #0
 80074b0:	f003 f846 	bl	800a540 <chSchWakeupS>
 80074b4:	2300      	movs	r3, #0
 80074b6:	f383 8811 	msr	BASEPRI, r3
}
 80074ba:	4620      	mov	r0, r4
 80074bc:	bd10      	pop	{r4, pc}
 80074be:	bf00      	nop
 80074c0:	080002d1 	.word	0x080002d1
 80074c4:	0800cb94 	.word	0x0800cb94
	...

080074d0 <rt_test_011_008_execute>:
static void rt_test_011_008_execute(void) {
 80074d0:	e92d 43f0 	stmdb	sp!, {r4, r5, r6, r7, r8, r9, lr}
 80074d4:	b085      	sub	sp, #20
  test_set_step(1);
 80074d6:	f8df 90e4 	ldr.w	r9, [pc, #228]	; 80075bc <rt_test_011_008_execute+0xec>
 80074da:	2301      	movs	r3, #1
 80074dc:	f8c9 3000 	str.w	r3, [r9]
    n = 0;
 80074e0:	2300      	movs	r3, #0
 80074e2:	9303      	str	r3, [sp, #12]
    test_wait_tick();threads[0] = chThdCreateStatic(wa[0], WA_SIZE, chThdGetPriorityX()-1, bmk_thread8, (void *)&n);
 80074e4:	f7fe f8bc 	bl	8005660 <test_wait_tick>
  return ch.rlist.current;
 80074e8:	f8df 80d4 	ldr.w	r8, [pc, #212]	; 80075c0 <rt_test_011_008_execute+0xf0>
 80074ec:	f8d8 3018 	ldr.w	r3, [r8, #24]
  return chThdGetSelfX()->prio;
 80074f0:	689a      	ldr	r2, [r3, #8]
 80074f2:	4e2d      	ldr	r6, [pc, #180]	; (80075a8 <rt_test_011_008_execute+0xd8>)
 80074f4:	4d2d      	ldr	r5, [pc, #180]	; (80075ac <rt_test_011_008_execute+0xdc>)
 80074f6:	af03      	add	r7, sp, #12
 80074f8:	9700      	str	r7, [sp, #0]
 80074fa:	4633      	mov	r3, r6
 80074fc:	3a01      	subs	r2, #1
 80074fe:	f44f 71a4 	mov.w	r1, #328	; 0x148
 8007502:	4628      	mov	r0, r5
 8007504:	f7ff ffbc 	bl	8007480 <chThdCreateStatic>
 8007508:	4c29      	ldr	r4, [pc, #164]	; (80075b0 <rt_test_011_008_execute+0xe0>)
 800750a:	6020      	str	r0, [r4, #0]
  return ch.rlist.current;
 800750c:	f8d8 3018 	ldr.w	r3, [r8, #24]
  return chThdGetSelfX()->prio;
 8007510:	689a      	ldr	r2, [r3, #8]
    threads[1] = chThdCreateStatic(wa[1], WA_SIZE, chThdGetPriorityX()-1, bmk_thread8, (void *)&n);
 8007512:	9700      	str	r7, [sp, #0]
 8007514:	4633      	mov	r3, r6
 8007516:	3a01      	subs	r2, #1
 8007518:	f44f 71a4 	mov.w	r1, #328	; 0x148
 800751c:	1868      	adds	r0, r5, r1
 800751e:	f7ff ffaf 	bl	8007480 <chThdCreateStatic>
 8007522:	6060      	str	r0, [r4, #4]
  return ch.rlist.current;
 8007524:	f8d8 3018 	ldr.w	r3, [r8, #24]
  return chThdGetSelfX()->prio;
 8007528:	689a      	ldr	r2, [r3, #8]
    threads[2] = chThdCreateStatic(wa[2], WA_SIZE, chThdGetPriorityX()-1, bmk_thread8, (void *)&n);
 800752a:	9700      	str	r7, [sp, #0]
 800752c:	4633      	mov	r3, r6
 800752e:	3a01      	subs	r2, #1
 8007530:	f44f 71a4 	mov.w	r1, #328	; 0x148
 8007534:	f505 7024 	add.w	r0, r5, #656	; 0x290
 8007538:	f7ff ffa2 	bl	8007480 <chThdCreateStatic>
 800753c:	60a0      	str	r0, [r4, #8]
  return ch.rlist.current;
 800753e:	f8d8 3018 	ldr.w	r3, [r8, #24]
  return chThdGetSelfX()->prio;
 8007542:	689a      	ldr	r2, [r3, #8]
    threads[3] = chThdCreateStatic(wa[3], WA_SIZE, chThdGetPriorityX()-1, bmk_thread8, (void *)&n);
 8007544:	9700      	str	r7, [sp, #0]
 8007546:	4633      	mov	r3, r6
 8007548:	3a01      	subs	r2, #1
 800754a:	f44f 71a4 	mov.w	r1, #328	; 0x148
 800754e:	f505 7076 	add.w	r0, r5, #984	; 0x3d8
 8007552:	f7ff ff95 	bl	8007480 <chThdCreateStatic>
 8007556:	60e0      	str	r0, [r4, #12]
  return ch.rlist.current;
 8007558:	f8d8 3018 	ldr.w	r3, [r8, #24]
  return chThdGetSelfX()->prio;
 800755c:	689a      	ldr	r2, [r3, #8]
    threads[4] = chThdCreateStatic(wa[4], WA_SIZE, chThdGetPriorityX()-1, bmk_thread8, (void *)&n);
 800755e:	9700      	str	r7, [sp, #0]
 8007560:	4633      	mov	r3, r6
 8007562:	3a01      	subs	r2, #1
 8007564:	f44f 71a4 	mov.w	r1, #328	; 0x148
 8007568:	f505 60a4 	add.w	r0, r5, #1312	; 0x520
 800756c:	f7ff ff88 	bl	8007480 <chThdCreateStatic>
 8007570:	6120      	str	r0, [r4, #16]
  test_set_step(2);
 8007572:	2302      	movs	r3, #2
 8007574:	f8c9 3000 	str.w	r3, [r9]
    chThdSleepSeconds(1);
 8007578:	f242 7010 	movw	r0, #10000	; 0x2710
 800757c:	f7fd ff00 	bl	8005380 <chThdSleep>
    test_terminate_threads();
 8007580:	f7fa fcc6 	bl	8001f10 <test_terminate_threads>
    test_wait_threads();
 8007584:	f7fc fbb4 	bl	8003cf0 <test_wait_threads>
  test_set_step(3);
 8007588:	2303      	movs	r3, #3
 800758a:	f8c9 3000 	str.w	r3, [r9]
    test_print("--- Score : ");
 800758e:	4809      	ldr	r0, [pc, #36]	; (80075b4 <rt_test_011_008_execute+0xe4>)
 8007590:	f7f9 f9de 	bl	8000950 <test_print>
    test_printn(n);
 8007594:	9803      	ldr	r0, [sp, #12]
 8007596:	f7f9 f9fb 	bl	8000990 <test_printn>
    test_println(" ctxswc/S");
 800759a:	4807      	ldr	r0, [pc, #28]	; (80075b8 <rt_test_011_008_execute+0xe8>)
 800759c:	f7f9 f9e8 	bl	8000970 <test_println>
}
 80075a0:	b005      	add	sp, #20
 80075a2:	e8bd 83f0 	ldmia.w	sp!, {r4, r5, r6, r7, r8, r9, pc}
 80075a6:	bf00      	nop
 80075a8:	08005b01 	.word	0x08005b01
 80075ac:	20001368 	.word	0x20001368
 80075b0:	20001a94 	.word	0x20001a94
 80075b4:	0800c8c0 	.word	0x0800c8c0
 80075b8:	0800cb9c 	.word	0x0800cb9c
 80075bc:	20001a7c 	.word	0x20001a7c
 80075c0:	20001040 	.word	0x20001040
	...

080075d0 <rt_test_011_007_execute>:
static void rt_test_011_007_execute(void) {
 80075d0:	e92d 43f0 	stmdb	sp!, {r4, r5, r6, r7, r8, r9, lr}
 80075d4:	b083      	sub	sp, #12
  test_set_step(1);
 80075d6:	f8df 9110 	ldr.w	r9, [pc, #272]	; 80076e8 <rt_test_011_007_execute+0x118>
 80075da:	2301      	movs	r3, #1
 80075dc:	f8c9 3000 	str.w	r3, [r9]
  return ch.rlist.current;
 80075e0:	f8df 8114 	ldr.w	r8, [pc, #276]	; 80076f8 <rt_test_011_007_execute+0x128>
 80075e4:	f8d8 3018 	ldr.w	r3, [r8, #24]
  return chThdGetSelfX()->prio;
 80075e8:	689a      	ldr	r2, [r3, #8]
    threads[0] = chThdCreateStatic(wa[0], WA_SIZE, chThdGetPriorityX()+5, bmk_thread7, NULL);
 80075ea:	4f3b      	ldr	r7, [pc, #236]	; (80076d8 <rt_test_011_007_execute+0x108>)
 80075ec:	4e3b      	ldr	r6, [pc, #236]	; (80076dc <rt_test_011_007_execute+0x10c>)
 80075ee:	2400      	movs	r4, #0
 80075f0:	9400      	str	r4, [sp, #0]
 80075f2:	463b      	mov	r3, r7
 80075f4:	3205      	adds	r2, #5
 80075f6:	f44f 71a4 	mov.w	r1, #328	; 0x148
 80075fa:	4630      	mov	r0, r6
 80075fc:	f7ff ff40 	bl	8007480 <chThdCreateStatic>
 8007600:	4d37      	ldr	r5, [pc, #220]	; (80076e0 <rt_test_011_007_execute+0x110>)
 8007602:	6028      	str	r0, [r5, #0]
  return ch.rlist.current;
 8007604:	f8d8 3018 	ldr.w	r3, [r8, #24]
  return chThdGetSelfX()->prio;
 8007608:	689a      	ldr	r2, [r3, #8]
    threads[1] = chThdCreateStatic(wa[1], WA_SIZE, chThdGetPriorityX()+4, bmk_thread7, NULL);
 800760a:	9400      	str	r4, [sp, #0]
 800760c:	463b      	mov	r3, r7
 800760e:	3204      	adds	r2, #4
 8007610:	f44f 71a4 	mov.w	r1, #328	; 0x148
 8007614:	1870      	adds	r0, r6, r1
 8007616:	f7ff ff33 	bl	8007480 <chThdCreateStatic>
 800761a:	6068      	str	r0, [r5, #4]
  return ch.rlist.current;
 800761c:	f8d8 3018 	ldr.w	r3, [r8, #24]
  return chThdGetSelfX()->prio;
 8007620:	689a      	ldr	r2, [r3, #8]
    threads[2] = chThdCreateStatic(wa[2], WA_SIZE, chThdGetPriorityX()+3, bmk_thread7, NULL);
 8007622:	9400      	str	r4, [sp, #0]
 8007624:	463b      	mov	r3, r7
 8007626:	3203      	adds	r2, #3
 8007628:	f44f 71a4 	mov.w	r1, #328	; 0x148
 800762c:	f506 7024 	add.w	r0, r6, #656	; 0x290
 8007630:	f7ff ff26 	bl	8007480 <chThdCreateStatic>
 8007634:	60a8      	str	r0, [r5, #8]
  return ch.rlist.current;
 8007636:	f8d8 3018 	ldr.w	r3, [r8, #24]
  return chThdGetSelfX()->prio;
 800763a:	689a      	ldr	r2, [r3, #8]
    threads[3] = chThdCreateStatic(wa[3], WA_SIZE, chThdGetPriorityX()+2, bmk_thread7, NULL);
 800763c:	9400      	str	r4, [sp, #0]
 800763e:	463b      	mov	r3, r7
 8007640:	3202      	adds	r2, #2
 8007642:	f44f 71a4 	mov.w	r1, #328	; 0x148
 8007646:	f506 7076 	add.w	r0, r6, #984	; 0x3d8
 800764a:	f7ff ff19 	bl	8007480 <chThdCreateStatic>
 800764e:	60e8      	str	r0, [r5, #12]
  return ch.rlist.current;
 8007650:	f8d8 3018 	ldr.w	r3, [r8, #24]
  return chThdGetSelfX()->prio;
 8007654:	689a      	ldr	r2, [r3, #8]
    threads[4] = chThdCreateStatic(wa[4], WA_SIZE, chThdGetPriorityX()+1, bmk_thread7, NULL);
 8007656:	9400      	str	r4, [sp, #0]
 8007658:	463b      	mov	r3, r7
 800765a:	3201      	adds	r2, #1
 800765c:	f44f 71a4 	mov.w	r1, #328	; 0x148
 8007660:	f506 60a4 	add.w	r0, r6, #1312	; 0x520
 8007664:	f7ff ff0c 	bl	8007480 <chThdCreateStatic>
 8007668:	6128      	str	r0, [r5, #16]
  test_set_step(2);
 800766a:	2302      	movs	r3, #2
 800766c:	f8c9 3000 	str.w	r3, [r9]
    start = test_wait_tick();
 8007670:	f7fd fff6 	bl	8005660 <test_wait_tick>
 8007674:	4605      	mov	r5, r0
 8007676:	f06f 0201 	mvn.w	r2, #1
 800767a:	2100      	movs	r1, #0
 800767c:	4819      	ldr	r0, [pc, #100]	; (80076e4 <rt_test_011_007_execute+0x114>)
 800767e:	f7fd fac7 	bl	8004c10 <chSemResetWithMessage>
      n++;
 8007682:	3401      	adds	r4, #1
 8007684:	f003 fbb4 	bl	800adf0 <stGetCounter>
 8007688:	1b40      	subs	r0, r0, r5
    } while (chVTIsSystemTimeWithinX(start, end));
 800768a:	f242 730f 	movw	r3, #9999	; 0x270f
 800768e:	4298      	cmp	r0, r3
 8007690:	d9f1      	bls.n	8007676 <rt_test_011_007_execute+0xa6>
  test_set_step(3);
 8007692:	4d15      	ldr	r5, [pc, #84]	; (80076e8 <rt_test_011_007_execute+0x118>)
 8007694:	2303      	movs	r3, #3
 8007696:	602b      	str	r3, [r5, #0]
    test_terminate_threads();
 8007698:	f7fa fc3a 	bl	8001f10 <test_terminate_threads>
 800769c:	f06f 0201 	mvn.w	r2, #1
 80076a0:	2100      	movs	r1, #0
 80076a2:	4810      	ldr	r0, [pc, #64]	; (80076e4 <rt_test_011_007_execute+0x114>)
 80076a4:	f7fd fab4 	bl	8004c10 <chSemResetWithMessage>
    test_wait_threads();
 80076a8:	f7fc fb22 	bl	8003cf0 <test_wait_threads>
  test_set_step(4);
 80076ac:	2304      	movs	r3, #4
 80076ae:	602b      	str	r3, [r5, #0]
    test_print("--- Score : ");
 80076b0:	480e      	ldr	r0, [pc, #56]	; (80076ec <rt_test_011_007_execute+0x11c>)
 80076b2:	f7f9 f94d 	bl	8000950 <test_print>
    test_printn(n);
 80076b6:	4620      	mov	r0, r4
 80076b8:	f7f9 f96a 	bl	8000990 <test_printn>
    test_print(" reschedules/S, ");
 80076bc:	480c      	ldr	r0, [pc, #48]	; (80076f0 <rt_test_011_007_execute+0x120>)
 80076be:	f7f9 f947 	bl	8000950 <test_print>
    test_printn(n * 6);
 80076c2:	eb04 0444 	add.w	r4, r4, r4, lsl #1
 80076c6:	0060      	lsls	r0, r4, #1
 80076c8:	f7f9 f962 	bl	8000990 <test_printn>
    test_println(" ctxswc/S");
 80076cc:	4809      	ldr	r0, [pc, #36]	; (80076f4 <rt_test_011_007_execute+0x124>)
 80076ce:	f7f9 f94f 	bl	8000970 <test_println>
}
 80076d2:	b003      	add	sp, #12
 80076d4:	e8bd 83f0 	ldmia.w	sp!, {r4, r5, r6, r7, r8, r9, pc}
 80076d8:	080024f1 	.word	0x080024f1
 80076dc:	20001368 	.word	0x20001368
 80076e0:	20001a94 	.word	0x20001a94
 80076e4:	20001354 	.word	0x20001354
 80076e8:	20001a7c 	.word	0x20001a7c
 80076ec:	0800c8c0 	.word	0x0800c8c0
 80076f0:	0800cba8 	.word	0x0800cba8
 80076f4:	0800cb9c 	.word	0x0800cb9c
 80076f8:	20001040 	.word	0x20001040
 80076fc:	00000000 	.word	0x00000000

08007700 <rt_test_011_006_execute>:
static void rt_test_011_006_execute(void) {
 8007700:	b570      	push	{r4, r5, r6, lr}
 8007702:	b082      	sub	sp, #8
  return ch.rlist.current;
 8007704:	4b15      	ldr	r3, [pc, #84]	; (800775c <rt_test_011_006_execute+0x5c>)
 8007706:	699b      	ldr	r3, [r3, #24]
  return chThdGetSelfX()->prio;
 8007708:	689e      	ldr	r6, [r3, #8]
  tprio_t prio = chThdGetPriorityX() + 1;
 800770a:	3601      	adds	r6, #1
  test_set_step(1);
 800770c:	4b14      	ldr	r3, [pc, #80]	; (8007760 <rt_test_011_006_execute+0x60>)
 800770e:	2201      	movs	r2, #1
 8007710:	601a      	str	r2, [r3, #0]
    start = test_wait_tick();
 8007712:	f7fd ffa5 	bl	8005660 <test_wait_tick>
 8007716:	4605      	mov	r5, r0
    n = 0;
 8007718:	2400      	movs	r4, #0
      chThdRelease(chThdCreateStatic(wa[0], WA_SIZE, prio, bmk_thread3, NULL));
 800771a:	2300      	movs	r3, #0
 800771c:	9300      	str	r3, [sp, #0]
 800771e:	4b11      	ldr	r3, [pc, #68]	; (8007764 <rt_test_011_006_execute+0x64>)
 8007720:	4632      	mov	r2, r6
 8007722:	f44f 71a4 	mov.w	r1, #328	; 0x148
 8007726:	4810      	ldr	r0, [pc, #64]	; (8007768 <rt_test_011_006_execute+0x68>)
 8007728:	f7ff feaa 	bl	8007480 <chThdCreateStatic>
 800772c:	f7fc fa38 	bl	8003ba0 <chThdRelease>
      n++;
 8007730:	3401      	adds	r4, #1
 8007732:	f003 fb5d 	bl	800adf0 <stGetCounter>
 8007736:	1b40      	subs	r0, r0, r5
    } while (chVTIsSystemTimeWithinX(start, end));
 8007738:	f242 730f 	movw	r3, #9999	; 0x270f
 800773c:	4298      	cmp	r0, r3
 800773e:	d9ec      	bls.n	800771a <rt_test_011_006_execute+0x1a>
  test_set_step(2);
 8007740:	4b07      	ldr	r3, [pc, #28]	; (8007760 <rt_test_011_006_execute+0x60>)
 8007742:	2202      	movs	r2, #2
 8007744:	601a      	str	r2, [r3, #0]
    test_print("--- Score : ");
 8007746:	4809      	ldr	r0, [pc, #36]	; (800776c <rt_test_011_006_execute+0x6c>)
 8007748:	f7f9 f902 	bl	8000950 <test_print>
    test_printn(n);
 800774c:	4620      	mov	r0, r4
 800774e:	f7f9 f91f 	bl	8000990 <test_printn>
    test_println(" threads/S");
 8007752:	4807      	ldr	r0, [pc, #28]	; (8007770 <rt_test_011_006_execute+0x70>)
 8007754:	f7f9 f90c 	bl	8000970 <test_println>
}
 8007758:	b002      	add	sp, #8
 800775a:	bd70      	pop	{r4, r5, r6, pc}
 800775c:	20001040 	.word	0x20001040
 8007760:	20001a7c 	.word	0x20001a7c
 8007764:	08007431 	.word	0x08007431
 8007768:	20001368 	.word	0x20001368
 800776c:	0800c8c0 	.word	0x0800c8c0
 8007770:	0800cbbc 	.word	0x0800cbbc
	...

08007780 <rt_test_011_005_execute>:
static void rt_test_011_005_execute(void) {
 8007780:	b570      	push	{r4, r5, r6, lr}
 8007782:	b082      	sub	sp, #8
  return ch.rlist.current;
 8007784:	4b15      	ldr	r3, [pc, #84]	; (80077dc <rt_test_011_005_execute+0x5c>)
 8007786:	699b      	ldr	r3, [r3, #24]
  return chThdGetSelfX()->prio;
 8007788:	689e      	ldr	r6, [r3, #8]
  tprio_t prio = chThdGetPriorityX() - 1;
 800778a:	3e01      	subs	r6, #1
  test_set_step(1);
 800778c:	4b14      	ldr	r3, [pc, #80]	; (80077e0 <rt_test_011_005_execute+0x60>)
 800778e:	2201      	movs	r2, #1
 8007790:	601a      	str	r2, [r3, #0]
    start = test_wait_tick();
 8007792:	f7fd ff65 	bl	8005660 <test_wait_tick>
 8007796:	4605      	mov	r5, r0
    n = 0;
 8007798:	2400      	movs	r4, #0
      chThdWait(chThdCreateStatic(wa[0], WA_SIZE, prio, bmk_thread3, NULL));
 800779a:	2300      	movs	r3, #0
 800779c:	9300      	str	r3, [sp, #0]
 800779e:	4b11      	ldr	r3, [pc, #68]	; (80077e4 <rt_test_011_005_execute+0x64>)
 80077a0:	4632      	mov	r2, r6
 80077a2:	f44f 71a4 	mov.w	r1, #328	; 0x148
 80077a6:	4810      	ldr	r0, [pc, #64]	; (80077e8 <rt_test_011_005_execute+0x68>)
 80077a8:	f7ff fe6a 	bl	8007480 <chThdCreateStatic>
 80077ac:	f7fc fa80 	bl	8003cb0 <chThdWait>
      n++;
 80077b0:	3401      	adds	r4, #1
 80077b2:	f003 fb1d 	bl	800adf0 <stGetCounter>
 80077b6:	1b40      	subs	r0, r0, r5
    } while (chVTIsSystemTimeWithinX(start, end));
 80077b8:	f242 730f 	movw	r3, #9999	; 0x270f
 80077bc:	4298      	cmp	r0, r3
 80077be:	d9ec      	bls.n	800779a <rt_test_011_005_execute+0x1a>
  test_set_step(2);
 80077c0:	4b07      	ldr	r3, [pc, #28]	; (80077e0 <rt_test_011_005_execute+0x60>)
 80077c2:	2202      	movs	r2, #2
 80077c4:	601a      	str	r2, [r3, #0]
    test_print("--- Score : ");
 80077c6:	4809      	ldr	r0, [pc, #36]	; (80077ec <rt_test_011_005_execute+0x6c>)
 80077c8:	f7f9 f8c2 	bl	8000950 <test_print>
    test_printn(n);
 80077cc:	4620      	mov	r0, r4
 80077ce:	f7f9 f8df 	bl	8000990 <test_printn>
    test_println(" threads/S");
 80077d2:	4807      	ldr	r0, [pc, #28]	; (80077f0 <rt_test_011_005_execute+0x70>)
 80077d4:	f7f9 f8cc 	bl	8000970 <test_println>
}
 80077d8:	b002      	add	sp, #8
 80077da:	bd70      	pop	{r4, r5, r6, pc}
 80077dc:	20001040 	.word	0x20001040
 80077e0:	20001a7c 	.word	0x20001a7c
 80077e4:	08007431 	.word	0x08007431
 80077e8:	20001368 	.word	0x20001368
 80077ec:	0800c8c0 	.word	0x0800c8c0
 80077f0:	0800cbbc 	.word	0x0800cbbc
	...

08007800 <rt_test_011_004_execute>:
static void rt_test_011_004_execute(void) {
 8007800:	b570      	push	{r4, r5, r6, lr}
 8007802:	b082      	sub	sp, #8
  test_set_step(1);
 8007804:	4e28      	ldr	r6, [pc, #160]	; (80078a8 <rt_test_011_004_execute+0xa8>)
 8007806:	2301      	movs	r3, #1
 8007808:	6033      	str	r3, [r6, #0]
  return ch.rlist.current;
 800780a:	4b28      	ldr	r3, [pc, #160]	; (80078ac <rt_test_011_004_execute+0xac>)
 800780c:	699b      	ldr	r3, [r3, #24]
  return chThdGetSelfX()->prio;
 800780e:	689a      	ldr	r2, [r3, #8]
    tp = threads[0] = chThdCreateStatic(wa[0], WA_SIZE, chThdGetPriorityX()+1,
 8007810:	2500      	movs	r5, #0
 8007812:	9500      	str	r5, [sp, #0]
 8007814:	4b26      	ldr	r3, [pc, #152]	; (80078b0 <rt_test_011_004_execute+0xb0>)
 8007816:	3201      	adds	r2, #1
 8007818:	f44f 71a4 	mov.w	r1, #328	; 0x148
 800781c:	4825      	ldr	r0, [pc, #148]	; (80078b4 <rt_test_011_004_execute+0xb4>)
 800781e:	f7ff fe2f 	bl	8007480 <chThdCreateStatic>
 8007822:	4604      	mov	r4, r0
 8007824:	4b24      	ldr	r3, [pc, #144]	; (80078b8 <rt_test_011_004_execute+0xb8>)
 8007826:	6018      	str	r0, [r3, #0]
  test_set_step(2);
 8007828:	2302      	movs	r3, #2
 800782a:	6033      	str	r3, [r6, #0]
    start = test_wait_tick();
 800782c:	f7fd ff18 	bl	8005660 <test_wait_tick>
 8007830:	4606      	mov	r6, r0
 8007832:	2320      	movs	r3, #32
 8007834:	f383 8811 	msr	BASEPRI, r3
      chSchWakeupS(tp, MSG_OK);
 8007838:	2100      	movs	r1, #0
 800783a:	4620      	mov	r0, r4
 800783c:	f002 fe80 	bl	800a540 <chSchWakeupS>
      chSchWakeupS(tp, MSG_OK);
 8007840:	2100      	movs	r1, #0
 8007842:	4620      	mov	r0, r4
 8007844:	f002 fe7c 	bl	800a540 <chSchWakeupS>
      chSchWakeupS(tp, MSG_OK);
 8007848:	2100      	movs	r1, #0
 800784a:	4620      	mov	r0, r4
 800784c:	f002 fe78 	bl	800a540 <chSchWakeupS>
      chSchWakeupS(tp, MSG_OK);
 8007850:	2100      	movs	r1, #0
 8007852:	4620      	mov	r0, r4
 8007854:	f002 fe74 	bl	800a540 <chSchWakeupS>
 8007858:	2300      	movs	r3, #0
 800785a:	f383 8811 	msr	BASEPRI, r3
      n += 4;
 800785e:	3504      	adds	r5, #4
 8007860:	f003 fac6 	bl	800adf0 <stGetCounter>
 8007864:	1b80      	subs	r0, r0, r6
    } while (chVTIsSystemTimeWithinX(start, end));
 8007866:	f242 730f 	movw	r3, #9999	; 0x270f
 800786a:	4298      	cmp	r0, r3
 800786c:	d9e1      	bls.n	8007832 <rt_test_011_004_execute+0x32>
  test_set_step(3);
 800786e:	4e0e      	ldr	r6, [pc, #56]	; (80078a8 <rt_test_011_004_execute+0xa8>)
 8007870:	2303      	movs	r3, #3
 8007872:	6033      	str	r3, [r6, #0]
 8007874:	2320      	movs	r3, #32
 8007876:	f383 8811 	msr	BASEPRI, r3
    chSchWakeupS(tp, MSG_TIMEOUT);
 800787a:	f04f 31ff 	mov.w	r1, #4294967295	; 0xffffffff
 800787e:	4620      	mov	r0, r4
 8007880:	f002 fe5e 	bl	800a540 <chSchWakeupS>
 8007884:	2300      	movs	r3, #0
 8007886:	f383 8811 	msr	BASEPRI, r3
    test_wait_threads();
 800788a:	f7fc fa31 	bl	8003cf0 <test_wait_threads>
  test_set_step(4);
 800788e:	2304      	movs	r3, #4
 8007890:	6033      	str	r3, [r6, #0]
    test_print("--- Score : ");
 8007892:	480a      	ldr	r0, [pc, #40]	; (80078bc <rt_test_011_004_execute+0xbc>)
 8007894:	f7f9 f85c 	bl	8000950 <test_print>
    test_printn(n * 2);
 8007898:	0068      	lsls	r0, r5, #1
 800789a:	f7f9 f879 	bl	8000990 <test_printn>
    test_println(" ctxswc/S");
 800789e:	4808      	ldr	r0, [pc, #32]	; (80078c0 <rt_test_011_004_execute+0xc0>)
 80078a0:	f7f9 f866 	bl	8000970 <test_println>
}
 80078a4:	b002      	add	sp, #8
 80078a6:	bd70      	pop	{r4, r5, r6, pc}
 80078a8:	20001a7c 	.word	0x20001a7c
 80078ac:	20001040 	.word	0x20001040
 80078b0:	08002241 	.word	0x08002241
 80078b4:	20001368 	.word	0x20001368
 80078b8:	20001a94 	.word	0x20001a94
 80078bc:	0800c8c0 	.word	0x0800c8c0
 80078c0:	0800cb9c 	.word	0x0800cb9c
	...

080078d0 <rt_test_011_003_execute>:
static void rt_test_011_003_execute(void) {
 80078d0:	e92d 43f0 	stmdb	sp!, {r4, r5, r6, r7, r8, r9, lr}
 80078d4:	b083      	sub	sp, #12
  test_set_step(1);
 80078d6:	f8df 80e8 	ldr.w	r8, [pc, #232]	; 80079c0 <rt_test_011_003_execute+0xf0>
 80078da:	2301      	movs	r3, #1
 80078dc:	f8c8 3000 	str.w	r3, [r8]
  return ch.rlist.current;
 80078e0:	4f30      	ldr	r7, [pc, #192]	; (80079a4 <rt_test_011_003_execute+0xd4>)
 80078e2:	69bb      	ldr	r3, [r7, #24]
  return chThdGetSelfX()->prio;
 80078e4:	689a      	ldr	r2, [r3, #8]
    threads[0] = chThdCreateStatic(wa[0], WA_SIZE, chThdGetPriorityX()+1, bmk_thread1, NULL);
 80078e6:	4d30      	ldr	r5, [pc, #192]	; (80079a8 <rt_test_011_003_execute+0xd8>)
 80078e8:	2600      	movs	r6, #0
 80078ea:	9600      	str	r6, [sp, #0]
 80078ec:	4b2f      	ldr	r3, [pc, #188]	; (80079ac <rt_test_011_003_execute+0xdc>)
 80078ee:	3201      	adds	r2, #1
 80078f0:	f44f 71a4 	mov.w	r1, #328	; 0x148
 80078f4:	4628      	mov	r0, r5
 80078f6:	f7ff fdc3 	bl	8007480 <chThdCreateStatic>
 80078fa:	4c2d      	ldr	r4, [pc, #180]	; (80079b0 <rt_test_011_003_execute+0xe0>)
 80078fc:	6020      	str	r0, [r4, #0]
  test_set_step(2);
 80078fe:	2302      	movs	r3, #2
 8007900:	f8c8 3000 	str.w	r3, [r8]
  return ch.rlist.current;
 8007904:	69bb      	ldr	r3, [r7, #24]
  return chThdGetSelfX()->prio;
 8007906:	689a      	ldr	r2, [r3, #8]
    threads[1] = chThdCreateStatic(wa[1], WA_SIZE, chThdGetPriorityX()-2, bmk_thread3, NULL);
 8007908:	f8df 90b8 	ldr.w	r9, [pc, #184]	; 80079c4 <rt_test_011_003_execute+0xf4>
 800790c:	9600      	str	r6, [sp, #0]
 800790e:	464b      	mov	r3, r9
 8007910:	3a02      	subs	r2, #2
 8007912:	f44f 71a4 	mov.w	r1, #328	; 0x148
 8007916:	1868      	adds	r0, r5, r1
 8007918:	f7ff fdb2 	bl	8007480 <chThdCreateStatic>
 800791c:	6060      	str	r0, [r4, #4]
  return ch.rlist.current;
 800791e:	69bb      	ldr	r3, [r7, #24]
  return chThdGetSelfX()->prio;
 8007920:	689a      	ldr	r2, [r3, #8]
    threads[2] = chThdCreateStatic(wa[2], WA_SIZE, chThdGetPriorityX()-3, bmk_thread3, NULL);
 8007922:	9600      	str	r6, [sp, #0]
 8007924:	464b      	mov	r3, r9
 8007926:	3a03      	subs	r2, #3
 8007928:	f44f 71a4 	mov.w	r1, #328	; 0x148
 800792c:	f505 7024 	add.w	r0, r5, #656	; 0x290
 8007930:	f7ff fda6 	bl	8007480 <chThdCreateStatic>
 8007934:	60a0      	str	r0, [r4, #8]
  return ch.rlist.current;
 8007936:	69bb      	ldr	r3, [r7, #24]
  return chThdGetSelfX()->prio;
 8007938:	689a      	ldr	r2, [r3, #8]
    threads[3] = chThdCreateStatic(wa[3], WA_SIZE, chThdGetPriorityX()-4, bmk_thread3, NULL);
 800793a:	9600      	str	r6, [sp, #0]
 800793c:	464b      	mov	r3, r9
 800793e:	3a04      	subs	r2, #4
 8007940:	f44f 71a4 	mov.w	r1, #328	; 0x148
 8007944:	f505 7076 	add.w	r0, r5, #984	; 0x3d8
 8007948:	f7ff fd9a 	bl	8007480 <chThdCreateStatic>
 800794c:	60e0      	str	r0, [r4, #12]
  return ch.rlist.current;
 800794e:	69bb      	ldr	r3, [r7, #24]
  return chThdGetSelfX()->prio;
 8007950:	689a      	ldr	r2, [r3, #8]
    threads[4] = chThdCreateStatic(wa[4], WA_SIZE, chThdGetPriorityX()-5, bmk_thread3, NULL);
 8007952:	9600      	str	r6, [sp, #0]
 8007954:	464b      	mov	r3, r9
 8007956:	3a05      	subs	r2, #5
 8007958:	f44f 71a4 	mov.w	r1, #328	; 0x148
 800795c:	f505 60a4 	add.w	r0, r5, #1312	; 0x520
 8007960:	f7ff fd8e 	bl	8007480 <chThdCreateStatic>
 8007964:	6120      	str	r0, [r4, #16]
  test_set_step(3);
 8007966:	2303      	movs	r3, #3
 8007968:	f8c8 3000 	str.w	r3, [r8]
    n = msg_loop_test(threads[0]);
 800796c:	6820      	ldr	r0, [r4, #0]
 800796e:	f7fd ff4f 	bl	8005810 <msg_loop_test>
 8007972:	4604      	mov	r4, r0
    test_wait_threads();
 8007974:	f7fc f9bc 	bl	8003cf0 <test_wait_threads>
  test_set_step(4);
 8007978:	2304      	movs	r3, #4
 800797a:	f8c8 3000 	str.w	r3, [r8]
    test_print("--- Score : ");
 800797e:	480d      	ldr	r0, [pc, #52]	; (80079b4 <rt_test_011_003_execute+0xe4>)
 8007980:	f7f8 ffe6 	bl	8000950 <test_print>
    test_printn(n);
 8007984:	4620      	mov	r0, r4
 8007986:	f7f9 f803 	bl	8000990 <test_printn>
    test_print(" msgs/S, ");
 800798a:	480b      	ldr	r0, [pc, #44]	; (80079b8 <rt_test_011_003_execute+0xe8>)
 800798c:	f7f8 ffe0 	bl	8000950 <test_print>
    test_printn(n << 1);
 8007990:	0060      	lsls	r0, r4, #1
 8007992:	f7f8 fffd 	bl	8000990 <test_printn>
    test_println(" ctxswc/S");
 8007996:	4809      	ldr	r0, [pc, #36]	; (80079bc <rt_test_011_003_execute+0xec>)
 8007998:	f7f8 ffea 	bl	8000970 <test_println>
}
 800799c:	b003      	add	sp, #12
 800799e:	e8bd 83f0 	ldmia.w	sp!, {r4, r5, r6, r7, r8, r9, pc}
 80079a2:	bf00      	nop
 80079a4:	20001040 	.word	0x20001040
 80079a8:	20001368 	.word	0x20001368
 80079ac:	080022b1 	.word	0x080022b1
 80079b0:	20001a94 	.word	0x20001a94
 80079b4:	0800c8c0 	.word	0x0800c8c0
 80079b8:	0800cbc8 	.word	0x0800cbc8
 80079bc:	0800cb9c 	.word	0x0800cb9c
 80079c0:	20001a7c 	.word	0x20001a7c
 80079c4:	08007431 	.word	0x08007431
	...

080079d0 <rt_test_011_002_execute>:
static void rt_test_011_002_execute(void) {
 80079d0:	b530      	push	{r4, r5, lr}
 80079d2:	b083      	sub	sp, #12
  test_set_step(1);
 80079d4:	4d15      	ldr	r5, [pc, #84]	; (8007a2c <rt_test_011_002_execute+0x5c>)
 80079d6:	2301      	movs	r3, #1
 80079d8:	602b      	str	r3, [r5, #0]
  return ch.rlist.current;
 80079da:	4b15      	ldr	r3, [pc, #84]	; (8007a30 <rt_test_011_002_execute+0x60>)
 80079dc:	699b      	ldr	r3, [r3, #24]
  return chThdGetSelfX()->prio;
 80079de:	689a      	ldr	r2, [r3, #8]
    threads[0] = chThdCreateStatic(wa[0], WA_SIZE, chThdGetPriorityX()+1, bmk_thread1, NULL);
 80079e0:	2300      	movs	r3, #0
 80079e2:	9300      	str	r3, [sp, #0]
 80079e4:	4b13      	ldr	r3, [pc, #76]	; (8007a34 <rt_test_011_002_execute+0x64>)
 80079e6:	3201      	adds	r2, #1
 80079e8:	f44f 71a4 	mov.w	r1, #328	; 0x148
 80079ec:	4812      	ldr	r0, [pc, #72]	; (8007a38 <rt_test_011_002_execute+0x68>)
 80079ee:	f7ff fd47 	bl	8007480 <chThdCreateStatic>
 80079f2:	4b12      	ldr	r3, [pc, #72]	; (8007a3c <rt_test_011_002_execute+0x6c>)
 80079f4:	6018      	str	r0, [r3, #0]
  test_set_step(2);
 80079f6:	2302      	movs	r3, #2
 80079f8:	602b      	str	r3, [r5, #0]
    n = msg_loop_test(threads[0]);
 80079fa:	f7fd ff09 	bl	8005810 <msg_loop_test>
 80079fe:	4604      	mov	r4, r0
    test_wait_threads();
 8007a00:	f7fc f976 	bl	8003cf0 <test_wait_threads>
  test_set_step(3);
 8007a04:	2303      	movs	r3, #3
 8007a06:	602b      	str	r3, [r5, #0]
    test_print("--- Score : ");
 8007a08:	480d      	ldr	r0, [pc, #52]	; (8007a40 <rt_test_011_002_execute+0x70>)
 8007a0a:	f7f8 ffa1 	bl	8000950 <test_print>
    test_printn(n);
 8007a0e:	4620      	mov	r0, r4
 8007a10:	f7f8 ffbe 	bl	8000990 <test_printn>
    test_print(" msgs/S, ");
 8007a14:	480b      	ldr	r0, [pc, #44]	; (8007a44 <rt_test_011_002_execute+0x74>)
 8007a16:	f7f8 ff9b 	bl	8000950 <test_print>
    test_printn(n << 1);
 8007a1a:	0060      	lsls	r0, r4, #1
 8007a1c:	f7f8 ffb8 	bl	8000990 <test_printn>
    test_println(" ctxswc/S");
 8007a20:	4809      	ldr	r0, [pc, #36]	; (8007a48 <rt_test_011_002_execute+0x78>)
 8007a22:	f7f8 ffa5 	bl	8000970 <test_println>
}
 8007a26:	b003      	add	sp, #12
 8007a28:	bd30      	pop	{r4, r5, pc}
 8007a2a:	bf00      	nop
 8007a2c:	20001a7c 	.word	0x20001a7c
 8007a30:	20001040 	.word	0x20001040
 8007a34:	080022b1 	.word	0x080022b1
 8007a38:	20001368 	.word	0x20001368
 8007a3c:	20001a94 	.word	0x20001a94
 8007a40:	0800c8c0 	.word	0x0800c8c0
 8007a44:	0800cbc8 	.word	0x0800cbc8
 8007a48:	0800cb9c 	.word	0x0800cb9c
 8007a4c:	00000000 	.word	0x00000000

08007a50 <rt_test_011_001_execute>:
static void rt_test_011_001_execute(void) {
 8007a50:	b530      	push	{r4, r5, lr}
 8007a52:	b083      	sub	sp, #12
  test_set_step(1);
 8007a54:	4d15      	ldr	r5, [pc, #84]	; (8007aac <rt_test_011_001_execute+0x5c>)
 8007a56:	2301      	movs	r3, #1
 8007a58:	602b      	str	r3, [r5, #0]
  return ch.rlist.current;
 8007a5a:	4b15      	ldr	r3, [pc, #84]	; (8007ab0 <rt_test_011_001_execute+0x60>)
 8007a5c:	699b      	ldr	r3, [r3, #24]
  return chThdGetSelfX()->prio;
 8007a5e:	689a      	ldr	r2, [r3, #8]
    threads[0] = chThdCreateStatic(wa[0], WA_SIZE, chThdGetPriorityX()-1, bmk_thread1, NULL);
 8007a60:	2300      	movs	r3, #0
 8007a62:	9300      	str	r3, [sp, #0]
 8007a64:	4b13      	ldr	r3, [pc, #76]	; (8007ab4 <rt_test_011_001_execute+0x64>)
 8007a66:	3a01      	subs	r2, #1
 8007a68:	f44f 71a4 	mov.w	r1, #328	; 0x148
 8007a6c:	4812      	ldr	r0, [pc, #72]	; (8007ab8 <rt_test_011_001_execute+0x68>)
 8007a6e:	f7ff fd07 	bl	8007480 <chThdCreateStatic>
 8007a72:	4b12      	ldr	r3, [pc, #72]	; (8007abc <rt_test_011_001_execute+0x6c>)
 8007a74:	6018      	str	r0, [r3, #0]
  test_set_step(2);
 8007a76:	2302      	movs	r3, #2
 8007a78:	602b      	str	r3, [r5, #0]
    n = msg_loop_test(threads[0]);
 8007a7a:	f7fd fec9 	bl	8005810 <msg_loop_test>
 8007a7e:	4604      	mov	r4, r0
    test_wait_threads();
 8007a80:	f7fc f936 	bl	8003cf0 <test_wait_threads>
  test_set_step(3);
 8007a84:	2303      	movs	r3, #3
 8007a86:	602b      	str	r3, [r5, #0]
    test_print("--- Score : ");
 8007a88:	480d      	ldr	r0, [pc, #52]	; (8007ac0 <rt_test_011_001_execute+0x70>)
 8007a8a:	f7f8 ff61 	bl	8000950 <test_print>
    test_printn(n);
 8007a8e:	4620      	mov	r0, r4
 8007a90:	f7f8 ff7e 	bl	8000990 <test_printn>
    test_print(" msgs/S, ");
 8007a94:	480b      	ldr	r0, [pc, #44]	; (8007ac4 <rt_test_011_001_execute+0x74>)
 8007a96:	f7f8 ff5b 	bl	8000950 <test_print>
    test_printn(n << 1);
 8007a9a:	0060      	lsls	r0, r4, #1
 8007a9c:	f7f8 ff78 	bl	8000990 <test_printn>
    test_println(" ctxswc/S");
 8007aa0:	4809      	ldr	r0, [pc, #36]	; (8007ac8 <rt_test_011_001_execute+0x78>)
 8007aa2:	f7f8 ff65 	bl	8000970 <test_println>
}
 8007aa6:	b003      	add	sp, #12
 8007aa8:	bd30      	pop	{r4, r5, pc}
 8007aaa:	bf00      	nop
 8007aac:	20001a7c 	.word	0x20001a7c
 8007ab0:	20001040 	.word	0x20001040
 8007ab4:	080022b1 	.word	0x080022b1
 8007ab8:	20001368 	.word	0x20001368
 8007abc:	20001a94 	.word	0x20001a94
 8007ac0:	0800c8c0 	.word	0x0800c8c0
 8007ac4:	0800cbc8 	.word	0x0800cbc8
 8007ac8:	0800cb9c 	.word	0x0800cb9c
 8007acc:	00000000 	.word	0x00000000

08007ad0 <rt_test_009_007_execute>:

static void rt_test_009_007_execute(void) {
 8007ad0:	b570      	push	{r4, r5, r6, lr}
 8007ad2:	b08c      	sub	sp, #48	; 0x30
  event_listener_t el1, el2;
  systime_t target_time;

  /* [9.7.1] Registering on two event sources associating them with
     flags 1 and 4.*/
  test_set_step(1);
 8007ad4:	4d2f      	ldr	r5, [pc, #188]	; (8007b94 <rt_test_009_007_execute+0xc4>)
 8007ad6:	2201      	movs	r2, #1
 8007ad8:	602a      	str	r2, [r5, #0]
  chEvtRegisterMaskWithFlags(esp, elp, events, (eventflags_t)-1);
 8007ada:	f04f 33ff 	mov.w	r3, #4294967295	; 0xffffffff
 8007ade:	a907      	add	r1, sp, #28
 8007ae0:	482d      	ldr	r0, [pc, #180]	; (8007b98 <rt_test_009_007_execute+0xc8>)
 8007ae2:	f7fa f855 	bl	8001b90 <chEvtRegisterMaskWithFlags>
 8007ae6:	f04f 33ff 	mov.w	r3, #4294967295	; 0xffffffff
 8007aea:	2204      	movs	r2, #4
 8007aec:	a902      	add	r1, sp, #8
 8007aee:	482b      	ldr	r0, [pc, #172]	; (8007b9c <rt_test_009_007_execute+0xcc>)
 8007af0:	f7fa f84e 	bl	8001b90 <chEvtRegisterMaskWithFlags>
  test_end_step(1);

  /* [9.7.2] Getting current time and starting a broadcaster thread,
     the thread broadcast the first Event Source immediately and the
     other after 50mS.*/
  test_set_step(2);
 8007af4:	2302      	movs	r3, #2
 8007af6:	602b      	str	r3, [r5, #0]
  {
    target_time = chTimeAddX(test_wait_tick(), TIME_MS2I(50));
 8007af8:	f7fd fdb2 	bl	8005660 <test_wait_tick>
 8007afc:	4604      	mov	r4, r0
  return systime + (systime_t)interval;
 8007afe:	f500 76fa 	add.w	r6, r0, #500	; 0x1f4
  return ch.rlist.current;
 8007b02:	4b27      	ldr	r3, [pc, #156]	; (8007ba0 <rt_test_009_007_execute+0xd0>)
 8007b04:	699b      	ldr	r3, [r3, #24]
  return chThdGetSelfX()->prio;
 8007b06:	689a      	ldr	r2, [r3, #8]
    threads[0] = chThdCreateStatic(wa[0], WA_SIZE, chThdGetPriorityX() - 1,
 8007b08:	4b26      	ldr	r3, [pc, #152]	; (8007ba4 <rt_test_009_007_execute+0xd4>)
 8007b0a:	9300      	str	r3, [sp, #0]
 8007b0c:	4b26      	ldr	r3, [pc, #152]	; (8007ba8 <rt_test_009_007_execute+0xd8>)
 8007b0e:	3a01      	subs	r2, #1
 8007b10:	f44f 71a4 	mov.w	r1, #328	; 0x148
 8007b14:	4825      	ldr	r0, [pc, #148]	; (8007bac <rt_test_009_007_execute+0xdc>)
 8007b16:	f7ff fcb3 	bl	8007480 <chThdCreateStatic>
 8007b1a:	4b25      	ldr	r3, [pc, #148]	; (8007bb0 <rt_test_009_007_execute+0xe0>)
 8007b1c:	6018      	str	r0, [r3, #0]
  test_end_step(2);

  /* [9.7.3] Calling chEvtWaitAll() then verifying that both event
     flags have been received after 50mS and that the event flags mask
     has been emptied.*/
  test_set_step(3);
 8007b1e:	2303      	movs	r3, #3
 8007b20:	602b      	str	r3, [r5, #0]
  {
    m = chEvtWaitAll(5);
 8007b22:	2005      	movs	r0, #5
 8007b24:	f7fa fbec 	bl	8002300 <chEvtWaitAll>
    test_assert_time_window(target_time,
 8007b28:	4a22      	ldr	r2, [pc, #136]	; (8007bb4 <rt_test_009_007_execute+0xe4>)
 8007b2a:	f504 7102 	add.w	r1, r4, #520	; 0x208
 8007b2e:	4630      	mov	r0, r6
 8007b30:	f7fa fb16 	bl	8002160 <_test_assert_time_window>
 8007b34:	b108      	cbz	r0, 8007b3a <rt_test_009_007_execute+0x6a>
    chEvtUnregister(&es2, &el2);
    test_assert(!chEvtIsListeningI(&es1), "stuck listener");
    test_assert(!chEvtIsListeningI(&es2), "stuck listener");
  }
  test_end_step(4);
}
 8007b36:	b00c      	add	sp, #48	; 0x30
 8007b38:	bd70      	pop	{r4, r5, r6, pc}
    m = chEvtGetAndClearEvents(ALL_EVENTS);
 8007b3a:	f04f 30ff 	mov.w	r0, #4294967295	; 0xffffffff
 8007b3e:	f7f9 ffcf 	bl	8001ae0 <chEvtGetAndClearEvents>
    test_assert(m == 0, "stuck event");
 8007b42:	491d      	ldr	r1, [pc, #116]	; (8007bb8 <rt_test_009_007_execute+0xe8>)
 8007b44:	fab0 f080 	clz	r0, r0
 8007b48:	0940      	lsrs	r0, r0, #5
 8007b4a:	f7f9 fb51 	bl	80011f0 <_test_assert>
 8007b4e:	2800      	cmp	r0, #0
 8007b50:	d1f1      	bne.n	8007b36 <rt_test_009_007_execute+0x66>
    test_wait_threads();
 8007b52:	f7fc f8cd 	bl	8003cf0 <test_wait_threads>
  test_set_step(4);
 8007b56:	2204      	movs	r2, #4
 8007b58:	602a      	str	r2, [r5, #0]
    chEvtUnregister(&es1, &el1);
 8007b5a:	4c0f      	ldr	r4, [pc, #60]	; (8007b98 <rt_test_009_007_execute+0xc8>)
 8007b5c:	a907      	add	r1, sp, #28
 8007b5e:	4620      	mov	r0, r4
 8007b60:	f7fa f806 	bl	8001b70 <chEvtUnregister>
    chEvtUnregister(&es2, &el2);
 8007b64:	a902      	add	r1, sp, #8
 8007b66:	480d      	ldr	r0, [pc, #52]	; (8007b9c <rt_test_009_007_execute+0xcc>)
 8007b68:	f7fa f802 	bl	8001b70 <chEvtUnregister>
  return (bool)(esp != (event_source_t *)esp->next);
 8007b6c:	6820      	ldr	r0, [r4, #0]
    test_assert(!chEvtIsListeningI(&es1), "stuck listener");
 8007b6e:	4913      	ldr	r1, [pc, #76]	; (8007bbc <rt_test_009_007_execute+0xec>)
 8007b70:	42a0      	cmp	r0, r4
 8007b72:	bf14      	ite	ne
 8007b74:	2000      	movne	r0, #0
 8007b76:	2001      	moveq	r0, #1
 8007b78:	f7f9 fb3a 	bl	80011f0 <_test_assert>
 8007b7c:	2800      	cmp	r0, #0
 8007b7e:	d1da      	bne.n	8007b36 <rt_test_009_007_execute+0x66>
 8007b80:	4b06      	ldr	r3, [pc, #24]	; (8007b9c <rt_test_009_007_execute+0xcc>)
 8007b82:	6818      	ldr	r0, [r3, #0]
    test_assert(!chEvtIsListeningI(&es2), "stuck listener");
 8007b84:	490d      	ldr	r1, [pc, #52]	; (8007bbc <rt_test_009_007_execute+0xec>)
 8007b86:	4298      	cmp	r0, r3
 8007b88:	bf14      	ite	ne
 8007b8a:	2000      	movne	r0, #0
 8007b8c:	2001      	moveq	r0, #1
 8007b8e:	f7f9 fb2f 	bl	80011f0 <_test_assert>
 8007b92:	e7d0      	b.n	8007b36 <rt_test_009_007_execute+0x66>
 8007b94:	20001a7c 	.word	0x20001a7c
 8007b98:	20000808 	.word	0x20000808
 8007b9c:	2000080c 	.word	0x2000080c
 8007ba0:	20001040 	.word	0x20001040
 8007ba4:	0800cbd4 	.word	0x0800cbd4
 8007ba8:	08005e21 	.word	0x08005e21
 8007bac:	20001368 	.word	0x20001368
 8007bb0:	20001a94 	.word	0x20001a94
 8007bb4:	0800c898 	.word	0x0800c898
 8007bb8:	0800cbd8 	.word	0x0800cbd8
 8007bbc:	0800c138 	.word	0x0800c138

08007bc0 <rt_test_009_005_execute>:
static void rt_test_009_005_execute(void) {
 8007bc0:	b570      	push	{r4, r5, r6, lr}
 8007bc2:	b082      	sub	sp, #8
  test_set_step(1);
 8007bc4:	4c2f      	ldr	r4, [pc, #188]	; (8007c84 <rt_test_009_005_execute+0xc4>)
 8007bc6:	2301      	movs	r3, #1
 8007bc8:	6023      	str	r3, [r4, #0]
    chEvtAddEvents(5);
 8007bca:	2005      	movs	r0, #5
 8007bcc:	f7f9 ff68 	bl	8001aa0 <chEvtAddEvents>
  test_set_step(2);
 8007bd0:	2302      	movs	r3, #2
 8007bd2:	6023      	str	r3, [r4, #0]
    m = chEvtWaitAll(5);
 8007bd4:	2005      	movs	r0, #5
 8007bd6:	f7fa fb93 	bl	8002300 <chEvtWaitAll>
    test_assert(m == 5, "unexpected pending bit");
 8007bda:	492b      	ldr	r1, [pc, #172]	; (8007c88 <rt_test_009_005_execute+0xc8>)
 8007bdc:	2805      	cmp	r0, #5
 8007bde:	bf14      	ite	ne
 8007be0:	2000      	movne	r0, #0
 8007be2:	2001      	moveq	r0, #1
 8007be4:	f7f9 fb04 	bl	80011f0 <_test_assert>
 8007be8:	b108      	cbz	r0, 8007bee <rt_test_009_005_execute+0x2e>
}
 8007bea:	b002      	add	sp, #8
 8007bec:	bd70      	pop	{r4, r5, r6, pc}
    m = chEvtGetAndClearEvents(ALL_EVENTS);
 8007bee:	f04f 30ff 	mov.w	r0, #4294967295	; 0xffffffff
 8007bf2:	f7f9 ff75 	bl	8001ae0 <chEvtGetAndClearEvents>
    test_assert(m == 0, "stuck event");
 8007bf6:	4925      	ldr	r1, [pc, #148]	; (8007c8c <rt_test_009_005_execute+0xcc>)
 8007bf8:	fab0 f080 	clz	r0, r0
 8007bfc:	0940      	lsrs	r0, r0, #5
 8007bfe:	f7f9 faf7 	bl	80011f0 <_test_assert>
 8007c02:	2800      	cmp	r0, #0
 8007c04:	d1f1      	bne.n	8007bea <rt_test_009_005_execute+0x2a>
  test_set_step(3);
 8007c06:	4625      	mov	r5, r4
 8007c08:	2303      	movs	r3, #3
 8007c0a:	6023      	str	r3, [r4, #0]
    chEvtAddEvents(4);
 8007c0c:	2004      	movs	r0, #4
 8007c0e:	f7f9 ff47 	bl	8001aa0 <chEvtAddEvents>
  test_set_step(4);
 8007c12:	2304      	movs	r3, #4
 8007c14:	6023      	str	r3, [r4, #0]
    target_time = chTimeAddX(test_wait_tick(), TIME_MS2I(50));
 8007c16:	f7fd fd23 	bl	8005660 <test_wait_tick>
 8007c1a:	4604      	mov	r4, r0
 8007c1c:	f500 76fa 	add.w	r6, r0, #500	; 0x1f4
  return ch.rlist.current;
 8007c20:	4b1b      	ldr	r3, [pc, #108]	; (8007c90 <rt_test_009_005_execute+0xd0>)
 8007c22:	699b      	ldr	r3, [r3, #24]
  return chThdGetSelfX()->prio;
 8007c24:	689a      	ldr	r2, [r3, #8]
    threads[0] = chThdCreateStatic(wa[0], WA_SIZE, chThdGetPriorityX() - 1,
 8007c26:	9300      	str	r3, [sp, #0]
 8007c28:	4b1a      	ldr	r3, [pc, #104]	; (8007c94 <rt_test_009_005_execute+0xd4>)
 8007c2a:	3a01      	subs	r2, #1
 8007c2c:	f44f 71a4 	mov.w	r1, #328	; 0x148
 8007c30:	4819      	ldr	r0, [pc, #100]	; (8007c98 <rt_test_009_005_execute+0xd8>)
 8007c32:	f7ff fc25 	bl	8007480 <chThdCreateStatic>
 8007c36:	4b19      	ldr	r3, [pc, #100]	; (8007c9c <rt_test_009_005_execute+0xdc>)
 8007c38:	6018      	str	r0, [r3, #0]
  test_set_step(5);
 8007c3a:	2005      	movs	r0, #5
 8007c3c:	6028      	str	r0, [r5, #0]
    m = chEvtWaitAll(5);
 8007c3e:	f7fa fb5f 	bl	8002300 <chEvtWaitAll>
 8007c42:	4605      	mov	r5, r0
    test_assert_time_window(target_time,
 8007c44:	4a16      	ldr	r2, [pc, #88]	; (8007ca0 <rt_test_009_005_execute+0xe0>)
 8007c46:	f504 7102 	add.w	r1, r4, #520	; 0x208
 8007c4a:	4630      	mov	r0, r6
 8007c4c:	f7fa fa88 	bl	8002160 <_test_assert_time_window>
 8007c50:	2800      	cmp	r0, #0
 8007c52:	d1ca      	bne.n	8007bea <rt_test_009_005_execute+0x2a>
    test_assert(m == 5, "event flags error");
 8007c54:	4913      	ldr	r1, [pc, #76]	; (8007ca4 <rt_test_009_005_execute+0xe4>)
 8007c56:	2d05      	cmp	r5, #5
 8007c58:	bf14      	ite	ne
 8007c5a:	2000      	movne	r0, #0
 8007c5c:	2001      	moveq	r0, #1
 8007c5e:	f7f9 fac7 	bl	80011f0 <_test_assert>
 8007c62:	2800      	cmp	r0, #0
 8007c64:	d1c1      	bne.n	8007bea <rt_test_009_005_execute+0x2a>
    m = chEvtGetAndClearEvents(ALL_EVENTS);
 8007c66:	f04f 30ff 	mov.w	r0, #4294967295	; 0xffffffff
 8007c6a:	f7f9 ff39 	bl	8001ae0 <chEvtGetAndClearEvents>
    test_assert(m == 0, "stuck event");
 8007c6e:	4907      	ldr	r1, [pc, #28]	; (8007c8c <rt_test_009_005_execute+0xcc>)
 8007c70:	fab0 f080 	clz	r0, r0
 8007c74:	0940      	lsrs	r0, r0, #5
 8007c76:	f7f9 fabb 	bl	80011f0 <_test_assert>
 8007c7a:	2800      	cmp	r0, #0
 8007c7c:	d1b5      	bne.n	8007bea <rt_test_009_005_execute+0x2a>
    test_wait_threads();
 8007c7e:	f7fc f837 	bl	8003cf0 <test_wait_threads>
  test_end_step(5);
 8007c82:	e7b2      	b.n	8007bea <rt_test_009_005_execute+0x2a>
 8007c84:	20001a7c 	.word	0x20001a7c
 8007c88:	0800cbe4 	.word	0x0800cbe4
 8007c8c:	0800cbd8 	.word	0x0800cbd8
 8007c90:	20001040 	.word	0x20001040
 8007c94:	08005421 	.word	0x08005421
 8007c98:	20001368 	.word	0x20001368
 8007c9c:	20001a94 	.word	0x20001a94
 8007ca0:	0800c898 	.word	0x0800c898
 8007ca4:	0800cbfc 	.word	0x0800cbfc
	...

08007cb0 <rt_test_009_004_execute>:
static void rt_test_009_004_execute(void) {
 8007cb0:	b570      	push	{r4, r5, r6, lr}
 8007cb2:	b082      	sub	sp, #8
  test_set_step(1);
 8007cb4:	4c2e      	ldr	r4, [pc, #184]	; (8007d70 <rt_test_009_004_execute+0xc0>)
 8007cb6:	2301      	movs	r3, #1
 8007cb8:	6023      	str	r3, [r4, #0]
    chEvtAddEvents(5);
 8007cba:	2005      	movs	r0, #5
 8007cbc:	f7f9 fef0 	bl	8001aa0 <chEvtAddEvents>
  test_set_step(2);
 8007cc0:	2302      	movs	r3, #2
 8007cc2:	6023      	str	r3, [r4, #0]
    m = chEvtWaitAny(ALL_EVENTS);
 8007cc4:	f04f 30ff 	mov.w	r0, #4294967295	; 0xffffffff
 8007cc8:	f7fa fb3a 	bl	8002340 <chEvtWaitAny>
    test_assert(m == 5, "unexpected pending bit");
 8007ccc:	4929      	ldr	r1, [pc, #164]	; (8007d74 <rt_test_009_004_execute+0xc4>)
 8007cce:	2805      	cmp	r0, #5
 8007cd0:	bf14      	ite	ne
 8007cd2:	2000      	movne	r0, #0
 8007cd4:	2001      	moveq	r0, #1
 8007cd6:	f7f9 fa8b 	bl	80011f0 <_test_assert>
 8007cda:	b108      	cbz	r0, 8007ce0 <rt_test_009_004_execute+0x30>
}
 8007cdc:	b002      	add	sp, #8
 8007cde:	bd70      	pop	{r4, r5, r6, pc}
    m = chEvtGetAndClearEvents(ALL_EVENTS);
 8007ce0:	f04f 30ff 	mov.w	r0, #4294967295	; 0xffffffff
 8007ce4:	f7f9 fefc 	bl	8001ae0 <chEvtGetAndClearEvents>
    test_assert(m == 0, "stuck event");
 8007ce8:	4923      	ldr	r1, [pc, #140]	; (8007d78 <rt_test_009_004_execute+0xc8>)
 8007cea:	fab0 f080 	clz	r0, r0
 8007cee:	0940      	lsrs	r0, r0, #5
 8007cf0:	f7f9 fa7e 	bl	80011f0 <_test_assert>
 8007cf4:	2800      	cmp	r0, #0
 8007cf6:	d1f1      	bne.n	8007cdc <rt_test_009_004_execute+0x2c>
  test_set_step(3);
 8007cf8:	4625      	mov	r5, r4
 8007cfa:	2303      	movs	r3, #3
 8007cfc:	6023      	str	r3, [r4, #0]
    target_time = chTimeAddX(test_wait_tick(), TIME_MS2I(50));
 8007cfe:	f7fd fcaf 	bl	8005660 <test_wait_tick>
 8007d02:	4604      	mov	r4, r0
 8007d04:	f500 76fa 	add.w	r6, r0, #500	; 0x1f4
  return ch.rlist.current;
 8007d08:	4b1c      	ldr	r3, [pc, #112]	; (8007d7c <rt_test_009_004_execute+0xcc>)
 8007d0a:	699b      	ldr	r3, [r3, #24]
  return chThdGetSelfX()->prio;
 8007d0c:	689a      	ldr	r2, [r3, #8]
    threads[0] = chThdCreateStatic(wa[0], WA_SIZE, chThdGetPriorityX() - 1,
 8007d0e:	9300      	str	r3, [sp, #0]
 8007d10:	4b1b      	ldr	r3, [pc, #108]	; (8007d80 <rt_test_009_004_execute+0xd0>)
 8007d12:	3a01      	subs	r2, #1
 8007d14:	f44f 71a4 	mov.w	r1, #328	; 0x148
 8007d18:	481a      	ldr	r0, [pc, #104]	; (8007d84 <rt_test_009_004_execute+0xd4>)
 8007d1a:	f7ff fbb1 	bl	8007480 <chThdCreateStatic>
 8007d1e:	4b1a      	ldr	r3, [pc, #104]	; (8007d88 <rt_test_009_004_execute+0xd8>)
 8007d20:	6018      	str	r0, [r3, #0]
  test_set_step(4);
 8007d22:	2304      	movs	r3, #4
 8007d24:	602b      	str	r3, [r5, #0]
    m = chEvtWaitAny(ALL_EVENTS);
 8007d26:	f04f 30ff 	mov.w	r0, #4294967295	; 0xffffffff
 8007d2a:	f7fa fb09 	bl	8002340 <chEvtWaitAny>
 8007d2e:	4605      	mov	r5, r0
    test_assert_time_window(target_time,
 8007d30:	4a16      	ldr	r2, [pc, #88]	; (8007d8c <rt_test_009_004_execute+0xdc>)
 8007d32:	f504 7102 	add.w	r1, r4, #520	; 0x208
 8007d36:	4630      	mov	r0, r6
 8007d38:	f7fa fa12 	bl	8002160 <_test_assert_time_window>
 8007d3c:	2800      	cmp	r0, #0
 8007d3e:	d1cd      	bne.n	8007cdc <rt_test_009_004_execute+0x2c>
    test_assert(m == 1, "event flag error");
 8007d40:	4913      	ldr	r1, [pc, #76]	; (8007d90 <rt_test_009_004_execute+0xe0>)
 8007d42:	2d01      	cmp	r5, #1
 8007d44:	bf14      	ite	ne
 8007d46:	2000      	movne	r0, #0
 8007d48:	2001      	moveq	r0, #1
 8007d4a:	f7f9 fa51 	bl	80011f0 <_test_assert>
 8007d4e:	2800      	cmp	r0, #0
 8007d50:	d1c4      	bne.n	8007cdc <rt_test_009_004_execute+0x2c>
    m = chEvtGetAndClearEvents(ALL_EVENTS);
 8007d52:	f04f 30ff 	mov.w	r0, #4294967295	; 0xffffffff
 8007d56:	f7f9 fec3 	bl	8001ae0 <chEvtGetAndClearEvents>
    test_assert(m == 0, "stuck event");
 8007d5a:	4907      	ldr	r1, [pc, #28]	; (8007d78 <rt_test_009_004_execute+0xc8>)
 8007d5c:	fab0 f080 	clz	r0, r0
 8007d60:	0940      	lsrs	r0, r0, #5
 8007d62:	f7f9 fa45 	bl	80011f0 <_test_assert>
 8007d66:	2800      	cmp	r0, #0
 8007d68:	d1b8      	bne.n	8007cdc <rt_test_009_004_execute+0x2c>
    test_wait_threads();
 8007d6a:	f7fb ffc1 	bl	8003cf0 <test_wait_threads>
  test_end_step(4);
 8007d6e:	e7b5      	b.n	8007cdc <rt_test_009_004_execute+0x2c>
 8007d70:	20001a7c 	.word	0x20001a7c
 8007d74:	0800cbe4 	.word	0x0800cbe4
 8007d78:	0800cbd8 	.word	0x0800cbd8
 8007d7c:	20001040 	.word	0x20001040
 8007d80:	08005421 	.word	0x08005421
 8007d84:	20001368 	.word	0x20001368
 8007d88:	20001a94 	.word	0x20001a94
 8007d8c:	0800c898 	.word	0x0800c898
 8007d90:	0800cc10 	.word	0x0800cc10
	...

08007da0 <rt_test_009_003_execute>:
static void rt_test_009_003_execute(void) {
 8007da0:	b570      	push	{r4, r5, r6, lr}
 8007da2:	b082      	sub	sp, #8
  test_set_step(1);
 8007da4:	4c3b      	ldr	r4, [pc, #236]	; (8007e94 <rt_test_009_003_execute+0xf4>)
 8007da6:	2301      	movs	r3, #1
 8007da8:	6023      	str	r3, [r4, #0]
    chEvtAddEvents(7);
 8007daa:	2007      	movs	r0, #7
 8007dac:	f7f9 fe78 	bl	8001aa0 <chEvtAddEvents>
  test_set_step(2);
 8007db0:	2302      	movs	r3, #2
 8007db2:	6023      	str	r3, [r4, #0]
    m = chEvtWaitOne(ALL_EVENTS);
 8007db4:	f04f 30ff 	mov.w	r0, #4294967295	; 0xffffffff
 8007db8:	f7fa fae2 	bl	8002380 <chEvtWaitOne>
    test_assert(m == 1, "single event error");
 8007dbc:	4936      	ldr	r1, [pc, #216]	; (8007e98 <rt_test_009_003_execute+0xf8>)
 8007dbe:	2801      	cmp	r0, #1
 8007dc0:	bf14      	ite	ne
 8007dc2:	2000      	movne	r0, #0
 8007dc4:	2001      	moveq	r0, #1
 8007dc6:	f7f9 fa13 	bl	80011f0 <_test_assert>
 8007dca:	b108      	cbz	r0, 8007dd0 <rt_test_009_003_execute+0x30>
}
 8007dcc:	b002      	add	sp, #8
 8007dce:	bd70      	pop	{r4, r5, r6, pc}
    m = chEvtWaitOne(ALL_EVENTS);
 8007dd0:	f04f 30ff 	mov.w	r0, #4294967295	; 0xffffffff
 8007dd4:	f7fa fad4 	bl	8002380 <chEvtWaitOne>
    test_assert(m == 2, "single event error");
 8007dd8:	492f      	ldr	r1, [pc, #188]	; (8007e98 <rt_test_009_003_execute+0xf8>)
 8007dda:	2802      	cmp	r0, #2
 8007ddc:	bf14      	ite	ne
 8007dde:	2000      	movne	r0, #0
 8007de0:	2001      	moveq	r0, #1
 8007de2:	f7f9 fa05 	bl	80011f0 <_test_assert>
 8007de6:	2800      	cmp	r0, #0
 8007de8:	d1f0      	bne.n	8007dcc <rt_test_009_003_execute+0x2c>
    m = chEvtWaitOne(ALL_EVENTS);
 8007dea:	f04f 30ff 	mov.w	r0, #4294967295	; 0xffffffff
 8007dee:	f7fa fac7 	bl	8002380 <chEvtWaitOne>
    test_assert(m == 4, "single event error");
 8007df2:	4929      	ldr	r1, [pc, #164]	; (8007e98 <rt_test_009_003_execute+0xf8>)
 8007df4:	2804      	cmp	r0, #4
 8007df6:	bf14      	ite	ne
 8007df8:	2000      	movne	r0, #0
 8007dfa:	2001      	moveq	r0, #1
 8007dfc:	f7f9 f9f8 	bl	80011f0 <_test_assert>
 8007e00:	2800      	cmp	r0, #0
 8007e02:	d1e3      	bne.n	8007dcc <rt_test_009_003_execute+0x2c>
    m = chEvtGetAndClearEvents(ALL_EVENTS);
 8007e04:	f04f 30ff 	mov.w	r0, #4294967295	; 0xffffffff
 8007e08:	f7f9 fe6a 	bl	8001ae0 <chEvtGetAndClearEvents>
    test_assert(m == 0, "stuck event");
 8007e0c:	4923      	ldr	r1, [pc, #140]	; (8007e9c <rt_test_009_003_execute+0xfc>)
 8007e0e:	fab0 f080 	clz	r0, r0
 8007e12:	0940      	lsrs	r0, r0, #5
 8007e14:	f7f9 f9ec 	bl	80011f0 <_test_assert>
 8007e18:	2800      	cmp	r0, #0
 8007e1a:	d1d7      	bne.n	8007dcc <rt_test_009_003_execute+0x2c>
  test_set_step(3);
 8007e1c:	4625      	mov	r5, r4
 8007e1e:	2303      	movs	r3, #3
 8007e20:	6023      	str	r3, [r4, #0]
    target_time = chTimeAddX(test_wait_tick(), TIME_MS2I(50));
 8007e22:	f7fd fc1d 	bl	8005660 <test_wait_tick>
 8007e26:	4604      	mov	r4, r0
 8007e28:	f500 76fa 	add.w	r6, r0, #500	; 0x1f4
  return ch.rlist.current;
 8007e2c:	4b1c      	ldr	r3, [pc, #112]	; (8007ea0 <rt_test_009_003_execute+0x100>)
 8007e2e:	699b      	ldr	r3, [r3, #24]
  return chThdGetSelfX()->prio;
 8007e30:	689a      	ldr	r2, [r3, #8]
    threads[0] = chThdCreateStatic(wa[0], WA_SIZE, chThdGetPriorityX() - 1,
 8007e32:	9300      	str	r3, [sp, #0]
 8007e34:	4b1b      	ldr	r3, [pc, #108]	; (8007ea4 <rt_test_009_003_execute+0x104>)
 8007e36:	3a01      	subs	r2, #1
 8007e38:	f44f 71a4 	mov.w	r1, #328	; 0x148
 8007e3c:	481a      	ldr	r0, [pc, #104]	; (8007ea8 <rt_test_009_003_execute+0x108>)
 8007e3e:	f7ff fb1f 	bl	8007480 <chThdCreateStatic>
 8007e42:	4b1a      	ldr	r3, [pc, #104]	; (8007eac <rt_test_009_003_execute+0x10c>)
 8007e44:	6018      	str	r0, [r3, #0]
  test_set_step(4);
 8007e46:	2304      	movs	r3, #4
 8007e48:	602b      	str	r3, [r5, #0]
    m = chEvtWaitOne(ALL_EVENTS);
 8007e4a:	f04f 30ff 	mov.w	r0, #4294967295	; 0xffffffff
 8007e4e:	f7fa fa97 	bl	8002380 <chEvtWaitOne>
 8007e52:	4605      	mov	r5, r0
    test_assert_time_window(target_time,
 8007e54:	4a16      	ldr	r2, [pc, #88]	; (8007eb0 <rt_test_009_003_execute+0x110>)
 8007e56:	f504 7102 	add.w	r1, r4, #520	; 0x208
 8007e5a:	4630      	mov	r0, r6
 8007e5c:	f7fa f980 	bl	8002160 <_test_assert_time_window>
 8007e60:	2800      	cmp	r0, #0
 8007e62:	d1b3      	bne.n	8007dcc <rt_test_009_003_execute+0x2c>
    test_assert(m == 1, "event flag error");
 8007e64:	4913      	ldr	r1, [pc, #76]	; (8007eb4 <rt_test_009_003_execute+0x114>)
 8007e66:	2d01      	cmp	r5, #1
 8007e68:	bf14      	ite	ne
 8007e6a:	2000      	movne	r0, #0
 8007e6c:	2001      	moveq	r0, #1
 8007e6e:	f7f9 f9bf 	bl	80011f0 <_test_assert>
 8007e72:	2800      	cmp	r0, #0
 8007e74:	d1aa      	bne.n	8007dcc <rt_test_009_003_execute+0x2c>
    m = chEvtGetAndClearEvents(ALL_EVENTS);
 8007e76:	f04f 30ff 	mov.w	r0, #4294967295	; 0xffffffff
 8007e7a:	f7f9 fe31 	bl	8001ae0 <chEvtGetAndClearEvents>
    test_assert(m == 0, "stuck event");
 8007e7e:	4907      	ldr	r1, [pc, #28]	; (8007e9c <rt_test_009_003_execute+0xfc>)
 8007e80:	fab0 f080 	clz	r0, r0
 8007e84:	0940      	lsrs	r0, r0, #5
 8007e86:	f7f9 f9b3 	bl	80011f0 <_test_assert>
 8007e8a:	2800      	cmp	r0, #0
 8007e8c:	d19e      	bne.n	8007dcc <rt_test_009_003_execute+0x2c>
    test_wait_threads();
 8007e8e:	f7fb ff2f 	bl	8003cf0 <test_wait_threads>
  test_end_step(4);
 8007e92:	e79b      	b.n	8007dcc <rt_test_009_003_execute+0x2c>
 8007e94:	20001a7c 	.word	0x20001a7c
 8007e98:	0800cc24 	.word	0x0800cc24
 8007e9c:	0800cbd8 	.word	0x0800cbd8
 8007ea0:	20001040 	.word	0x20001040
 8007ea4:	08005421 	.word	0x08005421
 8007ea8:	20001368 	.word	0x20001368
 8007eac:	20001a94 	.word	0x20001a94
 8007eb0:	0800c898 	.word	0x0800c898
 8007eb4:	0800cc10 	.word	0x0800cc10
	...

08007ec0 <rt_test_008_001_execute>:
 * - [8.1.1] Starting the messenger thread.
 * - [8.1.2] Waiting for four messages then testing the receive order.
 * .
 */

static void rt_test_008_001_execute(void) {
 8007ec0:	b530      	push	{r4, r5, lr}
 8007ec2:	b083      	sub	sp, #12
  thread_t *tp;
  msg_t msg;

  /* [8.1.1] Starting the messenger thread.*/
  test_set_step(1);
 8007ec4:	4c16      	ldr	r4, [pc, #88]	; (8007f20 <rt_test_008_001_execute+0x60>)
 8007ec6:	2301      	movs	r3, #1
 8007ec8:	6023      	str	r3, [r4, #0]
  return ch.rlist.current;
 8007eca:	4b16      	ldr	r3, [pc, #88]	; (8007f24 <rt_test_008_001_execute+0x64>)
 8007ecc:	699b      	ldr	r3, [r3, #24]
  return chThdGetSelfX()->prio;
 8007ece:	689a      	ldr	r2, [r3, #8]
  {
    threads[0] = chThdCreateStatic(wa[0], WA_SIZE, chThdGetPriorityX() + 1,
 8007ed0:	9300      	str	r3, [sp, #0]
 8007ed2:	4b15      	ldr	r3, [pc, #84]	; (8007f28 <rt_test_008_001_execute+0x68>)
 8007ed4:	3201      	adds	r2, #1
 8007ed6:	f44f 71a4 	mov.w	r1, #328	; 0x148
 8007eda:	4814      	ldr	r0, [pc, #80]	; (8007f2c <rt_test_008_001_execute+0x6c>)
 8007edc:	f7ff fad0 	bl	8007480 <chThdCreateStatic>
 8007ee0:	4b13      	ldr	r3, [pc, #76]	; (8007f30 <rt_test_008_001_execute+0x70>)
 8007ee2:	6018      	str	r0, [r3, #0]
  }
  test_end_step(1);

  /* [8.1.2] Waiting for four messages then testing the receive
     order.*/
  test_set_step(2);
 8007ee4:	2302      	movs	r3, #2
 8007ee6:	6023      	str	r3, [r4, #0]
  {
    unsigned i;

    for (i = 0; i < 4; i++) {
 8007ee8:	2400      	movs	r4, #0
 8007eea:	e00f      	b.n	8007f0c <rt_test_008_001_execute+0x4c>
 8007eec:	2320      	movs	r3, #32
 8007eee:	f383 8811 	msr	BASEPRI, r3
  tp = chMsgWaitS();
 8007ef2:	f7fa f9bd 	bl	8002270 <chMsgWaitS>
 8007ef6:	2200      	movs	r2, #0
 8007ef8:	f382 8811 	msr	BASEPRI, r2
  return tp->u.sentmsg;
 8007efc:	6a45      	ldr	r5, [r0, #36]	; 0x24
      tp = chMsgWait();
      msg = chMsgGet(tp);
      chMsgRelease(tp, msg);
 8007efe:	4629      	mov	r1, r5
 8007f00:	f7fa f93e 	bl	8002180 <chMsgRelease>
      test_emit_token(msg);
 8007f04:	b2e8      	uxtb	r0, r5
 8007f06:	f7f8 fc83 	bl	8000810 <test_emit_token>
    for (i = 0; i < 4; i++) {
 8007f0a:	3401      	adds	r4, #1
 8007f0c:	2c03      	cmp	r4, #3
 8007f0e:	d9ed      	bls.n	8007eec <rt_test_008_001_execute+0x2c>
    }
    test_wait_threads();
 8007f10:	f7fb feee 	bl	8003cf0 <test_wait_threads>
    test_assert_sequence("ABCD", "invalid sequence");
 8007f14:	4907      	ldr	r1, [pc, #28]	; (8007f34 <rt_test_008_001_execute+0x74>)
 8007f16:	4808      	ldr	r0, [pc, #32]	; (8007f38 <rt_test_008_001_execute+0x78>)
 8007f18:	f7f9 fa1a 	bl	8001350 <_test_assert_sequence>
  }
  test_end_step(2);
}
 8007f1c:	b003      	add	sp, #12
 8007f1e:	bd30      	pop	{r4, r5, pc}
 8007f20:	20001a7c 	.word	0x20001a7c
 8007f24:	20001040 	.word	0x20001040
 8007f28:	08002e01 	.word	0x08002e01
 8007f2c:	20001368 	.word	0x20001368
 8007f30:	20001a94 	.word	0x20001a94
 8007f34:	0800c114 	.word	0x0800c114
 8007f38:	0800cb58 	.word	0x0800cb58
 8007f3c:	00000000 	.word	0x00000000

08007f40 <rt_test_007_009_execute>:

static void rt_test_007_009_execute(void) {
 8007f40:	b5f0      	push	{r4, r5, r6, r7, lr}
 8007f42:	b083      	sub	sp, #12
  return ch.rlist.current;
 8007f44:	4b1f      	ldr	r3, [pc, #124]	; (8007fc4 <rt_test_007_009_execute+0x84>)
 8007f46:	699b      	ldr	r3, [r3, #24]
  return chThdGetSelfX()->prio;
 8007f48:	689f      	ldr	r7, [r3, #8]
  }
  test_end_step(1);

  /* [7.9.2] Thread A is created at priority P(+1), it locks M2, locks
     M1 and goes to wait on C1.*/
  test_set_step(2);
 8007f4a:	4c1f      	ldr	r4, [pc, #124]	; (8007fc8 <rt_test_007_009_execute+0x88>)
 8007f4c:	2302      	movs	r3, #2
 8007f4e:	6023      	str	r3, [r4, #0]
  {
    threads[0] = chThdCreateStatic(wa[0], WA_SIZE, prio+1, thread8, "A");
 8007f50:	4e1e      	ldr	r6, [pc, #120]	; (8007fcc <rt_test_007_009_execute+0x8c>)
 8007f52:	4b1f      	ldr	r3, [pc, #124]	; (8007fd0 <rt_test_007_009_execute+0x90>)
 8007f54:	9300      	str	r3, [sp, #0]
 8007f56:	4b1f      	ldr	r3, [pc, #124]	; (8007fd4 <rt_test_007_009_execute+0x94>)
 8007f58:	1c7a      	adds	r2, r7, #1
 8007f5a:	f44f 71a4 	mov.w	r1, #328	; 0x148
 8007f5e:	4630      	mov	r0, r6
 8007f60:	f7ff fa8e 	bl	8007480 <chThdCreateStatic>
 8007f64:	4d1c      	ldr	r5, [pc, #112]	; (8007fd8 <rt_test_007_009_execute+0x98>)
 8007f66:	6028      	str	r0, [r5, #0]
  }
  test_end_step(2);

  /* [7.9.3] Thread C is created at priority P(+2), it enqueues on M1
     and boosts TA priority at P(+2).*/
  test_set_step(3);
 8007f68:	2303      	movs	r3, #3
 8007f6a:	6023      	str	r3, [r4, #0]
  {
    threads[1] = chThdCreateStatic(wa[1], WA_SIZE, prio+2, thread6, "C");
 8007f6c:	4b1b      	ldr	r3, [pc, #108]	; (8007fdc <rt_test_007_009_execute+0x9c>)
 8007f6e:	9300      	str	r3, [sp, #0]
 8007f70:	4b1b      	ldr	r3, [pc, #108]	; (8007fe0 <rt_test_007_009_execute+0xa0>)
 8007f72:	1cba      	adds	r2, r7, #2
 8007f74:	f44f 71a4 	mov.w	r1, #328	; 0x148
 8007f78:	1870      	adds	r0, r6, r1
 8007f7a:	f7ff fa81 	bl	8007480 <chThdCreateStatic>
 8007f7e:	6068      	str	r0, [r5, #4]
  }
  test_end_step(3);

  /* [7.9.4] Thread B is created at priority P(+3), it enqueues on M2
     and boosts TA priority at P(+3).*/
  test_set_step(4);
 8007f80:	2304      	movs	r3, #4
 8007f82:	6023      	str	r3, [r4, #0]
  {
    threads[2] = chThdCreateStatic(wa[2], WA_SIZE, prio+3, thread9, "B");
 8007f84:	4b17      	ldr	r3, [pc, #92]	; (8007fe4 <rt_test_007_009_execute+0xa4>)
 8007f86:	9300      	str	r3, [sp, #0]
 8007f88:	4b17      	ldr	r3, [pc, #92]	; (8007fe8 <rt_test_007_009_execute+0xa8>)
 8007f8a:	1cfa      	adds	r2, r7, #3
 8007f8c:	f44f 71a4 	mov.w	r1, #328	; 0x148
 8007f90:	f506 7024 	add.w	r0, r6, #656	; 0x290
 8007f94:	f7ff fa74 	bl	8007480 <chThdCreateStatic>
 8007f98:	60a8      	str	r0, [r5, #8]
  test_end_step(4);

  /* [7.9.5] Signaling C1: TA wakes up, unlocks M1 and priority goes to
     P(+2). TB locks M1, unlocks M1 and completes. TA unlocks M2 and
     priority goes to P(+1). TC waits on C1. TA completes.*/
  test_set_step(5);
 8007f9a:	2305      	movs	r3, #5
 8007f9c:	6023      	str	r3, [r4, #0]
  {
    chCondSignal(&c1);
 8007f9e:	4d13      	ldr	r5, [pc, #76]	; (8007fec <rt_test_007_009_execute+0xac>)
 8007fa0:	4628      	mov	r0, r5
 8007fa2:	f7fa f8fd 	bl	80021a0 <chCondSignal>
  }
  test_end_step(5);

  /* [7.9.6] Signaling C1: TC wakes up, unlocks M1 and completes.*/
  test_set_step(6);
 8007fa6:	2306      	movs	r3, #6
 8007fa8:	6023      	str	r3, [r4, #0]
  {
    chCondSignal(&c1);
 8007faa:	4628      	mov	r0, r5
 8007fac:	f7fa f8f8 	bl	80021a0 <chCondSignal>
  }
  test_end_step(6);

  /* [7.9.7] Checking the order of operations.*/
  test_set_step(7);
 8007fb0:	2307      	movs	r3, #7
 8007fb2:	6023      	str	r3, [r4, #0]
  {
    test_wait_threads();
 8007fb4:	f7fb fe9c 	bl	8003cf0 <test_wait_threads>
    test_assert_sequence("ABC", "invalid sequence");
 8007fb8:	490d      	ldr	r1, [pc, #52]	; (8007ff0 <rt_test_007_009_execute+0xb0>)
 8007fba:	480e      	ldr	r0, [pc, #56]	; (8007ff4 <rt_test_007_009_execute+0xb4>)
 8007fbc:	f7f9 f9c8 	bl	8001350 <_test_assert_sequence>
  }
  test_end_step(7);
}
 8007fc0:	b003      	add	sp, #12
 8007fc2:	bdf0      	pop	{r4, r5, r6, r7, pc}
 8007fc4:	20001040 	.word	0x20001040
 8007fc8:	20001a7c 	.word	0x20001a7c
 8007fcc:	20001368 	.word	0x20001368
 8007fd0:	0800cbd4 	.word	0x0800cbd4
 8007fd4:	08004fb1 	.word	0x08004fb1
 8007fd8:	20001a94 	.word	0x20001a94
 8007fdc:	0800cc38 	.word	0x0800cc38
 8007fe0:	08003281 	.word	0x08003281
 8007fe4:	0800cc3c 	.word	0x0800cc3c
 8007fe8:	080032b1 	.word	0x080032b1
 8007fec:	20000800 	.word	0x20000800
 8007ff0:	0800c114 	.word	0x0800c114
 8007ff4:	0800c128 	.word	0x0800c128
	...

08008000 <rt_test_007_008_execute>:
static void rt_test_007_008_execute(void) {
 8008000:	e92d 41f0 	stmdb	sp!, {r4, r5, r6, r7, r8, lr}
 8008004:	b082      	sub	sp, #8
  test_set_step(1);
 8008006:	f8df 80cc 	ldr.w	r8, [pc, #204]	; 80080d4 <rt_test_007_008_execute+0xd4>
 800800a:	2301      	movs	r3, #1
 800800c:	f8c8 3000 	str.w	r3, [r8]
  return ch.rlist.current;
 8008010:	4b24      	ldr	r3, [pc, #144]	; (80080a4 <rt_test_007_008_execute+0xa4>)
 8008012:	699b      	ldr	r3, [r3, #24]
  return chThdGetSelfX()->prio;
 8008014:	689e      	ldr	r6, [r3, #8]
    threads[0] = chThdCreateStatic(wa[0], WA_SIZE, prio+1, thread6, "E");
 8008016:	4f24      	ldr	r7, [pc, #144]	; (80080a8 <rt_test_007_008_execute+0xa8>)
 8008018:	4d24      	ldr	r5, [pc, #144]	; (80080ac <rt_test_007_008_execute+0xac>)
 800801a:	4b25      	ldr	r3, [pc, #148]	; (80080b0 <rt_test_007_008_execute+0xb0>)
 800801c:	9300      	str	r3, [sp, #0]
 800801e:	463b      	mov	r3, r7
 8008020:	1c72      	adds	r2, r6, #1
 8008022:	f44f 71a4 	mov.w	r1, #328	; 0x148
 8008026:	4628      	mov	r0, r5
 8008028:	f7ff fa2a 	bl	8007480 <chThdCreateStatic>
 800802c:	4c21      	ldr	r4, [pc, #132]	; (80080b4 <rt_test_007_008_execute+0xb4>)
 800802e:	6020      	str	r0, [r4, #0]
    threads[1] = chThdCreateStatic(wa[1], WA_SIZE, prio+2, thread6, "D");
 8008030:	4b21      	ldr	r3, [pc, #132]	; (80080b8 <rt_test_007_008_execute+0xb8>)
 8008032:	9300      	str	r3, [sp, #0]
 8008034:	463b      	mov	r3, r7
 8008036:	1cb2      	adds	r2, r6, #2
 8008038:	f44f 71a4 	mov.w	r1, #328	; 0x148
 800803c:	1868      	adds	r0, r5, r1
 800803e:	f7ff fa1f 	bl	8007480 <chThdCreateStatic>
 8008042:	6060      	str	r0, [r4, #4]
    threads[2] = chThdCreateStatic(wa[2], WA_SIZE, prio+3, thread6, "C");
 8008044:	4b1d      	ldr	r3, [pc, #116]	; (80080bc <rt_test_007_008_execute+0xbc>)
 8008046:	9300      	str	r3, [sp, #0]
 8008048:	463b      	mov	r3, r7
 800804a:	1cf2      	adds	r2, r6, #3
 800804c:	f44f 71a4 	mov.w	r1, #328	; 0x148
 8008050:	f505 7024 	add.w	r0, r5, #656	; 0x290
 8008054:	f7ff fa14 	bl	8007480 <chThdCreateStatic>
 8008058:	60a0      	str	r0, [r4, #8]
    threads[3] = chThdCreateStatic(wa[3], WA_SIZE, prio+4, thread6, "B");
 800805a:	4b19      	ldr	r3, [pc, #100]	; (80080c0 <rt_test_007_008_execute+0xc0>)
 800805c:	9300      	str	r3, [sp, #0]
 800805e:	463b      	mov	r3, r7
 8008060:	1d32      	adds	r2, r6, #4
 8008062:	f44f 71a4 	mov.w	r1, #328	; 0x148
 8008066:	f505 7076 	add.w	r0, r5, #984	; 0x3d8
 800806a:	f7ff fa09 	bl	8007480 <chThdCreateStatic>
 800806e:	60e0      	str	r0, [r4, #12]
    threads[4] = chThdCreateStatic(wa[4], WA_SIZE, prio+5, thread6, "A");
 8008070:	4b14      	ldr	r3, [pc, #80]	; (80080c4 <rt_test_007_008_execute+0xc4>)
 8008072:	9300      	str	r3, [sp, #0]
 8008074:	463b      	mov	r3, r7
 8008076:	1d72      	adds	r2, r6, #5
 8008078:	f44f 71a4 	mov.w	r1, #328	; 0x148
 800807c:	f505 60a4 	add.w	r0, r5, #1312	; 0x520
 8008080:	f7ff f9fe 	bl	8007480 <chThdCreateStatic>
 8008084:	6120      	str	r0, [r4, #16]
  test_set_step(2);
 8008086:	2302      	movs	r3, #2
 8008088:	f8c8 3000 	str.w	r3, [r8]
    chCondBroadcast(&c1);
 800808c:	480e      	ldr	r0, [pc, #56]	; (80080c8 <rt_test_007_008_execute+0xc8>)
 800808e:	f7fa ff1f 	bl	8002ed0 <chCondBroadcast>
    test_wait_threads();
 8008092:	f7fb fe2d 	bl	8003cf0 <test_wait_threads>
    test_assert_sequence("ABCDE", "invalid sequence");
 8008096:	490d      	ldr	r1, [pc, #52]	; (80080cc <rt_test_007_008_execute+0xcc>)
 8008098:	480d      	ldr	r0, [pc, #52]	; (80080d0 <rt_test_007_008_execute+0xd0>)
 800809a:	f7f9 f959 	bl	8001350 <_test_assert_sequence>
}
 800809e:	b002      	add	sp, #8
 80080a0:	e8bd 81f0 	ldmia.w	sp!, {r4, r5, r6, r7, r8, pc}
 80080a4:	20001040 	.word	0x20001040
 80080a8:	08003281 	.word	0x08003281
 80080ac:	20001368 	.word	0x20001368
 80080b0:	0800cc44 	.word	0x0800cc44
 80080b4:	20001a94 	.word	0x20001a94
 80080b8:	0800d7e4 	.word	0x0800d7e4
 80080bc:	0800cc38 	.word	0x0800cc38
 80080c0:	0800cc3c 	.word	0x0800cc3c
 80080c4:	0800cbd4 	.word	0x0800cbd4
 80080c8:	20000800 	.word	0x20000800
 80080cc:	0800c114 	.word	0x0800c114
 80080d0:	0800cc40 	.word	0x0800cc40
 80080d4:	20001a7c 	.word	0x20001a7c
	...

080080e0 <rt_test_007_007_execute>:
static void rt_test_007_007_execute(void) {
 80080e0:	e92d 41f0 	stmdb	sp!, {r4, r5, r6, r7, r8, lr}
 80080e4:	b082      	sub	sp, #8
  test_set_step(1);
 80080e6:	f8df 80f8 	ldr.w	r8, [pc, #248]	; 80081e0 <rt_test_007_007_execute+0x100>
 80080ea:	2301      	movs	r3, #1
 80080ec:	f8c8 3000 	str.w	r3, [r8]
  return ch.rlist.current;
 80080f0:	4b2f      	ldr	r3, [pc, #188]	; (80081b0 <rt_test_007_007_execute+0xd0>)
 80080f2:	699b      	ldr	r3, [r3, #24]
  return chThdGetSelfX()->prio;
 80080f4:	689e      	ldr	r6, [r3, #8]
    threads[0] = chThdCreateStatic(wa[0], WA_SIZE, prio+1, thread6, "E");
 80080f6:	4f2f      	ldr	r7, [pc, #188]	; (80081b4 <rt_test_007_007_execute+0xd4>)
 80080f8:	4d2f      	ldr	r5, [pc, #188]	; (80081b8 <rt_test_007_007_execute+0xd8>)
 80080fa:	4b30      	ldr	r3, [pc, #192]	; (80081bc <rt_test_007_007_execute+0xdc>)
 80080fc:	9300      	str	r3, [sp, #0]
 80080fe:	463b      	mov	r3, r7
 8008100:	1c72      	adds	r2, r6, #1
 8008102:	f44f 71a4 	mov.w	r1, #328	; 0x148
 8008106:	4628      	mov	r0, r5
 8008108:	f7ff f9ba 	bl	8007480 <chThdCreateStatic>
 800810c:	4c2c      	ldr	r4, [pc, #176]	; (80081c0 <rt_test_007_007_execute+0xe0>)
 800810e:	6020      	str	r0, [r4, #0]
    threads[1] = chThdCreateStatic(wa[1], WA_SIZE, prio+2, thread6, "D");
 8008110:	4b2c      	ldr	r3, [pc, #176]	; (80081c4 <rt_test_007_007_execute+0xe4>)
 8008112:	9300      	str	r3, [sp, #0]
 8008114:	463b      	mov	r3, r7
 8008116:	1cb2      	adds	r2, r6, #2
 8008118:	f44f 71a4 	mov.w	r1, #328	; 0x148
 800811c:	1868      	adds	r0, r5, r1
 800811e:	f7ff f9af 	bl	8007480 <chThdCreateStatic>
 8008122:	6060      	str	r0, [r4, #4]
    threads[2] = chThdCreateStatic(wa[2], WA_SIZE, prio+3, thread6, "C");
 8008124:	4b28      	ldr	r3, [pc, #160]	; (80081c8 <rt_test_007_007_execute+0xe8>)
 8008126:	9300      	str	r3, [sp, #0]
 8008128:	463b      	mov	r3, r7
 800812a:	1cf2      	adds	r2, r6, #3
 800812c:	f44f 71a4 	mov.w	r1, #328	; 0x148
 8008130:	f505 7024 	add.w	r0, r5, #656	; 0x290
 8008134:	f7ff f9a4 	bl	8007480 <chThdCreateStatic>
 8008138:	60a0      	str	r0, [r4, #8]
    threads[3] = chThdCreateStatic(wa[3], WA_SIZE, prio+4, thread6, "B");
 800813a:	4b24      	ldr	r3, [pc, #144]	; (80081cc <rt_test_007_007_execute+0xec>)
 800813c:	9300      	str	r3, [sp, #0]
 800813e:	463b      	mov	r3, r7
 8008140:	1d32      	adds	r2, r6, #4
 8008142:	f44f 71a4 	mov.w	r1, #328	; 0x148
 8008146:	f505 7076 	add.w	r0, r5, #984	; 0x3d8
 800814a:	f7ff f999 	bl	8007480 <chThdCreateStatic>
 800814e:	60e0      	str	r0, [r4, #12]
    threads[4] = chThdCreateStatic(wa[4], WA_SIZE, prio+5, thread6, "A");
 8008150:	4b1f      	ldr	r3, [pc, #124]	; (80081d0 <rt_test_007_007_execute+0xf0>)
 8008152:	9300      	str	r3, [sp, #0]
 8008154:	463b      	mov	r3, r7
 8008156:	1d72      	adds	r2, r6, #5
 8008158:	f44f 71a4 	mov.w	r1, #328	; 0x148
 800815c:	f505 60a4 	add.w	r0, r5, #1312	; 0x520
 8008160:	f7ff f98e 	bl	8007480 <chThdCreateStatic>
 8008164:	6120      	str	r0, [r4, #16]
  test_set_step(2);
 8008166:	2302      	movs	r3, #2
 8008168:	f8c8 3000 	str.w	r3, [r8]
 800816c:	2320      	movs	r3, #32
 800816e:	f383 8811 	msr	BASEPRI, r3
    chCondSignalI(&c1);
 8008172:	4c18      	ldr	r4, [pc, #96]	; (80081d4 <rt_test_007_007_execute+0xf4>)
 8008174:	4620      	mov	r0, r4
 8008176:	f7fa febb 	bl	8002ef0 <chCondSignalI>
    chCondSignalI(&c1);
 800817a:	4620      	mov	r0, r4
 800817c:	f7fa feb8 	bl	8002ef0 <chCondSignalI>
    chCondSignalI(&c1);
 8008180:	4620      	mov	r0, r4
 8008182:	f7fa feb5 	bl	8002ef0 <chCondSignalI>
    chCondSignalI(&c1);
 8008186:	4620      	mov	r0, r4
 8008188:	f7fa feb2 	bl	8002ef0 <chCondSignalI>
    chCondSignalI(&c1);
 800818c:	4620      	mov	r0, r4
 800818e:	f7fa feaf 	bl	8002ef0 <chCondSignalI>
    chSchRescheduleS();
 8008192:	f002 f97d 	bl	800a490 <chSchRescheduleS>
 8008196:	2300      	movs	r3, #0
 8008198:	f383 8811 	msr	BASEPRI, r3
    test_wait_threads();
 800819c:	f7fb fda8 	bl	8003cf0 <test_wait_threads>
    test_assert_sequence("ABCDE", "invalid sequence");
 80081a0:	490d      	ldr	r1, [pc, #52]	; (80081d8 <rt_test_007_007_execute+0xf8>)
 80081a2:	480e      	ldr	r0, [pc, #56]	; (80081dc <rt_test_007_007_execute+0xfc>)
 80081a4:	f7f9 f8d4 	bl	8001350 <_test_assert_sequence>
}
 80081a8:	b002      	add	sp, #8
 80081aa:	e8bd 81f0 	ldmia.w	sp!, {r4, r5, r6, r7, r8, pc}
 80081ae:	bf00      	nop
 80081b0:	20001040 	.word	0x20001040
 80081b4:	08003281 	.word	0x08003281
 80081b8:	20001368 	.word	0x20001368
 80081bc:	0800cc44 	.word	0x0800cc44
 80081c0:	20001a94 	.word	0x20001a94
 80081c4:	0800d7e4 	.word	0x0800d7e4
 80081c8:	0800cc38 	.word	0x0800cc38
 80081cc:	0800cc3c 	.word	0x0800cc3c
 80081d0:	0800cbd4 	.word	0x0800cbd4
 80081d4:	20000800 	.word	0x20000800
 80081d8:	0800c114 	.word	0x0800c114
 80081dc:	0800cc40 	.word	0x0800cc40
 80081e0:	20001a7c 	.word	0x20001a7c
	...

080081f0 <rt_test_007_004_execute>:
static void rt_test_007_004_execute(void) {
 80081f0:	e92d 47f0 	stmdb	sp!, {r4, r5, r6, r7, r8, r9, sl, lr}
 80081f4:	b082      	sub	sp, #8
  return ch.rlist.current;
 80081f6:	4d42      	ldr	r5, [pc, #264]	; (8008300 <rt_test_007_004_execute+0x110>)
 80081f8:	69ab      	ldr	r3, [r5, #24]
  return chThdGetSelfX()->prio;
 80081fa:	689c      	ldr	r4, [r3, #8]
    pa = p + 1;
 80081fc:	f104 0901 	add.w	r9, r4, #1
    pb = p + 2;
 8008200:	f104 0a02 	add.w	sl, r4, #2
  test_set_step(2);
 8008204:	4e3f      	ldr	r6, [pc, #252]	; (8008304 <rt_test_007_004_execute+0x114>)
 8008206:	2302      	movs	r3, #2
 8008208:	6033      	str	r3, [r6, #0]
    threads[0] = chThdCreateStatic(wa[0], WA_SIZE, pa, thread4A, "A");
 800820a:	f8df 811c 	ldr.w	r8, [pc, #284]	; 8008328 <rt_test_007_004_execute+0x138>
 800820e:	4b3e      	ldr	r3, [pc, #248]	; (8008308 <rt_test_007_004_execute+0x118>)
 8008210:	9300      	str	r3, [sp, #0]
 8008212:	4b3e      	ldr	r3, [pc, #248]	; (800830c <rt_test_007_004_execute+0x11c>)
 8008214:	464a      	mov	r2, r9
 8008216:	f44f 71a4 	mov.w	r1, #328	; 0x148
 800821a:	4640      	mov	r0, r8
 800821c:	f7ff f930 	bl	8007480 <chThdCreateStatic>
 8008220:	4f3b      	ldr	r7, [pc, #236]	; (8008310 <rt_test_007_004_execute+0x120>)
 8008222:	6038      	str	r0, [r7, #0]
    threads[1] = chThdCreateStatic(wa[1], WA_SIZE, pb, thread4B, "B");
 8008224:	4b3b      	ldr	r3, [pc, #236]	; (8008314 <rt_test_007_004_execute+0x124>)
 8008226:	9300      	str	r3, [sp, #0]
 8008228:	4b3b      	ldr	r3, [pc, #236]	; (8008318 <rt_test_007_004_execute+0x128>)
 800822a:	4652      	mov	r2, sl
 800822c:	f44f 71a4 	mov.w	r1, #328	; 0x148
 8008230:	eb08 0001 	add.w	r0, r8, r1
 8008234:	f7ff f924 	bl	8007480 <chThdCreateStatic>
 8008238:	6078      	str	r0, [r7, #4]
  test_set_step(3);
 800823a:	2303      	movs	r3, #3
 800823c:	6033      	str	r3, [r6, #0]
    chMtxLock(&m1);
 800823e:	4837      	ldr	r0, [pc, #220]	; (800831c <rt_test_007_004_execute+0x12c>)
 8008240:	f7fb f80e 	bl	8003260 <chMtxLock>
  return ch.rlist.current;
 8008244:	69ab      	ldr	r3, [r5, #24]
  return chThdGetSelfX()->prio;
 8008246:	6898      	ldr	r0, [r3, #8]
    test_assert(chThdGetPriorityX() == p, "wrong priority level");
 8008248:	4935      	ldr	r1, [pc, #212]	; (8008320 <rt_test_007_004_execute+0x130>)
 800824a:	4284      	cmp	r4, r0
 800824c:	bf14      	ite	ne
 800824e:	2000      	movne	r0, #0
 8008250:	2001      	moveq	r0, #1
 8008252:	f7f8 ffcd 	bl	80011f0 <_test_assert>
 8008256:	b110      	cbz	r0, 800825e <rt_test_007_004_execute+0x6e>
}
 8008258:	b002      	add	sp, #8
 800825a:	e8bd 87f0 	ldmia.w	sp!, {r4, r5, r6, r7, r8, r9, sl, pc}
  test_set_step(4);
 800825e:	2204      	movs	r2, #4
 8008260:	6032      	str	r2, [r6, #0]
    chThdSleepMilliseconds(100);
 8008262:	f44f 707a 	mov.w	r0, #1000	; 0x3e8
 8008266:	f7fd f88b 	bl	8005380 <chThdSleep>
  return ch.rlist.current;
 800826a:	69ab      	ldr	r3, [r5, #24]
  return chThdGetSelfX()->prio;
 800826c:	6898      	ldr	r0, [r3, #8]
    test_assert(chThdGetPriorityX() == pa, "wrong priority level");
 800826e:	492c      	ldr	r1, [pc, #176]	; (8008320 <rt_test_007_004_execute+0x130>)
 8008270:	4581      	cmp	r9, r0
 8008272:	bf14      	ite	ne
 8008274:	2000      	movne	r0, #0
 8008276:	2001      	moveq	r0, #1
 8008278:	f7f8 ffba 	bl	80011f0 <_test_assert>
 800827c:	2800      	cmp	r0, #0
 800827e:	d1eb      	bne.n	8008258 <rt_test_007_004_execute+0x68>
  test_set_step(5);
 8008280:	2205      	movs	r2, #5
 8008282:	6032      	str	r2, [r6, #0]
    chMtxLock(&m2);
 8008284:	4827      	ldr	r0, [pc, #156]	; (8008324 <rt_test_007_004_execute+0x134>)
 8008286:	f7fa ffeb 	bl	8003260 <chMtxLock>
  return ch.rlist.current;
 800828a:	69ab      	ldr	r3, [r5, #24]
  return chThdGetSelfX()->prio;
 800828c:	6898      	ldr	r0, [r3, #8]
    test_assert(chThdGetPriorityX() == pa, "wrong priority level");
 800828e:	4924      	ldr	r1, [pc, #144]	; (8008320 <rt_test_007_004_execute+0x130>)
 8008290:	4581      	cmp	r9, r0
 8008292:	bf14      	ite	ne
 8008294:	2000      	movne	r0, #0
 8008296:	2001      	moveq	r0, #1
 8008298:	f7f8 ffaa 	bl	80011f0 <_test_assert>
 800829c:	2800      	cmp	r0, #0
 800829e:	d1db      	bne.n	8008258 <rt_test_007_004_execute+0x68>
  test_set_step(6);
 80082a0:	2206      	movs	r2, #6
 80082a2:	6032      	str	r2, [r6, #0]
    chThdSleepMilliseconds(100);
 80082a4:	f44f 707a 	mov.w	r0, #1000	; 0x3e8
 80082a8:	f7fd f86a 	bl	8005380 <chThdSleep>
  return ch.rlist.current;
 80082ac:	69ab      	ldr	r3, [r5, #24]
  return chThdGetSelfX()->prio;
 80082ae:	6898      	ldr	r0, [r3, #8]
    test_assert(chThdGetPriorityX() == pb, "wrong priority level");
 80082b0:	491b      	ldr	r1, [pc, #108]	; (8008320 <rt_test_007_004_execute+0x130>)
 80082b2:	4582      	cmp	sl, r0
 80082b4:	bf14      	ite	ne
 80082b6:	2000      	movne	r0, #0
 80082b8:	2001      	moveq	r0, #1
 80082ba:	f7f8 ff99 	bl	80011f0 <_test_assert>
 80082be:	2800      	cmp	r0, #0
 80082c0:	d1ca      	bne.n	8008258 <rt_test_007_004_execute+0x68>
  test_set_step(7);
 80082c2:	2207      	movs	r2, #7
 80082c4:	6032      	str	r2, [r6, #0]
    chMtxUnlock(&m2);
 80082c6:	4817      	ldr	r0, [pc, #92]	; (8008324 <rt_test_007_004_execute+0x134>)
 80082c8:	f7fa fe72 	bl	8002fb0 <chMtxUnlock>
  return ch.rlist.current;
 80082cc:	69ab      	ldr	r3, [r5, #24]
  return chThdGetSelfX()->prio;
 80082ce:	6898      	ldr	r0, [r3, #8]
    test_assert(chThdGetPriorityX() == pa, "wrong priority level");
 80082d0:	4913      	ldr	r1, [pc, #76]	; (8008320 <rt_test_007_004_execute+0x130>)
 80082d2:	4581      	cmp	r9, r0
 80082d4:	bf14      	ite	ne
 80082d6:	2000      	movne	r0, #0
 80082d8:	2001      	moveq	r0, #1
 80082da:	f7f8 ff89 	bl	80011f0 <_test_assert>
 80082de:	2800      	cmp	r0, #0
 80082e0:	d1ba      	bne.n	8008258 <rt_test_007_004_execute+0x68>
  test_set_step(8);
 80082e2:	2208      	movs	r2, #8
 80082e4:	6032      	str	r2, [r6, #0]
    chMtxUnlock(&m1);
 80082e6:	480d      	ldr	r0, [pc, #52]	; (800831c <rt_test_007_004_execute+0x12c>)
 80082e8:	f7fa fe62 	bl	8002fb0 <chMtxUnlock>
  return ch.rlist.current;
 80082ec:	69ab      	ldr	r3, [r5, #24]
  return chThdGetSelfX()->prio;
 80082ee:	6898      	ldr	r0, [r3, #8]
    test_assert(chThdGetPriorityX() == p, "wrong priority level");
 80082f0:	490b      	ldr	r1, [pc, #44]	; (8008320 <rt_test_007_004_execute+0x130>)
 80082f2:	4284      	cmp	r4, r0
 80082f4:	bf14      	ite	ne
 80082f6:	2000      	movne	r0, #0
 80082f8:	2001      	moveq	r0, #1
 80082fa:	f7f8 ff79 	bl	80011f0 <_test_assert>
  test_end_step(8);
 80082fe:	e7ab      	b.n	8008258 <rt_test_007_004_execute+0x68>
 8008300:	20001040 	.word	0x20001040
 8008304:	20001a7c 	.word	0x20001a7c
 8008308:	0800cbd4 	.word	0x0800cbd4
 800830c:	08005441 	.word	0x08005441
 8008310:	20001a94 	.word	0x20001a94
 8008314:	0800cc3c 	.word	0x0800cc3c
 8008318:	08005461 	.word	0x08005461
 800831c:	2000082c 	.word	0x2000082c
 8008320:	0800c54c 	.word	0x0800c54c
 8008324:	2000083c 	.word	0x2000083c
 8008328:	20001368 	.word	0x20001368
 800832c:	00000000 	.word	0x00000000

08008330 <rt_test_007_001_execute>:
static void rt_test_007_001_execute(void) {
 8008330:	e92d 47f0 	stmdb	sp!, {r4, r5, r6, r7, r8, r9, sl, lr}
 8008334:	b082      	sub	sp, #8
  return ch.rlist.current;
 8008336:	f8df 90f4 	ldr.w	r9, [pc, #244]	; 800842c <rt_test_007_001_execute+0xfc>
 800833a:	f8d9 3018 	ldr.w	r3, [r9, #24]
  return chThdGetSelfX()->prio;
 800833e:	689c      	ldr	r4, [r3, #8]
  test_set_step(2);
 8008340:	f8df 80ec 	ldr.w	r8, [pc, #236]	; 8008430 <rt_test_007_001_execute+0x100>
 8008344:	2302      	movs	r3, #2
 8008346:	f8c8 3000 	str.w	r3, [r8]
    chMtxLock(&m1);
 800834a:	f8df a0e8 	ldr.w	sl, [pc, #232]	; 8008434 <rt_test_007_001_execute+0x104>
 800834e:	4650      	mov	r0, sl
 8008350:	f7fa ff86 	bl	8003260 <chMtxLock>
  test_set_step(3);
 8008354:	2303      	movs	r3, #3
 8008356:	f8c8 3000 	str.w	r3, [r8]
    threads[0] = chThdCreateStatic(wa[0], WA_SIZE, prio+1, thread1, "E");
 800835a:	4f29      	ldr	r7, [pc, #164]	; (8008400 <rt_test_007_001_execute+0xd0>)
 800835c:	4e29      	ldr	r6, [pc, #164]	; (8008404 <rt_test_007_001_execute+0xd4>)
 800835e:	4b2a      	ldr	r3, [pc, #168]	; (8008408 <rt_test_007_001_execute+0xd8>)
 8008360:	9300      	str	r3, [sp, #0]
 8008362:	463b      	mov	r3, r7
 8008364:	1c62      	adds	r2, r4, #1
 8008366:	f44f 71a4 	mov.w	r1, #328	; 0x148
 800836a:	4630      	mov	r0, r6
 800836c:	f7ff f888 	bl	8007480 <chThdCreateStatic>
 8008370:	4d26      	ldr	r5, [pc, #152]	; (800840c <rt_test_007_001_execute+0xdc>)
 8008372:	6028      	str	r0, [r5, #0]
    threads[1] = chThdCreateStatic(wa[1], WA_SIZE, prio+2, thread1, "D");
 8008374:	4b26      	ldr	r3, [pc, #152]	; (8008410 <rt_test_007_001_execute+0xe0>)
 8008376:	9300      	str	r3, [sp, #0]
 8008378:	463b      	mov	r3, r7
 800837a:	1ca2      	adds	r2, r4, #2
 800837c:	f44f 71a4 	mov.w	r1, #328	; 0x148
 8008380:	1870      	adds	r0, r6, r1
 8008382:	f7ff f87d 	bl	8007480 <chThdCreateStatic>
 8008386:	6068      	str	r0, [r5, #4]
    threads[2] = chThdCreateStatic(wa[2], WA_SIZE, prio+3, thread1, "C");
 8008388:	4b22      	ldr	r3, [pc, #136]	; (8008414 <rt_test_007_001_execute+0xe4>)
 800838a:	9300      	str	r3, [sp, #0]
 800838c:	463b      	mov	r3, r7
 800838e:	1ce2      	adds	r2, r4, #3
 8008390:	f44f 71a4 	mov.w	r1, #328	; 0x148
 8008394:	f506 7024 	add.w	r0, r6, #656	; 0x290
 8008398:	f7ff f872 	bl	8007480 <chThdCreateStatic>
 800839c:	60a8      	str	r0, [r5, #8]
    threads[3] = chThdCreateStatic(wa[3], WA_SIZE, prio+4, thread1, "B");
 800839e:	4b1e      	ldr	r3, [pc, #120]	; (8008418 <rt_test_007_001_execute+0xe8>)
 80083a0:	9300      	str	r3, [sp, #0]
 80083a2:	463b      	mov	r3, r7
 80083a4:	1d22      	adds	r2, r4, #4
 80083a6:	f44f 71a4 	mov.w	r1, #328	; 0x148
 80083aa:	f506 7076 	add.w	r0, r6, #984	; 0x3d8
 80083ae:	f7ff f867 	bl	8007480 <chThdCreateStatic>
 80083b2:	60e8      	str	r0, [r5, #12]
    threads[4] = chThdCreateStatic(wa[4], WA_SIZE, prio+5, thread1, "A");
 80083b4:	4b19      	ldr	r3, [pc, #100]	; (800841c <rt_test_007_001_execute+0xec>)
 80083b6:	9300      	str	r3, [sp, #0]
 80083b8:	463b      	mov	r3, r7
 80083ba:	1d62      	adds	r2, r4, #5
 80083bc:	f44f 71a4 	mov.w	r1, #328	; 0x148
 80083c0:	f506 60a4 	add.w	r0, r6, #1312	; 0x520
 80083c4:	f7ff f85c 	bl	8007480 <chThdCreateStatic>
 80083c8:	6128      	str	r0, [r5, #16]
  test_set_step(4);
 80083ca:	2304      	movs	r3, #4
 80083cc:	f8c8 3000 	str.w	r3, [r8]
    chMtxUnlock(&m1);
 80083d0:	4650      	mov	r0, sl
 80083d2:	f7fa fded 	bl	8002fb0 <chMtxUnlock>
    test_wait_threads();
 80083d6:	f7fb fc8b 	bl	8003cf0 <test_wait_threads>
  return ch.rlist.current;
 80083da:	f8d9 3018 	ldr.w	r3, [r9, #24]
  return chThdGetSelfX()->prio;
 80083de:	6898      	ldr	r0, [r3, #8]
    test_assert(prio == chThdGetPriorityX(), "wrong priority level");
 80083e0:	490f      	ldr	r1, [pc, #60]	; (8008420 <rt_test_007_001_execute+0xf0>)
 80083e2:	42a0      	cmp	r0, r4
 80083e4:	bf14      	ite	ne
 80083e6:	2000      	movne	r0, #0
 80083e8:	2001      	moveq	r0, #1
 80083ea:	f7f8 ff01 	bl	80011f0 <_test_assert>
 80083ee:	b110      	cbz	r0, 80083f6 <rt_test_007_001_execute+0xc6>
}
 80083f0:	b002      	add	sp, #8
 80083f2:	e8bd 87f0 	ldmia.w	sp!, {r4, r5, r6, r7, r8, r9, sl, pc}
    test_assert_sequence("ABCDE", "invalid sequence");
 80083f6:	490b      	ldr	r1, [pc, #44]	; (8008424 <rt_test_007_001_execute+0xf4>)
 80083f8:	480b      	ldr	r0, [pc, #44]	; (8008428 <rt_test_007_001_execute+0xf8>)
 80083fa:	f7f8 ffa9 	bl	8001350 <_test_assert_sequence>
  test_end_step(4);
 80083fe:	e7f7      	b.n	80083f0 <rt_test_007_001_execute+0xc0>
 8008400:	080032d1 	.word	0x080032d1
 8008404:	20001368 	.word	0x20001368
 8008408:	0800cc44 	.word	0x0800cc44
 800840c:	20001a94 	.word	0x20001a94
 8008410:	0800d7e4 	.word	0x0800d7e4
 8008414:	0800cc38 	.word	0x0800cc38
 8008418:	0800cc3c 	.word	0x0800cc3c
 800841c:	0800cbd4 	.word	0x0800cbd4
 8008420:	0800c54c 	.word	0x0800c54c
 8008424:	0800c114 	.word	0x0800c114
 8008428:	0800cc40 	.word	0x0800cc40
 800842c:	20001040 	.word	0x20001040
 8008430:	20001a7c 	.word	0x20001a7c
 8008434:	2000082c 	.word	0x2000082c
	...

08008440 <rt_test_006_006_execute>:

static void rt_test_006_006_execute(void) {
 8008440:	b530      	push	{r4, r5, lr}
 8008442:	b087      	sub	sp, #28
  binary_semaphore_t bsem;
  msg_t msg;

  /* [6.6.1] Creating a binary semaphore in "taken" state, the state is
     checked.*/
  test_set_step(1);
 8008444:	4b6c      	ldr	r3, [pc, #432]	; (80085f8 <rt_test_006_006_execute+0x1b8>)
 8008446:	2201      	movs	r2, #1
 8008448:	601a      	str	r2, [r3, #0]
  chSemObjectInit(&bsp->sem, taken ? (cnt_t)0 : (cnt_t)1);
 800844a:	2100      	movs	r1, #0
 800844c:	a803      	add	r0, sp, #12
 800844e:	f7f9 fc47 	bl	8001ce0 <chSemObjectInit>
 8008452:	2320      	movs	r3, #32
 8008454:	f383 8811 	msr	BASEPRI, r3
  {
    chBSemObjectInit(&bsem, true);
    test_assert_lock(chBSemGetStateI(&bsem) == true, "not taken");
 8008458:	4968      	ldr	r1, [pc, #416]	; (80085fc <rt_test_006_006_execute+0x1bc>)
 800845a:	9805      	ldr	r0, [sp, #20]
 800845c:	2800      	cmp	r0, #0
 800845e:	bfcc      	ite	gt
 8008460:	2000      	movgt	r0, #0
 8008462:	2001      	movle	r0, #1
 8008464:	f7f8 fec4 	bl	80011f0 <_test_assert>
 8008468:	b120      	cbz	r0, 8008474 <rt_test_006_006_execute+0x34>
 800846a:	2300      	movs	r3, #0
 800846c:	f383 8811 	msr	BASEPRI, r3
    chBSemSignal(&bsem);
    test_assert_lock(chBSemGetStateI(&bsem) == false, "taken");
    test_assert_lock(chSemGetCounterI(&bsem.sem) == 1, "unexpected counter");
  }
  test_end_step(6);
}
 8008470:	b007      	add	sp, #28
 8008472:	bd30      	pop	{r4, r5, pc}
 8008474:	2100      	movs	r1, #0
 8008476:	f381 8811 	msr	BASEPRI, r1
  test_set_step(2);
 800847a:	4b5f      	ldr	r3, [pc, #380]	; (80085f8 <rt_test_006_006_execute+0x1b8>)
 800847c:	2202      	movs	r2, #2
 800847e:	601a      	str	r2, [r3, #0]
 8008480:	f06f 0201 	mvn.w	r2, #1
 8008484:	a803      	add	r0, sp, #12
 8008486:	f7fc fbc3 	bl	8004c10 <chSemResetWithMessage>
 800848a:	2320      	movs	r3, #32
 800848c:	f383 8811 	msr	BASEPRI, r3
    test_assert_lock(chBSemGetStateI(&bsem) == true, "not taken");
 8008490:	495a      	ldr	r1, [pc, #360]	; (80085fc <rt_test_006_006_execute+0x1bc>)
 8008492:	9805      	ldr	r0, [sp, #20]
 8008494:	2800      	cmp	r0, #0
 8008496:	bfcc      	ite	gt
 8008498:	2000      	movgt	r0, #0
 800849a:	2001      	movle	r0, #1
 800849c:	f7f8 fea8 	bl	80011f0 <_test_assert>
 80084a0:	b118      	cbz	r0, 80084aa <rt_test_006_006_execute+0x6a>
 80084a2:	2300      	movs	r3, #0
 80084a4:	f383 8811 	msr	BASEPRI, r3
 80084a8:	e7e2      	b.n	8008470 <rt_test_006_006_execute+0x30>
 80084aa:	2300      	movs	r3, #0
 80084ac:	f383 8811 	msr	BASEPRI, r3
  test_set_step(3);
 80084b0:	4d51      	ldr	r5, [pc, #324]	; (80085f8 <rt_test_006_006_execute+0x1b8>)
 80084b2:	2303      	movs	r3, #3
 80084b4:	602b      	str	r3, [r5, #0]
  return ch.rlist.current;
 80084b6:	4b52      	ldr	r3, [pc, #328]	; (8008600 <rt_test_006_006_execute+0x1c0>)
 80084b8:	699b      	ldr	r3, [r3, #24]
  return chThdGetSelfX()->prio;
 80084ba:	689a      	ldr	r2, [r3, #8]
    threads[0] = chThdCreateStatic(wa[0], WA_SIZE,
 80084bc:	ac03      	add	r4, sp, #12
 80084be:	9400      	str	r4, [sp, #0]
 80084c0:	4b50      	ldr	r3, [pc, #320]	; (8008604 <rt_test_006_006_execute+0x1c4>)
 80084c2:	3a01      	subs	r2, #1
 80084c4:	f44f 71a4 	mov.w	r1, #328	; 0x148
 80084c8:	484f      	ldr	r0, [pc, #316]	; (8008608 <rt_test_006_006_execute+0x1c8>)
 80084ca:	f7fe ffd9 	bl	8007480 <chThdCreateStatic>
 80084ce:	4b4f      	ldr	r3, [pc, #316]	; (800860c <rt_test_006_006_execute+0x1cc>)
 80084d0:	6018      	str	r0, [r3, #0]
  test_set_step(4);
 80084d2:	2304      	movs	r3, #4
 80084d4:	602b      	str	r3, [r5, #0]
  return chSemWait(&bsp->sem);
 80084d6:	4620      	mov	r0, r4
 80084d8:	f7f9 fffa 	bl	80024d0 <chSemWait>
 80084dc:	4604      	mov	r4, r0
 80084de:	2320      	movs	r3, #32
 80084e0:	f383 8811 	msr	BASEPRI, r3
    test_assert_lock(chBSemGetStateI(&bsem) == true, "not taken");
 80084e4:	4945      	ldr	r1, [pc, #276]	; (80085fc <rt_test_006_006_execute+0x1bc>)
 80084e6:	9805      	ldr	r0, [sp, #20]
 80084e8:	2800      	cmp	r0, #0
 80084ea:	bfcc      	ite	gt
 80084ec:	2000      	movgt	r0, #0
 80084ee:	2001      	movle	r0, #1
 80084f0:	f7f8 fe7e 	bl	80011f0 <_test_assert>
 80084f4:	b118      	cbz	r0, 80084fe <rt_test_006_006_execute+0xbe>
 80084f6:	2300      	movs	r3, #0
 80084f8:	f383 8811 	msr	BASEPRI, r3
 80084fc:	e7b8      	b.n	8008470 <rt_test_006_006_execute+0x30>
 80084fe:	2300      	movs	r3, #0
 8008500:	f383 8811 	msr	BASEPRI, r3
    test_assert(msg == MSG_OK, "unexpected message");
 8008504:	4942      	ldr	r1, [pc, #264]	; (8008610 <rt_test_006_006_execute+0x1d0>)
 8008506:	fab4 f084 	clz	r0, r4
 800850a:	0940      	lsrs	r0, r0, #5
 800850c:	f7f8 fe70 	bl	80011f0 <_test_assert>
 8008510:	2800      	cmp	r0, #0
 8008512:	d1ad      	bne.n	8008470 <rt_test_006_006_execute+0x30>
  test_set_step(5);
 8008514:	4b38      	ldr	r3, [pc, #224]	; (80085f8 <rt_test_006_006_execute+0x1b8>)
 8008516:	2205      	movs	r2, #5
 8008518:	601a      	str	r2, [r3, #0]
 800851a:	2320      	movs	r3, #32
 800851c:	f383 8811 	msr	BASEPRI, r3
  if (bsp->sem.cnt < (cnt_t)1) {
 8008520:	9b05      	ldr	r3, [sp, #20]
 8008522:	2b00      	cmp	r3, #0
 8008524:	dd14      	ble.n	8008550 <rt_test_006_006_execute+0x110>
  chSchRescheduleS();
 8008526:	f001 ffb3 	bl	800a490 <chSchRescheduleS>
 800852a:	2300      	movs	r3, #0
 800852c:	f383 8811 	msr	BASEPRI, r3
 8008530:	2320      	movs	r3, #32
 8008532:	f383 8811 	msr	BASEPRI, r3
    test_assert_lock(chBSemGetStateI(&bsem) ==false, "still taken");
 8008536:	4937      	ldr	r1, [pc, #220]	; (8008614 <rt_test_006_006_execute+0x1d4>)
 8008538:	9805      	ldr	r0, [sp, #20]
 800853a:	2800      	cmp	r0, #0
 800853c:	bfd4      	ite	le
 800853e:	2000      	movle	r0, #0
 8008540:	2001      	movgt	r0, #1
 8008542:	f7f8 fe55 	bl	80011f0 <_test_assert>
 8008546:	b138      	cbz	r0, 8008558 <rt_test_006_006_execute+0x118>
 8008548:	2300      	movs	r3, #0
 800854a:	f383 8811 	msr	BASEPRI, r3
 800854e:	e78f      	b.n	8008470 <rt_test_006_006_execute+0x30>
    chSemSignalI(&bsp->sem);
 8008550:	a803      	add	r0, sp, #12
 8008552:	f7fc f845 	bl	80045e0 <chSemSignalI>
 8008556:	e7e6      	b.n	8008526 <rt_test_006_006_execute+0xe6>
 8008558:	2300      	movs	r3, #0
 800855a:	f383 8811 	msr	BASEPRI, r3
 800855e:	2320      	movs	r3, #32
 8008560:	f383 8811 	msr	BASEPRI, r3
    test_assert_lock(chSemGetCounterI(&bsem.sem) == 1, "unexpected counter");
 8008564:	492c      	ldr	r1, [pc, #176]	; (8008618 <rt_test_006_006_execute+0x1d8>)
 8008566:	9805      	ldr	r0, [sp, #20]
 8008568:	2801      	cmp	r0, #1
 800856a:	bf14      	ite	ne
 800856c:	2000      	movne	r0, #0
 800856e:	2001      	moveq	r0, #1
 8008570:	f7f8 fe3e 	bl	80011f0 <_test_assert>
 8008574:	b118      	cbz	r0, 800857e <rt_test_006_006_execute+0x13e>
 8008576:	2300      	movs	r3, #0
 8008578:	f383 8811 	msr	BASEPRI, r3
 800857c:	e778      	b.n	8008470 <rt_test_006_006_execute+0x30>
 800857e:	2300      	movs	r3, #0
 8008580:	f383 8811 	msr	BASEPRI, r3
  test_set_step(6);
 8008584:	4b1c      	ldr	r3, [pc, #112]	; (80085f8 <rt_test_006_006_execute+0x1b8>)
 8008586:	2206      	movs	r2, #6
 8008588:	601a      	str	r2, [r3, #0]
 800858a:	2320      	movs	r3, #32
 800858c:	f383 8811 	msr	BASEPRI, r3
  if (bsp->sem.cnt < (cnt_t)1) {
 8008590:	9b05      	ldr	r3, [sp, #20]
 8008592:	2b00      	cmp	r3, #0
 8008594:	dd14      	ble.n	80085c0 <rt_test_006_006_execute+0x180>
  chSchRescheduleS();
 8008596:	f001 ff7b 	bl	800a490 <chSchRescheduleS>
 800859a:	2300      	movs	r3, #0
 800859c:	f383 8811 	msr	BASEPRI, r3
 80085a0:	2320      	movs	r3, #32
 80085a2:	f383 8811 	msr	BASEPRI, r3
    test_assert_lock(chBSemGetStateI(&bsem) == false, "taken");
 80085a6:	491d      	ldr	r1, [pc, #116]	; (800861c <rt_test_006_006_execute+0x1dc>)
 80085a8:	9805      	ldr	r0, [sp, #20]
 80085aa:	2800      	cmp	r0, #0
 80085ac:	bfd4      	ite	le
 80085ae:	2000      	movle	r0, #0
 80085b0:	2001      	movgt	r0, #1
 80085b2:	f7f8 fe1d 	bl	80011f0 <_test_assert>
 80085b6:	b138      	cbz	r0, 80085c8 <rt_test_006_006_execute+0x188>
 80085b8:	2300      	movs	r3, #0
 80085ba:	f383 8811 	msr	BASEPRI, r3
 80085be:	e757      	b.n	8008470 <rt_test_006_006_execute+0x30>
    chSemSignalI(&bsp->sem);
 80085c0:	a803      	add	r0, sp, #12
 80085c2:	f7fc f80d 	bl	80045e0 <chSemSignalI>
 80085c6:	e7e6      	b.n	8008596 <rt_test_006_006_execute+0x156>
 80085c8:	2300      	movs	r3, #0
 80085ca:	f383 8811 	msr	BASEPRI, r3
 80085ce:	2320      	movs	r3, #32
 80085d0:	f383 8811 	msr	BASEPRI, r3
    test_assert_lock(chSemGetCounterI(&bsem.sem) == 1, "unexpected counter");
 80085d4:	4910      	ldr	r1, [pc, #64]	; (8008618 <rt_test_006_006_execute+0x1d8>)
 80085d6:	9805      	ldr	r0, [sp, #20]
 80085d8:	2801      	cmp	r0, #1
 80085da:	bf14      	ite	ne
 80085dc:	2000      	movne	r0, #0
 80085de:	2001      	moveq	r0, #1
 80085e0:	f7f8 fe06 	bl	80011f0 <_test_assert>
 80085e4:	b918      	cbnz	r0, 80085ee <rt_test_006_006_execute+0x1ae>
 80085e6:	2300      	movs	r3, #0
 80085e8:	f383 8811 	msr	BASEPRI, r3
  test_end_step(6);
 80085ec:	e740      	b.n	8008470 <rt_test_006_006_execute+0x30>
 80085ee:	2300      	movs	r3, #0
 80085f0:	f383 8811 	msr	BASEPRI, r3
    test_assert_lock(chSemGetCounterI(&bsem.sem) == 1, "unexpected counter");
 80085f4:	e73c      	b.n	8008470 <rt_test_006_006_execute+0x30>
 80085f6:	bf00      	nop
 80085f8:	20001a7c 	.word	0x20001a7c
 80085fc:	0800cc48 	.word	0x0800cc48
 8008600:	20001040 	.word	0x20001040
 8008604:	08004611 	.word	0x08004611
 8008608:	20001368 	.word	0x20001368
 800860c:	20001a94 	.word	0x20001a94
 8008610:	0800cc54 	.word	0x0800cc54
 8008614:	0800cc68 	.word	0x0800cc68
 8008618:	0800cc74 	.word	0x0800cc74
 800861c:	0800cc4c 	.word	0x0800cc4c

08008620 <rt_test_006_005_execute>:
static void rt_test_006_005_execute(void) {
 8008620:	b510      	push	{r4, lr}
 8008622:	b082      	sub	sp, #8
  test_set_step(1);
 8008624:	4c22      	ldr	r4, [pc, #136]	; (80086b0 <rt_test_006_005_execute+0x90>)
 8008626:	2301      	movs	r3, #1
 8008628:	6023      	str	r3, [r4, #0]
  return ch.rlist.current;
 800862a:	4b22      	ldr	r3, [pc, #136]	; (80086b4 <rt_test_006_005_execute+0x94>)
 800862c:	699b      	ldr	r3, [r3, #24]
  return chThdGetSelfX()->prio;
 800862e:	689a      	ldr	r2, [r3, #8]
    threads[0] = chThdCreateStatic(wa[0], WA_SIZE, chThdGetPriorityX()+1, thread3, 0);
 8008630:	2300      	movs	r3, #0
 8008632:	9300      	str	r3, [sp, #0]
 8008634:	4b20      	ldr	r3, [pc, #128]	; (80086b8 <rt_test_006_005_execute+0x98>)
 8008636:	3201      	adds	r2, #1
 8008638:	f44f 71a4 	mov.w	r1, #328	; 0x148
 800863c:	481f      	ldr	r0, [pc, #124]	; (80086bc <rt_test_006_005_execute+0x9c>)
 800863e:	f7fe ff1f 	bl	8007480 <chThdCreateStatic>
 8008642:	4b1f      	ldr	r3, [pc, #124]	; (80086c0 <rt_test_006_005_execute+0xa0>)
 8008644:	6018      	str	r0, [r3, #0]
  test_set_step(2);
 8008646:	2302      	movs	r3, #2
 8008648:	6023      	str	r3, [r4, #0]
    chSemSignalWait(&sem1, &sem1);
 800864a:	4c1e      	ldr	r4, [pc, #120]	; (80086c4 <rt_test_006_005_execute+0xa4>)
 800864c:	4621      	mov	r1, r4
 800864e:	4620      	mov	r0, r4
 8008650:	f7fb ff7e 	bl	8004550 <chSemSignalWait>
  return (bool)(tqp->next == (const thread_t *)tqp);
 8008654:	6820      	ldr	r0, [r4, #0]
    test_assert(queue_isempty(&sem1.queue), "queue not empty");
 8008656:	491c      	ldr	r1, [pc, #112]	; (80086c8 <rt_test_006_005_execute+0xa8>)
 8008658:	42a0      	cmp	r0, r4
 800865a:	bf14      	ite	ne
 800865c:	2000      	movne	r0, #0
 800865e:	2001      	moveq	r0, #1
 8008660:	f7f8 fdc6 	bl	80011f0 <_test_assert>
 8008664:	b108      	cbz	r0, 800866a <rt_test_006_005_execute+0x4a>
}
 8008666:	b002      	add	sp, #8
 8008668:	bd10      	pop	{r4, pc}
    test_assert(sem1.cnt == 0, "counter not zero");
 800866a:	68a0      	ldr	r0, [r4, #8]
 800866c:	4917      	ldr	r1, [pc, #92]	; (80086cc <rt_test_006_005_execute+0xac>)
 800866e:	fab0 f080 	clz	r0, r0
 8008672:	0940      	lsrs	r0, r0, #5
 8008674:	f7f8 fdbc 	bl	80011f0 <_test_assert>
 8008678:	2800      	cmp	r0, #0
 800867a:	d1f4      	bne.n	8008666 <rt_test_006_005_execute+0x46>
  test_set_step(3);
 800867c:	4b0c      	ldr	r3, [pc, #48]	; (80086b0 <rt_test_006_005_execute+0x90>)
 800867e:	2203      	movs	r2, #3
 8008680:	601a      	str	r2, [r3, #0]
    chSemSignalWait(&sem1, &sem1);
 8008682:	4621      	mov	r1, r4
 8008684:	4620      	mov	r0, r4
 8008686:	f7fb ff63 	bl	8004550 <chSemSignalWait>
 800868a:	6820      	ldr	r0, [r4, #0]
    test_assert(queue_isempty(&sem1.queue), "queue not empty");
 800868c:	490e      	ldr	r1, [pc, #56]	; (80086c8 <rt_test_006_005_execute+0xa8>)
 800868e:	42a0      	cmp	r0, r4
 8008690:	bf14      	ite	ne
 8008692:	2000      	movne	r0, #0
 8008694:	2001      	moveq	r0, #1
 8008696:	f7f8 fdab 	bl	80011f0 <_test_assert>
 800869a:	2800      	cmp	r0, #0
 800869c:	d1e3      	bne.n	8008666 <rt_test_006_005_execute+0x46>
    test_assert(sem1.cnt == 0, "counter not zero");
 800869e:	68a0      	ldr	r0, [r4, #8]
 80086a0:	490a      	ldr	r1, [pc, #40]	; (80086cc <rt_test_006_005_execute+0xac>)
 80086a2:	fab0 f080 	clz	r0, r0
 80086a6:	0940      	lsrs	r0, r0, #5
 80086a8:	f7f8 fda2 	bl	80011f0 <_test_assert>
  test_end_step(3);
 80086ac:	e7db      	b.n	8008666 <rt_test_006_005_execute+0x46>
 80086ae:	bf00      	nop
 80086b0:	20001a7c 	.word	0x20001a7c
 80086b4:	20001040 	.word	0x20001040
 80086b8:	08002521 	.word	0x08002521
 80086bc:	20001368 	.word	0x20001368
 80086c0:	20001a94 	.word	0x20001a94
 80086c4:	20001348 	.word	0x20001348
 80086c8:	0800c53c 	.word	0x0800c53c
 80086cc:	0800cc88 	.word	0x0800cc88

080086d0 <rt_test_006_004_execute>:
static void rt_test_006_004_execute(void) {
 80086d0:	b530      	push	{r4, r5, lr}
 80086d2:	b083      	sub	sp, #12
  test_set_step(1);
 80086d4:	4c1c      	ldr	r4, [pc, #112]	; (8008748 <rt_test_006_004_execute+0x78>)
 80086d6:	2301      	movs	r3, #1
 80086d8:	6023      	str	r3, [r4, #0]
  return ch.rlist.current;
 80086da:	4b1c      	ldr	r3, [pc, #112]	; (800874c <rt_test_006_004_execute+0x7c>)
 80086dc:	699b      	ldr	r3, [r3, #24]
  return chThdGetSelfX()->prio;
 80086de:	689a      	ldr	r2, [r3, #8]
    threads[0] = chThdCreateStatic(wa[0], WA_SIZE, chThdGetPriorityX()+1, thread1, "A");
 80086e0:	4b1b      	ldr	r3, [pc, #108]	; (8008750 <rt_test_006_004_execute+0x80>)
 80086e2:	9300      	str	r3, [sp, #0]
 80086e4:	4b1b      	ldr	r3, [pc, #108]	; (8008754 <rt_test_006_004_execute+0x84>)
 80086e6:	3201      	adds	r2, #1
 80086e8:	f44f 71a4 	mov.w	r1, #328	; 0x148
 80086ec:	481a      	ldr	r0, [pc, #104]	; (8008758 <rt_test_006_004_execute+0x88>)
 80086ee:	f7fe fec7 	bl	8007480 <chThdCreateStatic>
 80086f2:	4b1a      	ldr	r3, [pc, #104]	; (800875c <rt_test_006_004_execute+0x8c>)
 80086f4:	6018      	str	r0, [r3, #0]
  test_set_step(2);
 80086f6:	2102      	movs	r1, #2
 80086f8:	6021      	str	r1, [r4, #0]
 80086fa:	2520      	movs	r5, #32
 80086fc:	f385 8811 	msr	BASEPRI, r5
    chSemAddCounterI(&sem1, 2);
 8008700:	4c17      	ldr	r4, [pc, #92]	; (8008760 <rt_test_006_004_execute+0x90>)
 8008702:	4620      	mov	r0, r4
 8008704:	f7fb ff54 	bl	80045b0 <chSemAddCounterI>
    chSchRescheduleS();
 8008708:	f001 fec2 	bl	800a490 <chSchRescheduleS>
 800870c:	2300      	movs	r3, #0
 800870e:	f383 8811 	msr	BASEPRI, r3
    test_wait_threads();
 8008712:	f7fb faed 	bl	8003cf0 <test_wait_threads>
 8008716:	f385 8811 	msr	BASEPRI, r5
  return sp->cnt;
 800871a:	68a0      	ldr	r0, [r4, #8]
    test_assert_lock(chSemGetCounterI(&sem1) == 1, "invalid counter");
 800871c:	4911      	ldr	r1, [pc, #68]	; (8008764 <rt_test_006_004_execute+0x94>)
 800871e:	2801      	cmp	r0, #1
 8008720:	bf14      	ite	ne
 8008722:	2000      	movne	r0, #0
 8008724:	2001      	moveq	r0, #1
 8008726:	f7f8 fd63 	bl	80011f0 <_test_assert>
 800872a:	b120      	cbz	r0, 8008736 <rt_test_006_004_execute+0x66>
 800872c:	2300      	movs	r3, #0
 800872e:	f383 8811 	msr	BASEPRI, r3
}
 8008732:	b003      	add	sp, #12
 8008734:	bd30      	pop	{r4, r5, pc}
 8008736:	2300      	movs	r3, #0
 8008738:	f383 8811 	msr	BASEPRI, r3
    test_assert_sequence("A", "invalid sequence");
 800873c:	490a      	ldr	r1, [pc, #40]	; (8008768 <rt_test_006_004_execute+0x98>)
 800873e:	4804      	ldr	r0, [pc, #16]	; (8008750 <rt_test_006_004_execute+0x80>)
 8008740:	f7f8 fe06 	bl	8001350 <_test_assert_sequence>
  test_end_step(2);
 8008744:	e7f5      	b.n	8008732 <rt_test_006_004_execute+0x62>
 8008746:	bf00      	nop
 8008748:	20001a7c 	.word	0x20001a7c
 800874c:	20001040 	.word	0x20001040
 8008750:	0800cbd4 	.word	0x0800cbd4
 8008754:	08002541 	.word	0x08002541
 8008758:	20001368 	.word	0x20001368
 800875c:	20001a94 	.word	0x20001a94
 8008760:	20001348 	.word	0x20001348
 8008764:	0800cc9c 	.word	0x0800cc9c
 8008768:	0800c114 	.word	0x0800c114
 800876c:	00000000 	.word	0x00000000

08008770 <rt_test_006_003_execute>:
static void rt_test_006_003_execute(void) {
 8008770:	b570      	push	{r4, r5, r6, lr}
 8008772:	b082      	sub	sp, #8
  test_set_step(1);
 8008774:	4b50      	ldr	r3, [pc, #320]	; (80088b8 <rt_test_006_003_execute+0x148>)
 8008776:	2201      	movs	r2, #1
 8008778:	601a      	str	r2, [r3, #0]
    msg = chSemWaitTimeout(&sem1, TIME_IMMEDIATE);
 800877a:	2100      	movs	r1, #0
 800877c:	484f      	ldr	r0, [pc, #316]	; (80088bc <rt_test_006_003_execute+0x14c>)
 800877e:	f7fc fcf7 	bl	8005170 <chSemWaitTimeout>
    test_assert(msg == MSG_TIMEOUT, "wrong wake-up message");
 8008782:	494f      	ldr	r1, [pc, #316]	; (80088c0 <rt_test_006_003_execute+0x150>)
 8008784:	f1b0 3fff 	cmp.w	r0, #4294967295	; 0xffffffff
 8008788:	bf14      	ite	ne
 800878a:	2000      	movne	r0, #0
 800878c:	2001      	moveq	r0, #1
 800878e:	f7f8 fd2f 	bl	80011f0 <_test_assert>
 8008792:	b108      	cbz	r0, 8008798 <rt_test_006_003_execute+0x28>
}
 8008794:	b002      	add	sp, #8
 8008796:	bd70      	pop	{r4, r5, r6, pc}
 8008798:	4b48      	ldr	r3, [pc, #288]	; (80088bc <rt_test_006_003_execute+0x14c>)
 800879a:	6818      	ldr	r0, [r3, #0]
    test_assert(queue_isempty(&sem1.queue), "queue not empty");
 800879c:	4949      	ldr	r1, [pc, #292]	; (80088c4 <rt_test_006_003_execute+0x154>)
 800879e:	4298      	cmp	r0, r3
 80087a0:	bf14      	ite	ne
 80087a2:	2000      	movne	r0, #0
 80087a4:	2001      	moveq	r0, #1
 80087a6:	f7f8 fd23 	bl	80011f0 <_test_assert>
 80087aa:	2800      	cmp	r0, #0
 80087ac:	d1f2      	bne.n	8008794 <rt_test_006_003_execute+0x24>
    test_assert(sem1.cnt == 0, "counter not zero");
 80087ae:	4b43      	ldr	r3, [pc, #268]	; (80088bc <rt_test_006_003_execute+0x14c>)
 80087b0:	6898      	ldr	r0, [r3, #8]
 80087b2:	4945      	ldr	r1, [pc, #276]	; (80088c8 <rt_test_006_003_execute+0x158>)
 80087b4:	fab0 f080 	clz	r0, r0
 80087b8:	0940      	lsrs	r0, r0, #5
 80087ba:	f7f8 fd19 	bl	80011f0 <_test_assert>
 80087be:	2800      	cmp	r0, #0
 80087c0:	d1e8      	bne.n	8008794 <rt_test_006_003_execute+0x24>
  test_set_step(2);
 80087c2:	4b3d      	ldr	r3, [pc, #244]	; (80088b8 <rt_test_006_003_execute+0x148>)
 80087c4:	2202      	movs	r2, #2
 80087c6:	601a      	str	r2, [r3, #0]
  return ch.rlist.current;
 80087c8:	4b40      	ldr	r3, [pc, #256]	; (80088cc <rt_test_006_003_execute+0x15c>)
 80087ca:	699b      	ldr	r3, [r3, #24]
  return chThdGetSelfX()->prio;
 80087cc:	689a      	ldr	r2, [r3, #8]
    threads[0] = chThdCreateStatic(wa[0], WA_SIZE, chThdGetPriorityX() - 1,
 80087ce:	2300      	movs	r3, #0
 80087d0:	9300      	str	r3, [sp, #0]
 80087d2:	4b3f      	ldr	r3, [pc, #252]	; (80088d0 <rt_test_006_003_execute+0x160>)
 80087d4:	3a01      	subs	r2, #1
 80087d6:	f44f 71a4 	mov.w	r1, #328	; 0x148
 80087da:	483e      	ldr	r0, [pc, #248]	; (80088d4 <rt_test_006_003_execute+0x164>)
 80087dc:	f7fe fe50 	bl	8007480 <chThdCreateStatic>
 80087e0:	4b3d      	ldr	r3, [pc, #244]	; (80088d8 <rt_test_006_003_execute+0x168>)
 80087e2:	6018      	str	r0, [r3, #0]
    msg = chSemWaitTimeout(&sem1, TIME_MS2I(500));
 80087e4:	f241 3188 	movw	r1, #5000	; 0x1388
 80087e8:	4834      	ldr	r0, [pc, #208]	; (80088bc <rt_test_006_003_execute+0x14c>)
 80087ea:	f7fc fcc1 	bl	8005170 <chSemWaitTimeout>
 80087ee:	4604      	mov	r4, r0
    test_wait_threads();
 80087f0:	f7fb fa7e 	bl	8003cf0 <test_wait_threads>
    test_assert(msg == MSG_OK, "wrong wake-up message");
 80087f4:	4932      	ldr	r1, [pc, #200]	; (80088c0 <rt_test_006_003_execute+0x150>)
 80087f6:	fab4 f084 	clz	r0, r4
 80087fa:	0940      	lsrs	r0, r0, #5
 80087fc:	f7f8 fcf8 	bl	80011f0 <_test_assert>
 8008800:	2800      	cmp	r0, #0
 8008802:	d1c7      	bne.n	8008794 <rt_test_006_003_execute+0x24>
 8008804:	4b2d      	ldr	r3, [pc, #180]	; (80088bc <rt_test_006_003_execute+0x14c>)
 8008806:	6818      	ldr	r0, [r3, #0]
    test_assert(queue_isempty(&sem1.queue), "queue not empty");
 8008808:	492e      	ldr	r1, [pc, #184]	; (80088c4 <rt_test_006_003_execute+0x154>)
 800880a:	4298      	cmp	r0, r3
 800880c:	bf14      	ite	ne
 800880e:	2000      	movne	r0, #0
 8008810:	2001      	moveq	r0, #1
 8008812:	f7f8 fced 	bl	80011f0 <_test_assert>
 8008816:	2800      	cmp	r0, #0
 8008818:	d1bc      	bne.n	8008794 <rt_test_006_003_execute+0x24>
    test_assert(sem1.cnt == 0, "counter not zero");
 800881a:	4b28      	ldr	r3, [pc, #160]	; (80088bc <rt_test_006_003_execute+0x14c>)
 800881c:	6898      	ldr	r0, [r3, #8]
 800881e:	492a      	ldr	r1, [pc, #168]	; (80088c8 <rt_test_006_003_execute+0x158>)
 8008820:	fab0 f080 	clz	r0, r0
 8008824:	0940      	lsrs	r0, r0, #5
 8008826:	f7f8 fce3 	bl	80011f0 <_test_assert>
 800882a:	2800      	cmp	r0, #0
 800882c:	d1b2      	bne.n	8008794 <rt_test_006_003_execute+0x24>
  test_set_step(3);
 800882e:	4b22      	ldr	r3, [pc, #136]	; (80088b8 <rt_test_006_003_execute+0x148>)
 8008830:	2203      	movs	r2, #3
 8008832:	601a      	str	r2, [r3, #0]
    target_time = chTimeAddX(test_wait_tick(), TIME_MS2I(5 * 50));
 8008834:	f7fc ff14 	bl	8005660 <test_wait_tick>
 8008838:	4605      	mov	r5, r0
 800883a:	f600 16c4 	addw	r6, r0, #2500	; 0x9c4
    for (i = 0; i < 5; i++) {
 800883e:	2400      	movs	r4, #0
 8008840:	2c04      	cmp	r4, #4
 8008842:	d82b      	bhi.n	800889c <rt_test_006_003_execute+0x12c>
      test_emit_token('A' + i);
 8008844:	f104 0041 	add.w	r0, r4, #65	; 0x41
 8008848:	b2c0      	uxtb	r0, r0
 800884a:	f7f7 ffe1 	bl	8000810 <test_emit_token>
      msg = chSemWaitTimeout(&sem1, TIME_MS2I(50));
 800884e:	f44f 71fa 	mov.w	r1, #500	; 0x1f4
 8008852:	481a      	ldr	r0, [pc, #104]	; (80088bc <rt_test_006_003_execute+0x14c>)
 8008854:	f7fc fc8c 	bl	8005170 <chSemWaitTimeout>
      test_assert(msg == MSG_TIMEOUT, "wrong wake-up message");
 8008858:	4919      	ldr	r1, [pc, #100]	; (80088c0 <rt_test_006_003_execute+0x150>)
 800885a:	f1b0 3fff 	cmp.w	r0, #4294967295	; 0xffffffff
 800885e:	bf14      	ite	ne
 8008860:	2000      	movne	r0, #0
 8008862:	2001      	moveq	r0, #1
 8008864:	f7f8 fcc4 	bl	80011f0 <_test_assert>
 8008868:	2800      	cmp	r0, #0
 800886a:	d193      	bne.n	8008794 <rt_test_006_003_execute+0x24>
 800886c:	4b13      	ldr	r3, [pc, #76]	; (80088bc <rt_test_006_003_execute+0x14c>)
 800886e:	6818      	ldr	r0, [r3, #0]
      test_assert(queue_isempty(&sem1.queue), "queue not empty");
 8008870:	4914      	ldr	r1, [pc, #80]	; (80088c4 <rt_test_006_003_execute+0x154>)
 8008872:	4298      	cmp	r0, r3
 8008874:	bf14      	ite	ne
 8008876:	2000      	movne	r0, #0
 8008878:	2001      	moveq	r0, #1
 800887a:	f7f8 fcb9 	bl	80011f0 <_test_assert>
 800887e:	2800      	cmp	r0, #0
 8008880:	d188      	bne.n	8008794 <rt_test_006_003_execute+0x24>
      test_assert(sem1.cnt == 0, "counter not zero");
 8008882:	4b0e      	ldr	r3, [pc, #56]	; (80088bc <rt_test_006_003_execute+0x14c>)
 8008884:	6898      	ldr	r0, [r3, #8]
 8008886:	4910      	ldr	r1, [pc, #64]	; (80088c8 <rt_test_006_003_execute+0x158>)
 8008888:	fab0 f080 	clz	r0, r0
 800888c:	0940      	lsrs	r0, r0, #5
 800888e:	f7f8 fcaf 	bl	80011f0 <_test_assert>
 8008892:	2800      	cmp	r0, #0
 8008894:	f47f af7e 	bne.w	8008794 <rt_test_006_003_execute+0x24>
    for (i = 0; i < 5; i++) {
 8008898:	3401      	adds	r4, #1
 800889a:	e7d1      	b.n	8008840 <rt_test_006_003_execute+0xd0>
    test_assert_sequence("ABCDE", "invalid sequence");
 800889c:	490f      	ldr	r1, [pc, #60]	; (80088dc <rt_test_006_003_execute+0x16c>)
 800889e:	4810      	ldr	r0, [pc, #64]	; (80088e0 <rt_test_006_003_execute+0x170>)
 80088a0:	f7f8 fd56 	bl	8001350 <_test_assert_sequence>
 80088a4:	2800      	cmp	r0, #0
 80088a6:	f47f af75 	bne.w	8008794 <rt_test_006_003_execute+0x24>
    test_assert_time_window(target_time,
 80088aa:	4a0e      	ldr	r2, [pc, #56]	; (80088e4 <rt_test_006_003_execute+0x174>)
 80088ac:	f605 11d8 	addw	r1, r5, #2520	; 0x9d8
 80088b0:	4630      	mov	r0, r6
 80088b2:	f7f9 fc55 	bl	8002160 <_test_assert_time_window>
  test_end_step(3);
 80088b6:	e76d      	b.n	8008794 <rt_test_006_003_execute+0x24>
 80088b8:	20001a7c 	.word	0x20001a7c
 80088bc:	20001348 	.word	0x20001348
 80088c0:	0800caa8 	.word	0x0800caa8
 80088c4:	0800c53c 	.word	0x0800c53c
 80088c8:	0800cc88 	.word	0x0800cc88
 80088cc:	20001040 	.word	0x20001040
 80088d0:	08005491 	.word	0x08005491
 80088d4:	20001368 	.word	0x20001368
 80088d8:	20001a94 	.word	0x20001a94
 80088dc:	0800c114 	.word	0x0800c114
 80088e0:	0800cc40 	.word	0x0800cc40
 80088e4:	0800c898 	.word	0x0800c898
	...

080088f0 <rt_test_006_002_execute>:
static void rt_test_006_002_execute(void) {
 80088f0:	e92d 41f0 	stmdb	sp!, {r4, r5, r6, r7, r8, lr}
 80088f4:	b082      	sub	sp, #8
  test_set_step(1);
 80088f6:	f8df 80f8 	ldr.w	r8, [pc, #248]	; 80089f0 <rt_test_006_002_execute+0x100>
 80088fa:	2301      	movs	r3, #1
 80088fc:	f8c8 3000 	str.w	r3, [r8]
  return ch.rlist.current;
 8008900:	4f2f      	ldr	r7, [pc, #188]	; (80089c0 <rt_test_006_002_execute+0xd0>)
 8008902:	69bb      	ldr	r3, [r7, #24]
  return chThdGetSelfX()->prio;
 8008904:	689a      	ldr	r2, [r3, #8]
    threads[0] = chThdCreateStatic(wa[0], WA_SIZE, chThdGetPriorityX()+5, thread1, "A");
 8008906:	4e2f      	ldr	r6, [pc, #188]	; (80089c4 <rt_test_006_002_execute+0xd4>)
 8008908:	4d2f      	ldr	r5, [pc, #188]	; (80089c8 <rt_test_006_002_execute+0xd8>)
 800890a:	4b30      	ldr	r3, [pc, #192]	; (80089cc <rt_test_006_002_execute+0xdc>)
 800890c:	9300      	str	r3, [sp, #0]
 800890e:	4633      	mov	r3, r6
 8008910:	3205      	adds	r2, #5
 8008912:	f44f 71a4 	mov.w	r1, #328	; 0x148
 8008916:	4628      	mov	r0, r5
 8008918:	f7fe fdb2 	bl	8007480 <chThdCreateStatic>
 800891c:	4c2c      	ldr	r4, [pc, #176]	; (80089d0 <rt_test_006_002_execute+0xe0>)
 800891e:	6020      	str	r0, [r4, #0]
  return ch.rlist.current;
 8008920:	69bb      	ldr	r3, [r7, #24]
  return chThdGetSelfX()->prio;
 8008922:	689a      	ldr	r2, [r3, #8]
    threads[1] = chThdCreateStatic(wa[1], WA_SIZE, chThdGetPriorityX()+1, thread1, "B");
 8008924:	4b2b      	ldr	r3, [pc, #172]	; (80089d4 <rt_test_006_002_execute+0xe4>)
 8008926:	9300      	str	r3, [sp, #0]
 8008928:	4633      	mov	r3, r6
 800892a:	3201      	adds	r2, #1
 800892c:	f44f 71a4 	mov.w	r1, #328	; 0x148
 8008930:	1868      	adds	r0, r5, r1
 8008932:	f7fe fda5 	bl	8007480 <chThdCreateStatic>
 8008936:	6060      	str	r0, [r4, #4]
  return ch.rlist.current;
 8008938:	69bb      	ldr	r3, [r7, #24]
  return chThdGetSelfX()->prio;
 800893a:	689a      	ldr	r2, [r3, #8]
    threads[2] = chThdCreateStatic(wa[2], WA_SIZE, chThdGetPriorityX()+3, thread1, "C");
 800893c:	4b26      	ldr	r3, [pc, #152]	; (80089d8 <rt_test_006_002_execute+0xe8>)
 800893e:	9300      	str	r3, [sp, #0]
 8008940:	4633      	mov	r3, r6
 8008942:	3203      	adds	r2, #3
 8008944:	f44f 71a4 	mov.w	r1, #328	; 0x148
 8008948:	f505 7024 	add.w	r0, r5, #656	; 0x290
 800894c:	f7fe fd98 	bl	8007480 <chThdCreateStatic>
 8008950:	60a0      	str	r0, [r4, #8]
  return ch.rlist.current;
 8008952:	69bb      	ldr	r3, [r7, #24]
  return chThdGetSelfX()->prio;
 8008954:	689a      	ldr	r2, [r3, #8]
    threads[3] = chThdCreateStatic(wa[3], WA_SIZE, chThdGetPriorityX()+4, thread1, "D");
 8008956:	4b21      	ldr	r3, [pc, #132]	; (80089dc <rt_test_006_002_execute+0xec>)
 8008958:	9300      	str	r3, [sp, #0]
 800895a:	4633      	mov	r3, r6
 800895c:	3204      	adds	r2, #4
 800895e:	f44f 71a4 	mov.w	r1, #328	; 0x148
 8008962:	f505 7076 	add.w	r0, r5, #984	; 0x3d8
 8008966:	f7fe fd8b 	bl	8007480 <chThdCreateStatic>
 800896a:	60e0      	str	r0, [r4, #12]
  return ch.rlist.current;
 800896c:	69bb      	ldr	r3, [r7, #24]
  return chThdGetSelfX()->prio;
 800896e:	689a      	ldr	r2, [r3, #8]
    threads[4] = chThdCreateStatic(wa[4], WA_SIZE, chThdGetPriorityX()+2, thread1, "E");
 8008970:	4b1b      	ldr	r3, [pc, #108]	; (80089e0 <rt_test_006_002_execute+0xf0>)
 8008972:	9300      	str	r3, [sp, #0]
 8008974:	4633      	mov	r3, r6
 8008976:	3202      	adds	r2, #2
 8008978:	f44f 71a4 	mov.w	r1, #328	; 0x148
 800897c:	f505 60a4 	add.w	r0, r5, #1312	; 0x520
 8008980:	f7fe fd7e 	bl	8007480 <chThdCreateStatic>
 8008984:	6120      	str	r0, [r4, #16]
  test_set_step(2);
 8008986:	2302      	movs	r3, #2
 8008988:	f8c8 3000 	str.w	r3, [r8]
    chSemSignal(&sem1);
 800898c:	4c15      	ldr	r4, [pc, #84]	; (80089e4 <rt_test_006_002_execute+0xf4>)
 800898e:	4620      	mov	r0, r4
 8008990:	f7f9 fc1e 	bl	80021d0 <chSemSignal>
    chSemSignal(&sem1);
 8008994:	4620      	mov	r0, r4
 8008996:	f7f9 fc1b 	bl	80021d0 <chSemSignal>
    chSemSignal(&sem1);
 800899a:	4620      	mov	r0, r4
 800899c:	f7f9 fc18 	bl	80021d0 <chSemSignal>
    chSemSignal(&sem1);
 80089a0:	4620      	mov	r0, r4
 80089a2:	f7f9 fc15 	bl	80021d0 <chSemSignal>
    chSemSignal(&sem1);
 80089a6:	4620      	mov	r0, r4
 80089a8:	f7f9 fc12 	bl	80021d0 <chSemSignal>
    test_wait_threads();
 80089ac:	f7fb f9a0 	bl	8003cf0 <test_wait_threads>
    test_assert_sequence("ABCDE", "invalid sequence");
 80089b0:	490d      	ldr	r1, [pc, #52]	; (80089e8 <rt_test_006_002_execute+0xf8>)
 80089b2:	480e      	ldr	r0, [pc, #56]	; (80089ec <rt_test_006_002_execute+0xfc>)
 80089b4:	f7f8 fccc 	bl	8001350 <_test_assert_sequence>
}
 80089b8:	b002      	add	sp, #8
 80089ba:	e8bd 81f0 	ldmia.w	sp!, {r4, r5, r6, r7, r8, pc}
 80089be:	bf00      	nop
 80089c0:	20001040 	.word	0x20001040
 80089c4:	08002541 	.word	0x08002541
 80089c8:	20001368 	.word	0x20001368
 80089cc:	0800cbd4 	.word	0x0800cbd4
 80089d0:	20001a94 	.word	0x20001a94
 80089d4:	0800cc3c 	.word	0x0800cc3c
 80089d8:	0800cc38 	.word	0x0800cc38
 80089dc:	0800d7e4 	.word	0x0800d7e4
 80089e0:	0800cc44 	.word	0x0800cc44
 80089e4:	20001348 	.word	0x20001348
 80089e8:	0800c114 	.word	0x0800c114
 80089ec:	0800cc40 	.word	0x0800cc40
 80089f0:	20001a7c 	.word	0x20001a7c
	...

08008a00 <rt_test_005_001_execute>:

static void rt_test_005_001_execute(void) {
 8008a00:	b530      	push	{r4, r5, lr}
 8008a02:	b083      	sub	sp, #12
  msg_t msg;

  /* [5.1.1] The function chThdSuspendTimeoutS() is invoked, the thread
     is remotely resumed with message @p MSG_OK. On return the message
     and the state of the reference are tested.*/
  test_set_step(1);
 8008a04:	4b30      	ldr	r3, [pc, #192]	; (8008ac8 <rt_test_005_001_execute+0xc8>)
 8008a06:	2201      	movs	r2, #1
 8008a08:	601a      	str	r2, [r3, #0]
  return ch.rlist.current;
 8008a0a:	4b30      	ldr	r3, [pc, #192]	; (8008acc <rt_test_005_001_execute+0xcc>)
 8008a0c:	699b      	ldr	r3, [r3, #24]
  return chThdGetSelfX()->prio;
 8008a0e:	689a      	ldr	r2, [r3, #8]
  {
    threads[0] = chThdCreateStatic(wa[0], WA_SIZE, chThdGetPriorityX()-1, thread1, "A");
 8008a10:	4b2f      	ldr	r3, [pc, #188]	; (8008ad0 <rt_test_005_001_execute+0xd0>)
 8008a12:	9300      	str	r3, [sp, #0]
 8008a14:	4b2f      	ldr	r3, [pc, #188]	; (8008ad4 <rt_test_005_001_execute+0xd4>)
 8008a16:	3a01      	subs	r2, #1
 8008a18:	f44f 71a4 	mov.w	r1, #328	; 0x148
 8008a1c:	482e      	ldr	r0, [pc, #184]	; (8008ad8 <rt_test_005_001_execute+0xd8>)
 8008a1e:	f7fe fd2f 	bl	8007480 <chThdCreateStatic>
 8008a22:	4b2e      	ldr	r3, [pc, #184]	; (8008adc <rt_test_005_001_execute+0xdc>)
 8008a24:	6018      	str	r0, [r3, #0]
 8008a26:	2320      	movs	r3, #32
 8008a28:	f383 8811 	msr	BASEPRI, r3
    chSysLock();
    msg = chThdSuspendTimeoutS(&tr1, TIME_INFINITE);
 8008a2c:	4d2c      	ldr	r5, [pc, #176]	; (8008ae0 <rt_test_005_001_execute+0xe0>)
 8008a2e:	f04f 31ff 	mov.w	r1, #4294967295	; 0xffffffff
 8008a32:	4628      	mov	r0, r5
 8008a34:	f7fc fbac 	bl	8005190 <chThdSuspendTimeoutS>
 8008a38:	4604      	mov	r4, r0
 8008a3a:	2300      	movs	r3, #0
 8008a3c:	f383 8811 	msr	BASEPRI, r3
    chSysUnlock();
    test_assert(NULL == tr1, "not NULL");
 8008a40:	6828      	ldr	r0, [r5, #0]
 8008a42:	4928      	ldr	r1, [pc, #160]	; (8008ae4 <rt_test_005_001_execute+0xe4>)
 8008a44:	fab0 f080 	clz	r0, r0
 8008a48:	0940      	lsrs	r0, r0, #5
 8008a4a:	f7f8 fbd1 	bl	80011f0 <_test_assert>
 8008a4e:	b108      	cbz	r0, 8008a54 <rt_test_005_001_execute+0x54>
                            "out of time window");
    test_assert(NULL == tr1, "not NULL");
    test_assert(MSG_TIMEOUT == msg, "wrong returned message");
  }
  test_end_step(2);
}
 8008a50:	b003      	add	sp, #12
 8008a52:	bd30      	pop	{r4, r5, pc}
    test_assert(MSG_OK == msg,"wrong returned message");
 8008a54:	4924      	ldr	r1, [pc, #144]	; (8008ae8 <rt_test_005_001_execute+0xe8>)
 8008a56:	fab4 f084 	clz	r0, r4
 8008a5a:	0940      	lsrs	r0, r0, #5
 8008a5c:	f7f8 fbc8 	bl	80011f0 <_test_assert>
 8008a60:	2800      	cmp	r0, #0
 8008a62:	d1f5      	bne.n	8008a50 <rt_test_005_001_execute+0x50>
    test_wait_threads();
 8008a64:	f7fb f944 	bl	8003cf0 <test_wait_threads>
  test_set_step(2);
 8008a68:	4b17      	ldr	r3, [pc, #92]	; (8008ac8 <rt_test_005_001_execute+0xc8>)
 8008a6a:	2202      	movs	r2, #2
 8008a6c:	601a      	str	r2, [r3, #0]
 8008a6e:	2320      	movs	r3, #32
 8008a70:	f383 8811 	msr	BASEPRI, r3
 8008a74:	f002 f9bc 	bl	800adf0 <stGetCounter>
 8008a78:	4604      	mov	r4, r0
    msg = chThdSuspendTimeoutS(&tr1, TIME_MS2I(1000));
 8008a7a:	f242 7110 	movw	r1, #10000	; 0x2710
 8008a7e:	4628      	mov	r0, r5
 8008a80:	f7fc fb86 	bl	8005190 <chThdSuspendTimeoutS>
 8008a84:	4605      	mov	r5, r0
 8008a86:	2300      	movs	r3, #0
 8008a88:	f383 8811 	msr	BASEPRI, r3
    test_assert_time_window(chTimeAddX(time, TIME_MS2I(1000)),
 8008a8c:	4a17      	ldr	r2, [pc, #92]	; (8008aec <rt_test_005_001_execute+0xec>)
 8008a8e:	f504 511c 	add.w	r1, r4, #9984	; 0x2700
 8008a92:	3113      	adds	r1, #19
 8008a94:	f504 501c 	add.w	r0, r4, #9984	; 0x2700
 8008a98:	3010      	adds	r0, #16
 8008a9a:	f7f9 fb61 	bl	8002160 <_test_assert_time_window>
 8008a9e:	2800      	cmp	r0, #0
 8008aa0:	d1d6      	bne.n	8008a50 <rt_test_005_001_execute+0x50>
    test_assert(NULL == tr1, "not NULL");
 8008aa2:	4b0f      	ldr	r3, [pc, #60]	; (8008ae0 <rt_test_005_001_execute+0xe0>)
 8008aa4:	6818      	ldr	r0, [r3, #0]
 8008aa6:	490f      	ldr	r1, [pc, #60]	; (8008ae4 <rt_test_005_001_execute+0xe4>)
 8008aa8:	fab0 f080 	clz	r0, r0
 8008aac:	0940      	lsrs	r0, r0, #5
 8008aae:	f7f8 fb9f 	bl	80011f0 <_test_assert>
 8008ab2:	2800      	cmp	r0, #0
 8008ab4:	d1cc      	bne.n	8008a50 <rt_test_005_001_execute+0x50>
    test_assert(MSG_TIMEOUT == msg, "wrong returned message");
 8008ab6:	490c      	ldr	r1, [pc, #48]	; (8008ae8 <rt_test_005_001_execute+0xe8>)
 8008ab8:	f1b5 3fff 	cmp.w	r5, #4294967295	; 0xffffffff
 8008abc:	bf14      	ite	ne
 8008abe:	2000      	movne	r0, #0
 8008ac0:	2001      	moveq	r0, #1
 8008ac2:	f7f8 fb95 	bl	80011f0 <_test_assert>
  test_end_step(2);
 8008ac6:	e7c3      	b.n	8008a50 <rt_test_005_001_execute+0x50>
 8008ac8:	20001a7c 	.word	0x20001a7c
 8008acc:	20001040 	.word	0x20001040
 8008ad0:	0800cbd4 	.word	0x0800cbd4
 8008ad4:	08006df1 	.word	0x08006df1
 8008ad8:	20001368 	.word	0x20001368
 8008adc:	20001a94 	.word	0x20001a94
 8008ae0:	20001aa8 	.word	0x20001aa8
 8008ae4:	0800ccac 	.word	0x0800ccac
 8008ae8:	0800c808 	.word	0x0800c808
 8008aec:	0800c898 	.word	0x0800c898

08008af0 <rt_test_004_002_execute>:
static void rt_test_004_002_execute(void) {
 8008af0:	b5f0      	push	{r4, r5, r6, r7, lr}
 8008af2:	b083      	sub	sp, #12
  test_set_step(1);
 8008af4:	4b70      	ldr	r3, [pc, #448]	; (8008cb8 <rt_test_004_002_execute+0x1c8>)
 8008af6:	2201      	movs	r2, #1
 8008af8:	601a      	str	r2, [r3, #0]
  return ch.rlist.current;
 8008afa:	4f70      	ldr	r7, [pc, #448]	; (8008cbc <rt_test_004_002_execute+0x1cc>)
 8008afc:	69bb      	ldr	r3, [r7, #24]
  return chThdGetSelfX()->prio;
 8008afe:	689a      	ldr	r2, [r3, #8]
    threads[0] = chThdCreateStatic(wa[0], WA_SIZE, chThdGetPriorityX()-5, thread, "E");
 8008b00:	4e6f      	ldr	r6, [pc, #444]	; (8008cc0 <rt_test_004_002_execute+0x1d0>)
 8008b02:	4d70      	ldr	r5, [pc, #448]	; (8008cc4 <rt_test_004_002_execute+0x1d4>)
 8008b04:	4b70      	ldr	r3, [pc, #448]	; (8008cc8 <rt_test_004_002_execute+0x1d8>)
 8008b06:	9300      	str	r3, [sp, #0]
 8008b08:	4633      	mov	r3, r6
 8008b0a:	3a05      	subs	r2, #5
 8008b0c:	f44f 71a4 	mov.w	r1, #328	; 0x148
 8008b10:	4628      	mov	r0, r5
 8008b12:	f7fe fcb5 	bl	8007480 <chThdCreateStatic>
 8008b16:	4c6d      	ldr	r4, [pc, #436]	; (8008ccc <rt_test_004_002_execute+0x1dc>)
 8008b18:	6020      	str	r0, [r4, #0]
  return ch.rlist.current;
 8008b1a:	69bb      	ldr	r3, [r7, #24]
  return chThdGetSelfX()->prio;
 8008b1c:	689a      	ldr	r2, [r3, #8]
    threads[1] = chThdCreateStatic(wa[1], WA_SIZE, chThdGetPriorityX()-4, thread, "D");
 8008b1e:	4b6c      	ldr	r3, [pc, #432]	; (8008cd0 <rt_test_004_002_execute+0x1e0>)
 8008b20:	9300      	str	r3, [sp, #0]
 8008b22:	4633      	mov	r3, r6
 8008b24:	3a04      	subs	r2, #4
 8008b26:	f44f 71a4 	mov.w	r1, #328	; 0x148
 8008b2a:	1868      	adds	r0, r5, r1
 8008b2c:	f7fe fca8 	bl	8007480 <chThdCreateStatic>
 8008b30:	6060      	str	r0, [r4, #4]
  return ch.rlist.current;
 8008b32:	69bb      	ldr	r3, [r7, #24]
  return chThdGetSelfX()->prio;
 8008b34:	689a      	ldr	r2, [r3, #8]
    threads[2] = chThdCreateStatic(wa[2], WA_SIZE, chThdGetPriorityX()-3, thread, "C");
 8008b36:	4b67      	ldr	r3, [pc, #412]	; (8008cd4 <rt_test_004_002_execute+0x1e4>)
 8008b38:	9300      	str	r3, [sp, #0]
 8008b3a:	4633      	mov	r3, r6
 8008b3c:	3a03      	subs	r2, #3
 8008b3e:	f44f 71a4 	mov.w	r1, #328	; 0x148
 8008b42:	f505 7024 	add.w	r0, r5, #656	; 0x290
 8008b46:	f7fe fc9b 	bl	8007480 <chThdCreateStatic>
 8008b4a:	60a0      	str	r0, [r4, #8]
  return ch.rlist.current;
 8008b4c:	69bb      	ldr	r3, [r7, #24]
  return chThdGetSelfX()->prio;
 8008b4e:	689a      	ldr	r2, [r3, #8]
    threads[3] = chThdCreateStatic(wa[3], WA_SIZE, chThdGetPriorityX()-2, thread, "B");
 8008b50:	4b61      	ldr	r3, [pc, #388]	; (8008cd8 <rt_test_004_002_execute+0x1e8>)
 8008b52:	9300      	str	r3, [sp, #0]
 8008b54:	4633      	mov	r3, r6
 8008b56:	3a02      	subs	r2, #2
 8008b58:	f44f 71a4 	mov.w	r1, #328	; 0x148
 8008b5c:	f505 7076 	add.w	r0, r5, #984	; 0x3d8
 8008b60:	f7fe fc8e 	bl	8007480 <chThdCreateStatic>
 8008b64:	60e0      	str	r0, [r4, #12]
  return ch.rlist.current;
 8008b66:	69bb      	ldr	r3, [r7, #24]
  return chThdGetSelfX()->prio;
 8008b68:	689a      	ldr	r2, [r3, #8]
    threads[4] = chThdCreateStatic(wa[4], WA_SIZE, chThdGetPriorityX()-1, thread, "A");
 8008b6a:	4b5c      	ldr	r3, [pc, #368]	; (8008cdc <rt_test_004_002_execute+0x1ec>)
 8008b6c:	9300      	str	r3, [sp, #0]
 8008b6e:	4633      	mov	r3, r6
 8008b70:	3a01      	subs	r2, #1
 8008b72:	f44f 71a4 	mov.w	r1, #328	; 0x148
 8008b76:	f505 60a4 	add.w	r0, r5, #1312	; 0x520
 8008b7a:	f7fe fc81 	bl	8007480 <chThdCreateStatic>
 8008b7e:	6120      	str	r0, [r4, #16]
    test_wait_threads();
 8008b80:	f7fb f8b6 	bl	8003cf0 <test_wait_threads>
    test_assert_sequence("ABCDE", "invalid sequence");
 8008b84:	4956      	ldr	r1, [pc, #344]	; (8008ce0 <rt_test_004_002_execute+0x1f0>)
 8008b86:	4857      	ldr	r0, [pc, #348]	; (8008ce4 <rt_test_004_002_execute+0x1f4>)
 8008b88:	f7f8 fbe2 	bl	8001350 <_test_assert_sequence>
 8008b8c:	b108      	cbz	r0, 8008b92 <rt_test_004_002_execute+0xa2>
}
 8008b8e:	b003      	add	sp, #12
 8008b90:	bdf0      	pop	{r4, r5, r6, r7, pc}
  test_set_step(2);
 8008b92:	4b49      	ldr	r3, [pc, #292]	; (8008cb8 <rt_test_004_002_execute+0x1c8>)
 8008b94:	2202      	movs	r2, #2
 8008b96:	601a      	str	r2, [r3, #0]
  return ch.rlist.current;
 8008b98:	69bb      	ldr	r3, [r7, #24]
  return chThdGetSelfX()->prio;
 8008b9a:	689a      	ldr	r2, [r3, #8]
    threads[4] = chThdCreateStatic(wa[4], WA_SIZE, chThdGetPriorityX()-1, thread, "A");
 8008b9c:	4b4f      	ldr	r3, [pc, #316]	; (8008cdc <rt_test_004_002_execute+0x1ec>)
 8008b9e:	9300      	str	r3, [sp, #0]
 8008ba0:	4633      	mov	r3, r6
 8008ba2:	3a01      	subs	r2, #1
 8008ba4:	f44f 71a4 	mov.w	r1, #328	; 0x148
 8008ba8:	f505 60a4 	add.w	r0, r5, #1312	; 0x520
 8008bac:	f7fe fc68 	bl	8007480 <chThdCreateStatic>
 8008bb0:	6120      	str	r0, [r4, #16]
  return ch.rlist.current;
 8008bb2:	69bb      	ldr	r3, [r7, #24]
  return chThdGetSelfX()->prio;
 8008bb4:	689a      	ldr	r2, [r3, #8]
    threads[3] = chThdCreateStatic(wa[3], WA_SIZE, chThdGetPriorityX()-2, thread, "B");
 8008bb6:	4b48      	ldr	r3, [pc, #288]	; (8008cd8 <rt_test_004_002_execute+0x1e8>)
 8008bb8:	9300      	str	r3, [sp, #0]
 8008bba:	4633      	mov	r3, r6
 8008bbc:	3a02      	subs	r2, #2
 8008bbe:	f44f 71a4 	mov.w	r1, #328	; 0x148
 8008bc2:	f505 7076 	add.w	r0, r5, #984	; 0x3d8
 8008bc6:	f7fe fc5b 	bl	8007480 <chThdCreateStatic>
 8008bca:	60e0      	str	r0, [r4, #12]
  return ch.rlist.current;
 8008bcc:	69bb      	ldr	r3, [r7, #24]
  return chThdGetSelfX()->prio;
 8008bce:	689a      	ldr	r2, [r3, #8]
    threads[2] = chThdCreateStatic(wa[2], WA_SIZE, chThdGetPriorityX()-3, thread, "C");
 8008bd0:	4b40      	ldr	r3, [pc, #256]	; (8008cd4 <rt_test_004_002_execute+0x1e4>)
 8008bd2:	9300      	str	r3, [sp, #0]
 8008bd4:	4633      	mov	r3, r6
 8008bd6:	3a03      	subs	r2, #3
 8008bd8:	f44f 71a4 	mov.w	r1, #328	; 0x148
 8008bdc:	f505 7024 	add.w	r0, r5, #656	; 0x290
 8008be0:	f7fe fc4e 	bl	8007480 <chThdCreateStatic>
 8008be4:	60a0      	str	r0, [r4, #8]
  return ch.rlist.current;
 8008be6:	69bb      	ldr	r3, [r7, #24]
  return chThdGetSelfX()->prio;
 8008be8:	689a      	ldr	r2, [r3, #8]
    threads[1] = chThdCreateStatic(wa[1], WA_SIZE, chThdGetPriorityX()-4, thread, "D");
 8008bea:	4b39      	ldr	r3, [pc, #228]	; (8008cd0 <rt_test_004_002_execute+0x1e0>)
 8008bec:	9300      	str	r3, [sp, #0]
 8008bee:	4633      	mov	r3, r6
 8008bf0:	3a04      	subs	r2, #4
 8008bf2:	f44f 71a4 	mov.w	r1, #328	; 0x148
 8008bf6:	1868      	adds	r0, r5, r1
 8008bf8:	f7fe fc42 	bl	8007480 <chThdCreateStatic>
 8008bfc:	6060      	str	r0, [r4, #4]
  return ch.rlist.current;
 8008bfe:	69bb      	ldr	r3, [r7, #24]
  return chThdGetSelfX()->prio;
 8008c00:	689a      	ldr	r2, [r3, #8]
    threads[0] = chThdCreateStatic(wa[0], WA_SIZE, chThdGetPriorityX()-5, thread, "E");
 8008c02:	4b31      	ldr	r3, [pc, #196]	; (8008cc8 <rt_test_004_002_execute+0x1d8>)
 8008c04:	9300      	str	r3, [sp, #0]
 8008c06:	4633      	mov	r3, r6
 8008c08:	3a05      	subs	r2, #5
 8008c0a:	f44f 71a4 	mov.w	r1, #328	; 0x148
 8008c0e:	4628      	mov	r0, r5
 8008c10:	f7fe fc36 	bl	8007480 <chThdCreateStatic>
 8008c14:	6020      	str	r0, [r4, #0]
    test_wait_threads();
 8008c16:	f7fb f86b 	bl	8003cf0 <test_wait_threads>
    test_assert_sequence("ABCDE", "invalid sequence");
 8008c1a:	4931      	ldr	r1, [pc, #196]	; (8008ce0 <rt_test_004_002_execute+0x1f0>)
 8008c1c:	4831      	ldr	r0, [pc, #196]	; (8008ce4 <rt_test_004_002_execute+0x1f4>)
 8008c1e:	f7f8 fb97 	bl	8001350 <_test_assert_sequence>
 8008c22:	2800      	cmp	r0, #0
 8008c24:	d1b3      	bne.n	8008b8e <rt_test_004_002_execute+0x9e>
  test_set_step(3);
 8008c26:	4b24      	ldr	r3, [pc, #144]	; (8008cb8 <rt_test_004_002_execute+0x1c8>)
 8008c28:	2203      	movs	r2, #3
 8008c2a:	601a      	str	r2, [r3, #0]
  return ch.rlist.current;
 8008c2c:	69bb      	ldr	r3, [r7, #24]
  return chThdGetSelfX()->prio;
 8008c2e:	689a      	ldr	r2, [r3, #8]
    threads[1] = chThdCreateStatic(wa[1], WA_SIZE, chThdGetPriorityX()-4, thread, "D");
 8008c30:	4b27      	ldr	r3, [pc, #156]	; (8008cd0 <rt_test_004_002_execute+0x1e0>)
 8008c32:	9300      	str	r3, [sp, #0]
 8008c34:	4633      	mov	r3, r6
 8008c36:	3a04      	subs	r2, #4
 8008c38:	f44f 71a4 	mov.w	r1, #328	; 0x148
 8008c3c:	1868      	adds	r0, r5, r1
 8008c3e:	f7fe fc1f 	bl	8007480 <chThdCreateStatic>
 8008c42:	6060      	str	r0, [r4, #4]
  return ch.rlist.current;
 8008c44:	69bb      	ldr	r3, [r7, #24]
  return chThdGetSelfX()->prio;
 8008c46:	689a      	ldr	r2, [r3, #8]
    threads[0] = chThdCreateStatic(wa[0], WA_SIZE, chThdGetPriorityX()-5, thread, "E");
 8008c48:	4b1f      	ldr	r3, [pc, #124]	; (8008cc8 <rt_test_004_002_execute+0x1d8>)
 8008c4a:	9300      	str	r3, [sp, #0]
 8008c4c:	4633      	mov	r3, r6
 8008c4e:	3a05      	subs	r2, #5
 8008c50:	f44f 71a4 	mov.w	r1, #328	; 0x148
 8008c54:	4628      	mov	r0, r5
 8008c56:	f7fe fc13 	bl	8007480 <chThdCreateStatic>
 8008c5a:	6020      	str	r0, [r4, #0]
  return ch.rlist.current;
 8008c5c:	69bb      	ldr	r3, [r7, #24]
  return chThdGetSelfX()->prio;
 8008c5e:	689a      	ldr	r2, [r3, #8]
    threads[4] = chThdCreateStatic(wa[4], WA_SIZE, chThdGetPriorityX()-1, thread, "A");
 8008c60:	4b1e      	ldr	r3, [pc, #120]	; (8008cdc <rt_test_004_002_execute+0x1ec>)
 8008c62:	9300      	str	r3, [sp, #0]
 8008c64:	4633      	mov	r3, r6
 8008c66:	3a01      	subs	r2, #1
 8008c68:	f44f 71a4 	mov.w	r1, #328	; 0x148
 8008c6c:	f505 60a4 	add.w	r0, r5, #1312	; 0x520
 8008c70:	f7fe fc06 	bl	8007480 <chThdCreateStatic>
 8008c74:	6120      	str	r0, [r4, #16]
  return ch.rlist.current;
 8008c76:	69bb      	ldr	r3, [r7, #24]
  return chThdGetSelfX()->prio;
 8008c78:	689a      	ldr	r2, [r3, #8]
    threads[3] = chThdCreateStatic(wa[3], WA_SIZE, chThdGetPriorityX()-2, thread, "B");
 8008c7a:	4b17      	ldr	r3, [pc, #92]	; (8008cd8 <rt_test_004_002_execute+0x1e8>)
 8008c7c:	9300      	str	r3, [sp, #0]
 8008c7e:	4633      	mov	r3, r6
 8008c80:	3a02      	subs	r2, #2
 8008c82:	f44f 71a4 	mov.w	r1, #328	; 0x148
 8008c86:	f505 7076 	add.w	r0, r5, #984	; 0x3d8
 8008c8a:	f7fe fbf9 	bl	8007480 <chThdCreateStatic>
 8008c8e:	60e0      	str	r0, [r4, #12]
  return ch.rlist.current;
 8008c90:	69bb      	ldr	r3, [r7, #24]
  return chThdGetSelfX()->prio;
 8008c92:	689a      	ldr	r2, [r3, #8]
    threads[2] = chThdCreateStatic(wa[2], WA_SIZE, chThdGetPriorityX()-3, thread, "C");
 8008c94:	4b0f      	ldr	r3, [pc, #60]	; (8008cd4 <rt_test_004_002_execute+0x1e4>)
 8008c96:	9300      	str	r3, [sp, #0]
 8008c98:	4633      	mov	r3, r6
 8008c9a:	3a03      	subs	r2, #3
 8008c9c:	f44f 71a4 	mov.w	r1, #328	; 0x148
 8008ca0:	f505 7024 	add.w	r0, r5, #656	; 0x290
 8008ca4:	f7fe fbec 	bl	8007480 <chThdCreateStatic>
 8008ca8:	60a0      	str	r0, [r4, #8]
    test_wait_threads();
 8008caa:	f7fb f821 	bl	8003cf0 <test_wait_threads>
    test_assert_sequence("ABCDE", "invalid sequence");
 8008cae:	490c      	ldr	r1, [pc, #48]	; (8008ce0 <rt_test_004_002_execute+0x1f0>)
 8008cb0:	480c      	ldr	r0, [pc, #48]	; (8008ce4 <rt_test_004_002_execute+0x1f4>)
 8008cb2:	f7f8 fb4d 	bl	8001350 <_test_assert_sequence>
  test_end_step(3);
 8008cb6:	e76a      	b.n	8008b8e <rt_test_004_002_execute+0x9e>
 8008cb8:	20001a7c 	.word	0x20001a7c
 8008cbc:	20001040 	.word	0x20001040
 8008cc0:	08000941 	.word	0x08000941
 8008cc4:	20001368 	.word	0x20001368
 8008cc8:	0800cc44 	.word	0x0800cc44
 8008ccc:	20001a94 	.word	0x20001a94
 8008cd0:	0800d7e4 	.word	0x0800d7e4
 8008cd4:	0800cc38 	.word	0x0800cc38
 8008cd8:	0800cc3c 	.word	0x0800cc3c
 8008cdc:	0800cbd4 	.word	0x0800cbd4
 8008ce0:	0800c114 	.word	0x0800c114
 8008ce4:	0800cc40 	.word	0x0800cc40
	...

08008cf0 <chThdCreateSuspendedI>:
thread_t *chThdCreateSuspendedI(const thread_descriptor_t *tdp) {
 8008cf0:	b508      	push	{r3, lr}
  tp = (thread_t *)((uint8_t *)tdp->wend -
 8008cf2:	6883      	ldr	r3, [r0, #8]
  tp->wabase = tdp->wbase;
 8008cf4:	6842      	ldr	r2, [r0, #4]
 8008cf6:	f843 2c2c 	str.w	r2, [r3, #-44]
  PORT_SETUP_CONTEXT(tp, tdp->wbase, tp, tdp->funcp, tdp->arg);
 8008cfa:	f1a3 026c 	sub.w	r2, r3, #108	; 0x6c
 8008cfe:	f843 2c3c 	str.w	r2, [r3, #-60]
 8008d02:	6901      	ldr	r1, [r0, #16]
 8008d04:	f843 1c6c 	str.w	r1, [r3, #-108]
 8008d08:	6941      	ldr	r1, [r0, #20]
 8008d0a:	f843 1c68 	str.w	r1, [r3, #-104]
 8008d0e:	4905      	ldr	r1, [pc, #20]	; (8008d24 <chThdCreateSuspendedI+0x34>)
 8008d10:	f843 1c4c 	str.w	r1, [r3, #-76]
  return _thread_init(tp, tdp->name, tdp->prio);
 8008d14:	68c2      	ldr	r2, [r0, #12]
 8008d16:	6801      	ldr	r1, [r0, #0]
 8008d18:	f1a3 0048 	sub.w	r0, r3, #72	; 0x48
 8008d1c:	f7fe fb90 	bl	8007440 <_thread_init>
}
 8008d20:	bd08      	pop	{r3, pc}
 8008d22:	bf00      	nop
 8008d24:	080002d1 	.word	0x080002d1
	...

08008d30 <chThdCreateFromMemoryPool>:
 * @retval  NULL        if the memory pool is empty.
 *
 * @api
 */
thread_t *chThdCreateFromMemoryPool(memory_pool_t *mp, const char *name,
                                    tprio_t prio, tfunc_t pf, void *arg) {
 8008d30:	e92d 41f0 	stmdb	sp!, {r4, r5, r6, r7, r8, lr}
 8008d34:	b086      	sub	sp, #24
 8008d36:	4605      	mov	r5, r0
 8008d38:	4688      	mov	r8, r1
 8008d3a:	4617      	mov	r7, r2
 8008d3c:	461e      	mov	r6, r3
  thread_t *tp;
  void *wsp;

  chDbgCheck(mp != NULL);

  wsp = chPoolAlloc(mp);
 8008d3e:	f7f8 fd3f 	bl	80017c0 <chPoolAlloc>
  if (wsp == NULL) {
 8008d42:	4604      	mov	r4, r0
 8008d44:	b1d0      	cbz	r0, 8008d7c <chThdCreateFromMemoryPool+0x4c>
    return NULL;
  }

  thread_descriptor_t td = {
 8008d46:	f8cd 8000 	str.w	r8, [sp]
 8008d4a:	9001      	str	r0, [sp, #4]
    name,
    wsp,
    (stkalign_t *)((uint8_t *)wsp + mp->object_size),
 8008d4c:	6868      	ldr	r0, [r5, #4]
 8008d4e:	4420      	add	r0, r4
  thread_descriptor_t td = {
 8008d50:	9002      	str	r0, [sp, #8]
 8008d52:	9703      	str	r7, [sp, #12]
 8008d54:	9604      	str	r6, [sp, #16]
 8008d56:	9b0c      	ldr	r3, [sp, #48]	; 0x30
 8008d58:	9305      	str	r3, [sp, #20]
 8008d5a:	2320      	movs	r3, #32
 8008d5c:	f383 8811 	msr	BASEPRI, r3
                  (uint8_t *)wsp + mp->object_size,
                  CH_DBG_STACK_FILL_VALUE);
#endif

  chSysLock();
  tp = chThdCreateSuspendedI(&td);
 8008d60:	4668      	mov	r0, sp
 8008d62:	f7ff ffc5 	bl	8008cf0 <chThdCreateSuspendedI>
 8008d66:	4604      	mov	r4, r0
  tp->flags = CH_FLAG_MODE_MPOOL;
 8008d68:	2302      	movs	r3, #2
 8008d6a:	f880 3021 	strb.w	r3, [r0, #33]	; 0x21
  tp->mpool = mp;
 8008d6e:	6405      	str	r5, [r0, #64]	; 0x40
  chSchWakeupS(tp, MSG_OK);
 8008d70:	2100      	movs	r1, #0
 8008d72:	f001 fbe5 	bl	800a540 <chSchWakeupS>
 8008d76:	2300      	movs	r3, #0
 8008d78:	f383 8811 	msr	BASEPRI, r3
  chSysUnlock();

  return tp;
}
 8008d7c:	4620      	mov	r0, r4
 8008d7e:	b006      	add	sp, #24
 8008d80:	e8bd 81f0 	ldmia.w	sp!, {r4, r5, r6, r7, r8, pc}
	...

08008d90 <rt_test_010_002_execute>:

static void rt_test_010_002_execute(void) {
 8008d90:	e92d 41f0 	stmdb	sp!, {r4, r5, r6, r7, r8, lr}
 8008d94:	b082      	sub	sp, #8
  unsigned i;
  tprio_t prio;

  /* [10.2.1] Adding four working areas to the pool.*/
  test_set_step(1);
 8008d96:	4b49      	ldr	r3, [pc, #292]	; (8008ebc <rt_test_010_002_execute+0x12c>)
 8008d98:	2201      	movs	r2, #1
 8008d9a:	601a      	str	r2, [r3, #0]
  {
    for (i = 0; i < 4; i++)
 8008d9c:	2400      	movs	r4, #0
 8008d9e:	e006      	b.n	8008dae <rt_test_010_002_execute+0x1e>
      chPoolFree(&mp1, wa[i]);
 8008da0:	4b47      	ldr	r3, [pc, #284]	; (8008ec0 <rt_test_010_002_execute+0x130>)
 8008da2:	f853 1024 	ldr.w	r1, [r3, r4, lsl #2]
 8008da6:	4847      	ldr	r0, [pc, #284]	; (8008ec4 <rt_test_010_002_execute+0x134>)
 8008da8:	f7f8 fcda 	bl	8001760 <chPoolFree>
    for (i = 0; i < 4; i++)
 8008dac:	3401      	adds	r4, #1
 8008dae:	2c03      	cmp	r4, #3
 8008db0:	d9f6      	bls.n	8008da0 <rt_test_010_002_execute+0x10>
  return ch.rlist.current;
 8008db2:	4b45      	ldr	r3, [pc, #276]	; (8008ec8 <rt_test_010_002_execute+0x138>)
 8008db4:	699b      	ldr	r3, [r3, #24]
  return chThdGetSelfX()->prio;
 8008db6:	689e      	ldr	r6, [r3, #8]
    prio = chThdGetPriorityX();
  }
  test_end_step(2);

  /* [10.2.3] Creating the five threads.*/
  test_set_step(3);
 8008db8:	f8df 8100 	ldr.w	r8, [pc, #256]	; 8008ebc <rt_test_010_002_execute+0x12c>
 8008dbc:	2303      	movs	r3, #3
 8008dbe:	f8c8 3000 	str.w	r3, [r8]
  {
    threads[0] = chThdCreateFromMemoryPool(&mp1, "dyn1", prio-1, dyn_thread1, "A");
 8008dc2:	4f42      	ldr	r7, [pc, #264]	; (8008ecc <rt_test_010_002_execute+0x13c>)
 8008dc4:	4d3f      	ldr	r5, [pc, #252]	; (8008ec4 <rt_test_010_002_execute+0x134>)
 8008dc6:	4b42      	ldr	r3, [pc, #264]	; (8008ed0 <rt_test_010_002_execute+0x140>)
 8008dc8:	9300      	str	r3, [sp, #0]
 8008dca:	463b      	mov	r3, r7
 8008dcc:	1e72      	subs	r2, r6, #1
 8008dce:	4941      	ldr	r1, [pc, #260]	; (8008ed4 <rt_test_010_002_execute+0x144>)
 8008dd0:	4628      	mov	r0, r5
 8008dd2:	f7ff ffad 	bl	8008d30 <chThdCreateFromMemoryPool>
 8008dd6:	4c40      	ldr	r4, [pc, #256]	; (8008ed8 <rt_test_010_002_execute+0x148>)
 8008dd8:	6020      	str	r0, [r4, #0]
    threads[1] = chThdCreateFromMemoryPool(&mp1, "dyn2", prio-2, dyn_thread1, "B");
 8008dda:	4b40      	ldr	r3, [pc, #256]	; (8008edc <rt_test_010_002_execute+0x14c>)
 8008ddc:	9300      	str	r3, [sp, #0]
 8008dde:	463b      	mov	r3, r7
 8008de0:	1eb2      	subs	r2, r6, #2
 8008de2:	493f      	ldr	r1, [pc, #252]	; (8008ee0 <rt_test_010_002_execute+0x150>)
 8008de4:	4628      	mov	r0, r5
 8008de6:	f7ff ffa3 	bl	8008d30 <chThdCreateFromMemoryPool>
 8008dea:	6060      	str	r0, [r4, #4]
    threads[2] = chThdCreateFromMemoryPool(&mp1, "dyn3", prio-3, dyn_thread1, "C");
 8008dec:	4b3d      	ldr	r3, [pc, #244]	; (8008ee4 <rt_test_010_002_execute+0x154>)
 8008dee:	9300      	str	r3, [sp, #0]
 8008df0:	463b      	mov	r3, r7
 8008df2:	1ef2      	subs	r2, r6, #3
 8008df4:	493c      	ldr	r1, [pc, #240]	; (8008ee8 <rt_test_010_002_execute+0x158>)
 8008df6:	4628      	mov	r0, r5
 8008df8:	f7ff ff9a 	bl	8008d30 <chThdCreateFromMemoryPool>
 8008dfc:	60a0      	str	r0, [r4, #8]
    threads[3] = chThdCreateFromMemoryPool(&mp1, "dyn4", prio-4, dyn_thread1, "D");
 8008dfe:	4b3b      	ldr	r3, [pc, #236]	; (8008eec <rt_test_010_002_execute+0x15c>)
 8008e00:	9300      	str	r3, [sp, #0]
 8008e02:	463b      	mov	r3, r7
 8008e04:	1f32      	subs	r2, r6, #4
 8008e06:	493a      	ldr	r1, [pc, #232]	; (8008ef0 <rt_test_010_002_execute+0x160>)
 8008e08:	4628      	mov	r0, r5
 8008e0a:	f7ff ff91 	bl	8008d30 <chThdCreateFromMemoryPool>
 8008e0e:	60e0      	str	r0, [r4, #12]
    threads[4] = chThdCreateFromMemoryPool(&mp1, "dyn5", prio-5, dyn_thread1, "E");
 8008e10:	4b38      	ldr	r3, [pc, #224]	; (8008ef4 <rt_test_010_002_execute+0x164>)
 8008e12:	9300      	str	r3, [sp, #0]
 8008e14:	463b      	mov	r3, r7
 8008e16:	1f72      	subs	r2, r6, #5
 8008e18:	4937      	ldr	r1, [pc, #220]	; (8008ef8 <rt_test_010_002_execute+0x168>)
 8008e1a:	4628      	mov	r0, r5
 8008e1c:	f7ff ff88 	bl	8008d30 <chThdCreateFromMemoryPool>
 8008e20:	6120      	str	r0, [r4, #16]
  }
  test_end_step(3);

  /* [10.2.4] Testing that only the fifth thread creation failed.*/
  test_set_step(4);
 8008e22:	2304      	movs	r3, #4
 8008e24:	f8c8 3000 	str.w	r3, [r8]
  {
    test_assert((threads[0] != NULL) &&
 8008e28:	6823      	ldr	r3, [r4, #0]
 8008e2a:	b14b      	cbz	r3, 8008e40 <rt_test_010_002_execute+0xb0>
 8008e2c:	6863      	ldr	r3, [r4, #4]
 8008e2e:	b17b      	cbz	r3, 8008e50 <rt_test_010_002_execute+0xc0>
 8008e30:	68a3      	ldr	r3, [r4, #8]
 8008e32:	b17b      	cbz	r3, 8008e54 <rt_test_010_002_execute+0xc4>
 8008e34:	68e3      	ldr	r3, [r4, #12]
 8008e36:	b10b      	cbz	r3, 8008e3c <rt_test_010_002_execute+0xac>
 8008e38:	2001      	movs	r0, #1
 8008e3a:	e002      	b.n	8008e42 <rt_test_010_002_execute+0xb2>
 8008e3c:	2000      	movs	r0, #0
 8008e3e:	e000      	b.n	8008e42 <rt_test_010_002_execute+0xb2>
 8008e40:	2000      	movs	r0, #0
 8008e42:	492e      	ldr	r1, [pc, #184]	; (8008efc <rt_test_010_002_execute+0x16c>)
 8008e44:	f7f8 f9d4 	bl	80011f0 <_test_assert>
 8008e48:	b130      	cbz	r0, 8008e58 <rt_test_010_002_execute+0xc8>
    for (i = 0; i < 4; i++)
      test_assert(chPoolAlloc(&mp1) != NULL, "pool list empty");
    test_assert(chPoolAlloc(&mp1) == NULL, "pool list not empty");
  }
  test_end_step(6);
}
 8008e4a:	b002      	add	sp, #8
 8008e4c:	e8bd 81f0 	ldmia.w	sp!, {r4, r5, r6, r7, r8, pc}
    test_assert((threads[0] != NULL) &&
 8008e50:	2000      	movs	r0, #0
 8008e52:	e7f6      	b.n	8008e42 <rt_test_010_002_execute+0xb2>
 8008e54:	2000      	movs	r0, #0
 8008e56:	e7f4      	b.n	8008e42 <rt_test_010_002_execute+0xb2>
    test_assert(threads[4] == NULL,
 8008e58:	4b1f      	ldr	r3, [pc, #124]	; (8008ed8 <rt_test_010_002_execute+0x148>)
 8008e5a:	6918      	ldr	r0, [r3, #16]
 8008e5c:	4928      	ldr	r1, [pc, #160]	; (8008f00 <rt_test_010_002_execute+0x170>)
 8008e5e:	fab0 f080 	clz	r0, r0
 8008e62:	0940      	lsrs	r0, r0, #5
 8008e64:	f7f8 f9c4 	bl	80011f0 <_test_assert>
 8008e68:	2800      	cmp	r0, #0
 8008e6a:	d1ee      	bne.n	8008e4a <rt_test_010_002_execute+0xba>
  test_set_step(5);
 8008e6c:	4b13      	ldr	r3, [pc, #76]	; (8008ebc <rt_test_010_002_execute+0x12c>)
 8008e6e:	2205      	movs	r2, #5
 8008e70:	601a      	str	r2, [r3, #0]
    test_wait_threads();
 8008e72:	f7fa ff3d 	bl	8003cf0 <test_wait_threads>
    test_assert_sequence("ABCD", "invalid sequence");
 8008e76:	4923      	ldr	r1, [pc, #140]	; (8008f04 <rt_test_010_002_execute+0x174>)
 8008e78:	4823      	ldr	r0, [pc, #140]	; (8008f08 <rt_test_010_002_execute+0x178>)
 8008e7a:	f7f8 fa69 	bl	8001350 <_test_assert_sequence>
 8008e7e:	2800      	cmp	r0, #0
 8008e80:	d1e3      	bne.n	8008e4a <rt_test_010_002_execute+0xba>
  test_set_step(6);
 8008e82:	4b0e      	ldr	r3, [pc, #56]	; (8008ebc <rt_test_010_002_execute+0x12c>)
 8008e84:	2206      	movs	r2, #6
 8008e86:	601a      	str	r2, [r3, #0]
    for (i = 0; i < 4; i++)
 8008e88:	2400      	movs	r4, #0
 8008e8a:	2c03      	cmp	r4, #3
 8008e8c:	d80c      	bhi.n	8008ea8 <rt_test_010_002_execute+0x118>
      test_assert(chPoolAlloc(&mp1) != NULL, "pool list empty");
 8008e8e:	480d      	ldr	r0, [pc, #52]	; (8008ec4 <rt_test_010_002_execute+0x134>)
 8008e90:	f7f8 fc96 	bl	80017c0 <chPoolAlloc>
 8008e94:	491d      	ldr	r1, [pc, #116]	; (8008f0c <rt_test_010_002_execute+0x17c>)
 8008e96:	3800      	subs	r0, #0
 8008e98:	bf18      	it	ne
 8008e9a:	2001      	movne	r0, #1
 8008e9c:	f7f8 f9a8 	bl	80011f0 <_test_assert>
 8008ea0:	2800      	cmp	r0, #0
 8008ea2:	d1d2      	bne.n	8008e4a <rt_test_010_002_execute+0xba>
    for (i = 0; i < 4; i++)
 8008ea4:	3401      	adds	r4, #1
 8008ea6:	e7f0      	b.n	8008e8a <rt_test_010_002_execute+0xfa>
    test_assert(chPoolAlloc(&mp1) == NULL, "pool list not empty");
 8008ea8:	4806      	ldr	r0, [pc, #24]	; (8008ec4 <rt_test_010_002_execute+0x134>)
 8008eaa:	f7f8 fc89 	bl	80017c0 <chPoolAlloc>
 8008eae:	4918      	ldr	r1, [pc, #96]	; (8008f10 <rt_test_010_002_execute+0x180>)
 8008eb0:	fab0 f080 	clz	r0, r0
 8008eb4:	0940      	lsrs	r0, r0, #5
 8008eb6:	f7f8 f99b 	bl	80011f0 <_test_assert>
  test_end_step(6);
 8008eba:	e7c6      	b.n	8008e4a <rt_test_010_002_execute+0xba>
 8008ebc:	20001a7c 	.word	0x20001a7c
 8008ec0:	0800e034 	.word	0x0800e034
 8008ec4:	20001218 	.word	0x20001218
 8008ec8:	20001040 	.word	0x20001040
 8008ecc:	08000901 	.word	0x08000901
 8008ed0:	0800cbd4 	.word	0x0800cbd4
 8008ed4:	0800ccb8 	.word	0x0800ccb8
 8008ed8:	20001a94 	.word	0x20001a94
 8008edc:	0800cc3c 	.word	0x0800cc3c
 8008ee0:	0800ccc0 	.word	0x0800ccc0
 8008ee4:	0800cc38 	.word	0x0800cc38
 8008ee8:	0800ccc8 	.word	0x0800ccc8
 8008eec:	0800d7e4 	.word	0x0800d7e4
 8008ef0:	0800ccd0 	.word	0x0800ccd0
 8008ef4:	0800cc44 	.word	0x0800cc44
 8008ef8:	0800ccd8 	.word	0x0800ccd8
 8008efc:	0800cce0 	.word	0x0800cce0
 8008f00:	0800ccf8 	.word	0x0800ccf8
 8008f04:	0800c114 	.word	0x0800c114
 8008f08:	0800cb58 	.word	0x0800cb58
 8008f0c:	0800cd14 	.word	0x0800cd14
 8008f10:	0800cd24 	.word	0x0800cd24
	...

08008f20 <chThdCreateFromHeap>:
                              tfunc_t pf, void *arg) {
 8008f20:	b5f0      	push	{r4, r5, r6, r7, lr}
 8008f22:	b087      	sub	sp, #28
 8008f24:	460e      	mov	r6, r1
 8008f26:	4617      	mov	r7, r2
 8008f28:	461d      	mov	r5, r3
  wsp = chHeapAllocAligned(heapp, size, PORT_WORKING_AREA_ALIGN);
 8008f2a:	2208      	movs	r2, #8
 8008f2c:	f7fa ff10 	bl	8003d50 <chHeapAllocAligned>
  if (wsp == NULL) {
 8008f30:	4604      	mov	r4, r0
 8008f32:	b1c0      	cbz	r0, 8008f66 <chThdCreateFromHeap+0x46>
  thread_descriptor_t td = {
 8008f34:	9700      	str	r7, [sp, #0]
 8008f36:	9001      	str	r0, [sp, #4]
    (stkalign_t *)((uint8_t *)wsp + size),
 8008f38:	4434      	add	r4, r6
  thread_descriptor_t td = {
 8008f3a:	9402      	str	r4, [sp, #8]
 8008f3c:	9503      	str	r5, [sp, #12]
 8008f3e:	9b0c      	ldr	r3, [sp, #48]	; 0x30
 8008f40:	9304      	str	r3, [sp, #16]
 8008f42:	9b0d      	ldr	r3, [sp, #52]	; 0x34
 8008f44:	9305      	str	r3, [sp, #20]
 8008f46:	2320      	movs	r3, #32
 8008f48:	f383 8811 	msr	BASEPRI, r3
  tp = chThdCreateSuspendedI(&td);
 8008f4c:	4668      	mov	r0, sp
 8008f4e:	f7ff fecf 	bl	8008cf0 <chThdCreateSuspendedI>
 8008f52:	4604      	mov	r4, r0
  tp->flags = CH_FLAG_MODE_HEAP;
 8008f54:	2301      	movs	r3, #1
 8008f56:	f880 3021 	strb.w	r3, [r0, #33]	; 0x21
  chSchWakeupS(tp, MSG_OK);
 8008f5a:	2100      	movs	r1, #0
 8008f5c:	f001 faf0 	bl	800a540 <chSchWakeupS>
 8008f60:	2300      	movs	r3, #0
 8008f62:	f383 8811 	msr	BASEPRI, r3
}
 8008f66:	4620      	mov	r0, r4
 8008f68:	b007      	add	sp, #28
 8008f6a:	bdf0      	pop	{r4, r5, r6, r7, pc}
 8008f6c:	0000      	movs	r0, r0
	...

08008f70 <main>:

/*
 * Entry to our code
 */
int main(void)
{
 8008f70:	b500      	push	{lr}
 8008f72:	b083      	sub	sp, #12
    halInit();
 8008f74:	f002 f85c 	bl	800b030 <halInit>
    chSysInit();
 8008f78:	f001 fba2 	bl	800a6c0 <chSysInit>
    app_init();
 8008f7c:	f7f9 fc78 	bl	8002870 <app_init>


    chThdSleepMilliseconds(500);
 8008f80:	f241 3088 	movw	r0, #5000	; 0x1388
 8008f84:	f7fc f9fc 	bl	8005380 <chThdSleep>
    /*
   * Shell manager initialization.
   */
  shellInit();
 8008f88:	f7f8 fa1a 	bl	80013c0 <shellInit>
  chThdCreateFromHeap(NULL, THD_WORKING_AREA_SIZE(2048),
 8008f8c:	4b06      	ldr	r3, [pc, #24]	; (8008fa8 <main+0x38>)
 8008f8e:	9301      	str	r3, [sp, #4]
 8008f90:	4b06      	ldr	r3, [pc, #24]	; (8008fac <main+0x3c>)
 8008f92:	9300      	str	r3, [sp, #0]
 8008f94:	2381      	movs	r3, #129	; 0x81
 8008f96:	4a06      	ldr	r2, [pc, #24]	; (8008fb0 <main+0x40>)
 8008f98:	f640 01c8 	movw	r1, #2248	; 0x8c8
 8008f9c:	2000      	movs	r0, #0
 8008f9e:	f7ff ffbf 	bl	8008f20 <chThdCreateFromHeap>
                                       "shell1", NORMALPRIO + 1,
                                       shellThread, (void *)&shell_cfg1);

    main_loop();
 8008fa2:	f7fc f9fd 	bl	80053a0 <main_loop>
 8008fa6:	bf00      	nop
 8008fa8:	0800df7c 	.word	0x0800df7c
 8008fac:	08005c61 	.word	0x08005c61
 8008fb0:	0800cd38 	.word	0x0800cd38
	...

08008fc0 <rt_test_010_001_execute>:
static void rt_test_010_001_execute(void) {
 8008fc0:	b530      	push	{r4, r5, lr}
 8008fc2:	b087      	sub	sp, #28
  return ch.rlist.current;
 8008fc4:	4b47      	ldr	r3, [pc, #284]	; (80090e4 <rt_test_010_001_execute+0x124>)
 8008fc6:	699b      	ldr	r3, [r3, #24]
  return chThdGetSelfX()->prio;
 8008fc8:	689d      	ldr	r5, [r3, #8]
  test_set_step(2);
 8008fca:	4b47      	ldr	r3, [pc, #284]	; (80090e8 <rt_test_010_001_execute+0x128>)
 8008fcc:	2202      	movs	r2, #2
 8008fce:	601a      	str	r2, [r3, #0]
    n1 = chHeapStatus(&heap1, &total1, &largest1);
 8008fd0:	aa04      	add	r2, sp, #16
 8008fd2:	a905      	add	r1, sp, #20
 8008fd4:	4845      	ldr	r0, [pc, #276]	; (80090ec <rt_test_010_001_execute+0x12c>)
 8008fd6:	f7fa fc83 	bl	80038e0 <chHeapStatus>
 8008fda:	4604      	mov	r4, r0
    test_assert(n1 == 1, "heap fragmented");
 8008fdc:	4944      	ldr	r1, [pc, #272]	; (80090f0 <rt_test_010_001_execute+0x130>)
 8008fde:	2801      	cmp	r0, #1
 8008fe0:	bf14      	ite	ne
 8008fe2:	2000      	movne	r0, #0
 8008fe4:	2001      	moveq	r0, #1
 8008fe6:	f7f8 f903 	bl	80011f0 <_test_assert>
 8008fea:	b108      	cbz	r0, 8008ff0 <rt_test_010_001_execute+0x30>
}
 8008fec:	b007      	add	sp, #28
 8008fee:	bd30      	pop	{r4, r5, pc}
  test_set_step(3);
 8008ff0:	4b3d      	ldr	r3, [pc, #244]	; (80090e8 <rt_test_010_001_execute+0x128>)
 8008ff2:	2203      	movs	r2, #3
 8008ff4:	601a      	str	r2, [r3, #0]
    threads[0] = chThdCreateFromHeap(&heap1,
 8008ff6:	4b3f      	ldr	r3, [pc, #252]	; (80090f4 <rt_test_010_001_execute+0x134>)
 8008ff8:	9301      	str	r3, [sp, #4]
 8008ffa:	4b3f      	ldr	r3, [pc, #252]	; (80090f8 <rt_test_010_001_execute+0x138>)
 8008ffc:	9300      	str	r3, [sp, #0]
 8008ffe:	1e6b      	subs	r3, r5, #1
 8009000:	4a3e      	ldr	r2, [pc, #248]	; (80090fc <rt_test_010_001_execute+0x13c>)
 8009002:	f44f 71a4 	mov.w	r1, #328	; 0x148
 8009006:	4839      	ldr	r0, [pc, #228]	; (80090ec <rt_test_010_001_execute+0x12c>)
 8009008:	f7ff ff8a 	bl	8008f20 <chThdCreateFromHeap>
 800900c:	4b3c      	ldr	r3, [pc, #240]	; (8009100 <rt_test_010_001_execute+0x140>)
 800900e:	6018      	str	r0, [r3, #0]
    test_assert(threads[0] != NULL, "thread creation failed");
 8009010:	493c      	ldr	r1, [pc, #240]	; (8009104 <rt_test_010_001_execute+0x144>)
 8009012:	3800      	subs	r0, #0
 8009014:	bf18      	it	ne
 8009016:	2001      	movne	r0, #1
 8009018:	f7f8 f8ea 	bl	80011f0 <_test_assert>
 800901c:	2800      	cmp	r0, #0
 800901e:	d1e5      	bne.n	8008fec <rt_test_010_001_execute+0x2c>
  test_set_step(4);
 8009020:	4b31      	ldr	r3, [pc, #196]	; (80090e8 <rt_test_010_001_execute+0x128>)
 8009022:	2204      	movs	r2, #4
 8009024:	601a      	str	r2, [r3, #0]
    threads[1] = chThdCreateFromHeap(&heap1,
 8009026:	4b38      	ldr	r3, [pc, #224]	; (8009108 <rt_test_010_001_execute+0x148>)
 8009028:	9301      	str	r3, [sp, #4]
 800902a:	4b33      	ldr	r3, [pc, #204]	; (80090f8 <rt_test_010_001_execute+0x138>)
 800902c:	9300      	str	r3, [sp, #0]
 800902e:	1eab      	subs	r3, r5, #2
 8009030:	4a36      	ldr	r2, [pc, #216]	; (800910c <rt_test_010_001_execute+0x14c>)
 8009032:	f44f 71a4 	mov.w	r1, #328	; 0x148
 8009036:	482d      	ldr	r0, [pc, #180]	; (80090ec <rt_test_010_001_execute+0x12c>)
 8009038:	f7ff ff72 	bl	8008f20 <chThdCreateFromHeap>
 800903c:	4b30      	ldr	r3, [pc, #192]	; (8009100 <rt_test_010_001_execute+0x140>)
 800903e:	6058      	str	r0, [r3, #4]
    test_assert(threads[1] != NULL, "thread creation failed");
 8009040:	4930      	ldr	r1, [pc, #192]	; (8009104 <rt_test_010_001_execute+0x144>)
 8009042:	3800      	subs	r0, #0
 8009044:	bf18      	it	ne
 8009046:	2001      	movne	r0, #1
 8009048:	f7f8 f8d2 	bl	80011f0 <_test_assert>
 800904c:	2800      	cmp	r0, #0
 800904e:	d1cd      	bne.n	8008fec <rt_test_010_001_execute+0x2c>
  test_set_step(5);
 8009050:	4b25      	ldr	r3, [pc, #148]	; (80090e8 <rt_test_010_001_execute+0x128>)
 8009052:	2205      	movs	r2, #5
 8009054:	601a      	str	r2, [r3, #0]
    threads[2] = chThdCreateFromHeap(&heap1,
 8009056:	4b2e      	ldr	r3, [pc, #184]	; (8009110 <rt_test_010_001_execute+0x150>)
 8009058:	9301      	str	r3, [sp, #4]
 800905a:	4b27      	ldr	r3, [pc, #156]	; (80090f8 <rt_test_010_001_execute+0x138>)
 800905c:	9300      	str	r3, [sp, #0]
 800905e:	1eeb      	subs	r3, r5, #3
 8009060:	4a2c      	ldr	r2, [pc, #176]	; (8009114 <rt_test_010_001_execute+0x154>)
 8009062:	f04f 4100 	mov.w	r1, #2147483648	; 0x80000000
 8009066:	4821      	ldr	r0, [pc, #132]	; (80090ec <rt_test_010_001_execute+0x12c>)
 8009068:	f7ff ff5a 	bl	8008f20 <chThdCreateFromHeap>
 800906c:	4b24      	ldr	r3, [pc, #144]	; (8009100 <rt_test_010_001_execute+0x140>)
 800906e:	6098      	str	r0, [r3, #8]
    test_assert(threads[2] == NULL, "thread creation not failed");
 8009070:	4929      	ldr	r1, [pc, #164]	; (8009118 <rt_test_010_001_execute+0x158>)
 8009072:	fab0 f080 	clz	r0, r0
 8009076:	0940      	lsrs	r0, r0, #5
 8009078:	f7f8 f8ba 	bl	80011f0 <_test_assert>
 800907c:	2800      	cmp	r0, #0
 800907e:	d1b5      	bne.n	8008fec <rt_test_010_001_execute+0x2c>
  test_set_step(6);
 8009080:	4b19      	ldr	r3, [pc, #100]	; (80090e8 <rt_test_010_001_execute+0x128>)
 8009082:	2206      	movs	r2, #6
 8009084:	601a      	str	r2, [r3, #0]
    test_wait_threads();
 8009086:	f7fa fe33 	bl	8003cf0 <test_wait_threads>
    test_assert_sequence("AB", "invalid sequence");
 800908a:	4924      	ldr	r1, [pc, #144]	; (800911c <rt_test_010_001_execute+0x15c>)
 800908c:	4824      	ldr	r0, [pc, #144]	; (8009120 <rt_test_010_001_execute+0x160>)
 800908e:	f7f8 f95f 	bl	8001350 <_test_assert_sequence>
 8009092:	2800      	cmp	r0, #0
 8009094:	d1aa      	bne.n	8008fec <rt_test_010_001_execute+0x2c>
  test_set_step(7);
 8009096:	4b14      	ldr	r3, [pc, #80]	; (80090e8 <rt_test_010_001_execute+0x128>)
 8009098:	2207      	movs	r2, #7
 800909a:	601a      	str	r2, [r3, #0]
    n2 = chHeapStatus(&heap1, &total2, &largest2);
 800909c:	aa02      	add	r2, sp, #8
 800909e:	a903      	add	r1, sp, #12
 80090a0:	4812      	ldr	r0, [pc, #72]	; (80090ec <rt_test_010_001_execute+0x12c>)
 80090a2:	f7fa fc1d 	bl	80038e0 <chHeapStatus>
    test_assert(n1 == n2, "fragmentation changed");
 80090a6:	491f      	ldr	r1, [pc, #124]	; (8009124 <rt_test_010_001_execute+0x164>)
 80090a8:	4284      	cmp	r4, r0
 80090aa:	bf14      	ite	ne
 80090ac:	2000      	movne	r0, #0
 80090ae:	2001      	moveq	r0, #1
 80090b0:	f7f8 f89e 	bl	80011f0 <_test_assert>
 80090b4:	2800      	cmp	r0, #0
 80090b6:	d199      	bne.n	8008fec <rt_test_010_001_execute+0x2c>
    test_assert(total1 == total2, "total free space changed");
 80090b8:	491b      	ldr	r1, [pc, #108]	; (8009128 <rt_test_010_001_execute+0x168>)
 80090ba:	9805      	ldr	r0, [sp, #20]
 80090bc:	9b03      	ldr	r3, [sp, #12]
 80090be:	4298      	cmp	r0, r3
 80090c0:	bf14      	ite	ne
 80090c2:	2000      	movne	r0, #0
 80090c4:	2001      	moveq	r0, #1
 80090c6:	f7f8 f893 	bl	80011f0 <_test_assert>
 80090ca:	2800      	cmp	r0, #0
 80090cc:	d18e      	bne.n	8008fec <rt_test_010_001_execute+0x2c>
    test_assert(largest1 == largest2, "largest fragment size changed");
 80090ce:	4917      	ldr	r1, [pc, #92]	; (800912c <rt_test_010_001_execute+0x16c>)
 80090d0:	9804      	ldr	r0, [sp, #16]
 80090d2:	9b02      	ldr	r3, [sp, #8]
 80090d4:	4298      	cmp	r0, r3
 80090d6:	bf14      	ite	ne
 80090d8:	2000      	movne	r0, #0
 80090da:	2001      	moveq	r0, #1
 80090dc:	f7f8 f888 	bl	80011f0 <_test_assert>
 80090e0:	e784      	b.n	8008fec <rt_test_010_001_execute+0x2c>
 80090e2:	bf00      	nop
 80090e4:	20001040 	.word	0x20001040
 80090e8:	20001a7c 	.word	0x20001a7c
 80090ec:	20001168 	.word	0x20001168
 80090f0:	0800c72c 	.word	0x0800c72c
 80090f4:	0800cbd4 	.word	0x0800cbd4
 80090f8:	08000901 	.word	0x08000901
 80090fc:	0800ccb8 	.word	0x0800ccb8
 8009100:	20001a94 	.word	0x20001a94
 8009104:	0800cce0 	.word	0x0800cce0
 8009108:	0800cc3c 	.word	0x0800cc3c
 800910c:	0800ccc0 	.word	0x0800ccc0
 8009110:	0800cc38 	.word	0x0800cc38
 8009114:	0800ccc8 	.word	0x0800ccc8
 8009118:	0800ccf8 	.word	0x0800ccf8
 800911c:	0800c114 	.word	0x0800c114
 8009120:	0800cd40 	.word	0x0800cd40
 8009124:	0800cd44 	.word	0x0800cd44
 8009128:	0800cd5c 	.word	0x0800cd5c
 800912c:	0800cd78 	.word	0x0800cd78

08009130 <cmd_test>:

static void cmd_test(BaseSequentialStream *chp, int argc, char *argv[]) {
 8009130:	b530      	push	{r4, r5, lr}
 8009132:	b083      	sub	sp, #12
 8009134:	4604      	mov	r4, r0
  thread_t *tp;
  tfunc_t tfp;

  (void)argv;
  if (argc != 1) {
 8009136:	2901      	cmp	r1, #1
 8009138:	d11b      	bne.n	8009172 <cmd_test+0x42>
    shellUsage(chp, "test rt|oslib");
    return;
  }
  if (!strcmp(argv[0], "rt")) {
 800913a:	6815      	ldr	r5, [r2, #0]
 800913c:	4916      	ldr	r1, [pc, #88]	; (8009198 <cmd_test+0x68>)
 800913e:	4628      	mov	r0, r5
 8009140:	f7f7 f972 	bl	8000428 <strcmp>
 8009144:	b300      	cbz	r0, 8009188 <cmd_test+0x58>
    tfp = test_rt;
  }
  else if (!strcmp(argv[0], "oslib")) {
 8009146:	4915      	ldr	r1, [pc, #84]	; (800919c <cmd_test+0x6c>)
 8009148:	4628      	mov	r0, r5
 800914a:	f7f7 f96d 	bl	8000428 <strcmp>
 800914e:	b9a8      	cbnz	r0, 800917c <cmd_test+0x4c>
    tfp = test_oslib;
 8009150:	4a13      	ldr	r2, [pc, #76]	; (80091a0 <cmd_test+0x70>)
  return ch.rlist.current;
 8009152:	4b14      	ldr	r3, [pc, #80]	; (80091a4 <cmd_test+0x74>)
 8009154:	699b      	ldr	r3, [r3, #24]
  return chThdGetSelfX()->prio;
 8009156:	689b      	ldr	r3, [r3, #8]
  }
  else {
    shellUsage(chp, "test rt|oslib");
    return;
  }
  tp = chThdCreateFromHeap(NULL, SHELL_CMD_TEST_WA_SIZE,
 8009158:	9401      	str	r4, [sp, #4]
 800915a:	9200      	str	r2, [sp, #0]
 800915c:	4a12      	ldr	r2, [pc, #72]	; (80091a8 <cmd_test+0x78>)
 800915e:	f44f 71e4 	mov.w	r1, #456	; 0x1c8
 8009162:	2000      	movs	r0, #0
 8009164:	f7ff fedc 	bl	8008f20 <chThdCreateFromHeap>
                           "test", chThdGetPriorityX(),
                           tfp, chp);
  if (tp == NULL) {
 8009168:	b180      	cbz	r0, 800918c <cmd_test+0x5c>
    chprintf(chp, "out of memory" SHELL_NEWLINE_STR);
    return;
  }
  chThdWait(tp);
 800916a:	f7fa fda1 	bl	8003cb0 <chThdWait>
}
 800916e:	b003      	add	sp, #12
 8009170:	bd30      	pop	{r4, r5, pc}
    shellUsage(chp, "test rt|oslib");
 8009172:	4a0e      	ldr	r2, [pc, #56]	; (80091ac <cmd_test+0x7c>)
 8009174:	490e      	ldr	r1, [pc, #56]	; (80091b0 <cmd_test+0x80>)
 8009176:	f7f9 fb53 	bl	8002820 <chprintf>
    return;
 800917a:	e7f8      	b.n	800916e <cmd_test+0x3e>
    shellUsage(chp, "test rt|oslib");
 800917c:	4a0b      	ldr	r2, [pc, #44]	; (80091ac <cmd_test+0x7c>)
 800917e:	490c      	ldr	r1, [pc, #48]	; (80091b0 <cmd_test+0x80>)
 8009180:	4620      	mov	r0, r4
 8009182:	f7f9 fb4d 	bl	8002820 <chprintf>
    return;
 8009186:	e7f2      	b.n	800916e <cmd_test+0x3e>
    tfp = test_rt;
 8009188:	4a0a      	ldr	r2, [pc, #40]	; (80091b4 <cmd_test+0x84>)
 800918a:	e7e2      	b.n	8009152 <cmd_test+0x22>
    chprintf(chp, "out of memory" SHELL_NEWLINE_STR);
 800918c:	490a      	ldr	r1, [pc, #40]	; (80091b8 <cmd_test+0x88>)
 800918e:	4620      	mov	r0, r4
 8009190:	f7f9 fb46 	bl	8002820 <chprintf>
    return;
 8009194:	e7eb      	b.n	800916e <cmd_test+0x3e>
 8009196:	bf00      	nop
 8009198:	0800cda8 	.word	0x0800cda8
 800919c:	0800cda0 	.word	0x0800cda0
 80091a0:	08005ac1 	.word	0x08005ac1
 80091a4:	20001040 	.word	0x20001040
 80091a8:	0800d2d0 	.word	0x0800d2d0
 80091ac:	0800cd98 	.word	0x0800cd98
 80091b0:	0800c304 	.word	0x0800c304
 80091b4:	08005ab1 	.word	0x08005ab1
 80091b8:	0800cdac 	.word	0x0800cdac
 80091bc:	00000000 	.word	0x00000000

080091c0 <chThdCreate>:
thread_t *chThdCreate(const thread_descriptor_t *tdp) {
 80091c0:	b510      	push	{r4, lr}
 80091c2:	2320      	movs	r3, #32
 80091c4:	f383 8811 	msr	BASEPRI, r3
  tp = chThdCreateSuspendedI(tdp);
 80091c8:	f7ff fd92 	bl	8008cf0 <chThdCreateSuspendedI>
 80091cc:	4604      	mov	r4, r0
  chSchWakeupS(tp, MSG_OK);
 80091ce:	2100      	movs	r1, #0
 80091d0:	f001 f9b6 	bl	800a540 <chSchWakeupS>
 80091d4:	2300      	movs	r3, #0
 80091d6:	f383 8811 	msr	BASEPRI, r3
}
 80091da:	4620      	mov	r0, r4
 80091dc:	bd10      	pop	{r4, pc}
 80091de:	bf00      	nop

080091e0 <oslib_test_005_001_execute>:
 *   emitted tokens.
 * - [5.1.3] Waiting for the thread to terminate-.
 * .
 */

static void oslib_test_005_001_execute(void) {
 80091e0:	b530      	push	{r4, r5, lr}
 80091e2:	b08b      	sub	sp, #44	; 0x2c
  thread_t *tp;

  /* [5.1.1] Starting the dispatcher thread.*/
  test_set_step(1);
 80091e4:	4d4a      	ldr	r5, [pc, #296]	; (8009310 <oslib_test_005_001_execute+0x130>)
 80091e6:	2301      	movs	r3, #1
 80091e8:	602b      	str	r3, [r5, #0]
  {
    thread_descriptor_t td = {
 80091ea:	4b4a      	ldr	r3, [pc, #296]	; (8009314 <oslib_test_005_001_execute+0x134>)
 80091ec:	9304      	str	r3, [sp, #16]
 80091ee:	4b4a      	ldr	r3, [pc, #296]	; (8009318 <oslib_test_005_001_execute+0x138>)
 80091f0:	9305      	str	r3, [sp, #20]
 80091f2:	f503 73e4 	add.w	r3, r3, #456	; 0x1c8
 80091f6:	9306      	str	r3, [sp, #24]
  return ch.rlist.current;
 80091f8:	4b48      	ldr	r3, [pc, #288]	; (800931c <oslib_test_005_001_execute+0x13c>)
 80091fa:	699b      	ldr	r3, [r3, #24]
  return chThdGetSelfX()->prio;
 80091fc:	689b      	ldr	r3, [r3, #8]
      .name  = "dispatcher",
      .wbase = waThread1,
      .wend  = THD_WORKING_AREA_END(waThread1),
      .prio  = chThdGetPriorityX() + 1,
 80091fe:	3301      	adds	r3, #1
    thread_descriptor_t td = {
 8009200:	9307      	str	r3, [sp, #28]
 8009202:	4b47      	ldr	r3, [pc, #284]	; (8009320 <oslib_test_005_001_execute+0x140>)
 8009204:	9308      	str	r3, [sp, #32]
 8009206:	2300      	movs	r3, #0
 8009208:	9309      	str	r3, [sp, #36]	; 0x24
      .funcp = Thread1,
      .arg   = NULL
    };
    tp = chThdCreate(&td);
 800920a:	a804      	add	r0, sp, #16
 800920c:	f7ff ffd8 	bl	80091c0 <chThdCreate>
 8009210:	4604      	mov	r4, r0
  }
  test_end_step(1);

  /* [5.1.2] Calling the default veneers, checking the result and the
     emitted tokens.*/
  test_set_step(2);
 8009212:	2302      	movs	r3, #2
 8009214:	602b      	str	r3, [r5, #0]
 *          pointer type. If you need a portable function then use
 *          @p chDelegateCallVeneer() instead.
 */
static inline msg_t chDelegateCallDirect0(thread_t *tp, delegate_fn0_t func) {

  return chDelegateCallVeneer(tp, __ch_delegate_fn0, func);
 8009216:	4a43      	ldr	r2, [pc, #268]	; (8009324 <oslib_test_005_001_execute+0x144>)
 8009218:	4943      	ldr	r1, [pc, #268]	; (8009328 <oslib_test_005_001_execute+0x148>)
 800921a:	f7f9 fe09 	bl	8002e30 <chDelegateCallVeneer>
  {
    int retval;

    retval = chDelegateCallDirect0(tp, (delegate_fn0_t)dis_func0);
    test_assert(retval == 0x55AA, "invalid return value");
 800921e:	4943      	ldr	r1, [pc, #268]	; (800932c <oslib_test_005_001_execute+0x14c>)
 8009220:	f245 53aa 	movw	r3, #21930	; 0x55aa
 8009224:	4298      	cmp	r0, r3
 8009226:	bf14      	ite	ne
 8009228:	2000      	movne	r0, #0
 800922a:	2001      	moveq	r0, #1
 800922c:	f7f7 ffe0 	bl	80011f0 <_test_assert>
 8009230:	b108      	cbz	r0, 8009236 <oslib_test_005_001_execute+0x56>
  {
    msg_t msg = chThdWait(tp);
    test_assert(msg == 0x0FA5, "invalid exit code");
  }
  test_end_step(3);
}
 8009232:	b00b      	add	sp, #44	; 0x2c
 8009234:	bd30      	pop	{r4, r5, pc}
 *          @p chDelegateCallVeneer() instead.
 */
static inline msg_t chDelegateCallDirect1(thread_t *tp, delegate_fn1_t func,
                                          msg_t p1) {

  return chDelegateCallVeneer(tp, __ch_delegate_fn1, func, p1);
 8009236:	2341      	movs	r3, #65	; 0x41
 8009238:	4a3d      	ldr	r2, [pc, #244]	; (8009330 <oslib_test_005_001_execute+0x150>)
 800923a:	493e      	ldr	r1, [pc, #248]	; (8009334 <oslib_test_005_001_execute+0x154>)
 800923c:	4620      	mov	r0, r4
 800923e:	f7f9 fdf7 	bl	8002e30 <chDelegateCallVeneer>
    test_assert(retval == (int)'A', "invalid return value");
 8009242:	493a      	ldr	r1, [pc, #232]	; (800932c <oslib_test_005_001_execute+0x14c>)
 8009244:	2841      	cmp	r0, #65	; 0x41
 8009246:	bf14      	ite	ne
 8009248:	2000      	movne	r0, #0
 800924a:	2001      	moveq	r0, #1
 800924c:	f7f7 ffd0 	bl	80011f0 <_test_assert>
 8009250:	2800      	cmp	r0, #0
 8009252:	d1ee      	bne.n	8009232 <oslib_test_005_001_execute+0x52>
 *          @p chDelegateCallVeneer() instead.
 */
static inline msg_t chDelegateCallDirect2(thread_t *tp, delegate_fn2_t func,
                                          msg_t p1, msg_t p2) {

  return chDelegateCallVeneer(tp, __ch_delegate_fn2, func, p1, p2);
 8009254:	2343      	movs	r3, #67	; 0x43
 8009256:	9300      	str	r3, [sp, #0]
 8009258:	2342      	movs	r3, #66	; 0x42
 800925a:	4a37      	ldr	r2, [pc, #220]	; (8009338 <oslib_test_005_001_execute+0x158>)
 800925c:	4937      	ldr	r1, [pc, #220]	; (800933c <oslib_test_005_001_execute+0x15c>)
 800925e:	4620      	mov	r0, r4
 8009260:	f7f9 fde6 	bl	8002e30 <chDelegateCallVeneer>
    test_assert(retval == (int)'B', "invalid return value");
 8009264:	4931      	ldr	r1, [pc, #196]	; (800932c <oslib_test_005_001_execute+0x14c>)
 8009266:	2842      	cmp	r0, #66	; 0x42
 8009268:	bf14      	ite	ne
 800926a:	2000      	movne	r0, #0
 800926c:	2001      	moveq	r0, #1
 800926e:	f7f7 ffbf 	bl	80011f0 <_test_assert>
 8009272:	2800      	cmp	r0, #0
 8009274:	d1dd      	bne.n	8009232 <oslib_test_005_001_execute+0x52>
 *          @p chDelegateCallVeneer() instead.
 */
static inline msg_t chDelegateCallDirect3(thread_t *tp, delegate_fn3_t func,
                                          msg_t p1, msg_t p2, msg_t p3) {

  return chDelegateCallVeneer(tp, __ch_delegate_fn3, func, p1, p2, p3);
 8009276:	2346      	movs	r3, #70	; 0x46
 8009278:	9301      	str	r3, [sp, #4]
 800927a:	2345      	movs	r3, #69	; 0x45
 800927c:	9300      	str	r3, [sp, #0]
 800927e:	2344      	movs	r3, #68	; 0x44
 8009280:	4a2f      	ldr	r2, [pc, #188]	; (8009340 <oslib_test_005_001_execute+0x160>)
 8009282:	4930      	ldr	r1, [pc, #192]	; (8009344 <oslib_test_005_001_execute+0x164>)
 8009284:	4620      	mov	r0, r4
 8009286:	f7f9 fdd3 	bl	8002e30 <chDelegateCallVeneer>
    test_assert(retval == (int)'D', "invalid return value");
 800928a:	4928      	ldr	r1, [pc, #160]	; (800932c <oslib_test_005_001_execute+0x14c>)
 800928c:	2844      	cmp	r0, #68	; 0x44
 800928e:	bf14      	ite	ne
 8009290:	2000      	movne	r0, #0
 8009292:	2001      	moveq	r0, #1
 8009294:	f7f7 ffac 	bl	80011f0 <_test_assert>
 8009298:	2800      	cmp	r0, #0
 800929a:	d1ca      	bne.n	8009232 <oslib_test_005_001_execute+0x52>
 */
static inline msg_t chDelegateCallDirect4(thread_t *tp, delegate_fn4_t func,
                                          msg_t p1, msg_t p2, msg_t p3,
                                          msg_t p4) {

  return chDelegateCallVeneer(tp, __ch_delegate_fn4, func, p1, p2, p3, p4);
 800929c:	234a      	movs	r3, #74	; 0x4a
 800929e:	9302      	str	r3, [sp, #8]
 80092a0:	2349      	movs	r3, #73	; 0x49
 80092a2:	9301      	str	r3, [sp, #4]
 80092a4:	2348      	movs	r3, #72	; 0x48
 80092a6:	9300      	str	r3, [sp, #0]
 80092a8:	2347      	movs	r3, #71	; 0x47
 80092aa:	4a27      	ldr	r2, [pc, #156]	; (8009348 <oslib_test_005_001_execute+0x168>)
 80092ac:	4927      	ldr	r1, [pc, #156]	; (800934c <oslib_test_005_001_execute+0x16c>)
 80092ae:	4620      	mov	r0, r4
 80092b0:	f7f9 fdbe 	bl	8002e30 <chDelegateCallVeneer>
    test_assert(retval == (int)'G', "invalid return value");
 80092b4:	491d      	ldr	r1, [pc, #116]	; (800932c <oslib_test_005_001_execute+0x14c>)
 80092b6:	2847      	cmp	r0, #71	; 0x47
 80092b8:	bf14      	ite	ne
 80092ba:	2000      	movne	r0, #0
 80092bc:	2001      	moveq	r0, #1
 80092be:	f7f7 ff97 	bl	80011f0 <_test_assert>
 80092c2:	2800      	cmp	r0, #0
 80092c4:	d1b5      	bne.n	8009232 <oslib_test_005_001_execute+0x52>
  return chDelegateCallVeneer(tp, __ch_delegate_fn0, func);
 80092c6:	4a22      	ldr	r2, [pc, #136]	; (8009350 <oslib_test_005_001_execute+0x170>)
 80092c8:	4917      	ldr	r1, [pc, #92]	; (8009328 <oslib_test_005_001_execute+0x148>)
 80092ca:	4620      	mov	r0, r4
 80092cc:	f7f9 fdb0 	bl	8002e30 <chDelegateCallVeneer>
    test_assert(retval == 0xAA55, "invalid return value");
 80092d0:	4916      	ldr	r1, [pc, #88]	; (800932c <oslib_test_005_001_execute+0x14c>)
 80092d2:	f64a 2355 	movw	r3, #43605	; 0xaa55
 80092d6:	4298      	cmp	r0, r3
 80092d8:	bf14      	ite	ne
 80092da:	2000      	movne	r0, #0
 80092dc:	2001      	moveq	r0, #1
 80092de:	f7f7 ff87 	bl	80011f0 <_test_assert>
 80092e2:	2800      	cmp	r0, #0
 80092e4:	d1a5      	bne.n	8009232 <oslib_test_005_001_execute+0x52>
    test_assert_sequence("0ABCDEFGHIJZ", "unexpected tokens");
 80092e6:	491b      	ldr	r1, [pc, #108]	; (8009354 <oslib_test_005_001_execute+0x174>)
 80092e8:	481b      	ldr	r0, [pc, #108]	; (8009358 <oslib_test_005_001_execute+0x178>)
 80092ea:	f7f8 f831 	bl	8001350 <_test_assert_sequence>
 80092ee:	2800      	cmp	r0, #0
 80092f0:	d19f      	bne.n	8009232 <oslib_test_005_001_execute+0x52>
  test_set_step(3);
 80092f2:	2203      	movs	r2, #3
 80092f4:	602a      	str	r2, [r5, #0]
    msg_t msg = chThdWait(tp);
 80092f6:	4620      	mov	r0, r4
 80092f8:	f7fa fcda 	bl	8003cb0 <chThdWait>
    test_assert(msg == 0x0FA5, "invalid exit code");
 80092fc:	4917      	ldr	r1, [pc, #92]	; (800935c <oslib_test_005_001_execute+0x17c>)
 80092fe:	f640 73a5 	movw	r3, #4005	; 0xfa5
 8009302:	4298      	cmp	r0, r3
 8009304:	bf14      	ite	ne
 8009306:	2000      	movne	r0, #0
 8009308:	2001      	moveq	r0, #1
 800930a:	f7f7 ff71 	bl	80011f0 <_test_assert>
  test_end_step(3);
 800930e:	e790      	b.n	8009232 <oslib_test_005_001_execute+0x52>
 8009310:	20001a7c 	.word	0x20001a7c
 8009314:	0800cdbc 	.word	0x0800cdbc
 8009318:	20001e68 	.word	0x20001e68
 800931c:	20001040 	.word	0x20001040
 8009320:	08007401 	.word	0x08007401
 8009324:	08000851 	.word	0x08000851
 8009328:	08000711 	.word	0x08000711
 800932c:	0800cdc8 	.word	0x0800cdc8
 8009330:	08000861 	.word	0x08000861
 8009334:	08000721 	.word	0x08000721
 8009338:	08000871 	.word	0x08000871
 800933c:	08000741 	.word	0x08000741
 8009340:	08000891 	.word	0x08000891
 8009344:	08000761 	.word	0x08000761
 8009348:	080008b1 	.word	0x080008b1
 800934c:	08000791 	.word	0x08000791
 8009350:	080008e1 	.word	0x080008e1
 8009354:	0800c7b8 	.word	0x0800c7b8
 8009358:	0800cde0 	.word	0x0800cde0
 800935c:	0800cdf0 	.word	0x0800cdf0

08009360 <oslib_test_004_001_execute>:
 * - [4.1.3] Sending jobs with various timings.
 * - [4.1.4] Sending two null jobs to make threads exit.
 * .
 */

static void oslib_test_004_001_execute(void) {
 8009360:	e92d 41f0 	stmdb	sp!, {r4, r5, r6, r7, r8, lr}
 8009364:	b08c      	sub	sp, #48	; 0x30
  thread_t *tp1, *tp2;

  /* [4.1.1] Initializing the Jobs Queue object.*/
  test_set_step(1);
 8009366:	4d40      	ldr	r5, [pc, #256]	; (8009468 <oslib_test_004_001_execute+0x108>)
 8009368:	2301      	movs	r3, #1
 800936a:	602b      	str	r3, [r5, #0]
  chGuardedPoolObjectInitAligned(gmp, size, PORT_NATURAL_ALIGN);
 800936c:	4c3f      	ldr	r4, [pc, #252]	; (800946c <oslib_test_004_001_execute+0x10c>)
 800936e:	2204      	movs	r2, #4
 8009370:	2108      	movs	r1, #8
 8009372:	4620      	mov	r0, r4
 8009374:	f7f8 fd3c 	bl	8001df0 <chGuardedPoolObjectInitAligned>
  chGuardedPoolLoadArray(&jqp->free, (void *)jobsbuf, jobsn);
 8009378:	2204      	movs	r2, #4
 800937a:	493d      	ldr	r1, [pc, #244]	; (8009470 <oslib_test_004_001_execute+0x110>)
 800937c:	4620      	mov	r0, r4
 800937e:	f7fb fb3f 	bl	8004a00 <chGuardedPoolLoadArray>
  chMBObjectInit(&jqp->mbx, msgbuf, jobsn);
 8009382:	2204      	movs	r2, #4
 8009384:	493b      	ldr	r1, [pc, #236]	; (8009474 <oslib_test_004_001_execute+0x114>)
 8009386:	f104 001c 	add.w	r0, r4, #28
 800938a:	f7f8 fb11 	bl	80019b0 <chMBObjectInit>
    chJobObjectInit(&jq, JOBS_QUEUE_SIZE, jobs, msg_queue);
  }
  test_end_step(1);

  /* [4.1.2] Starting the dispatcher threads.*/
  test_set_step(2);
 800938e:	2302      	movs	r3, #2
 8009390:	602b      	str	r3, [r5, #0]
  {
    thread_descriptor_t td1 = {
 8009392:	4b39      	ldr	r3, [pc, #228]	; (8009478 <oslib_test_004_001_execute+0x118>)
 8009394:	9306      	str	r3, [sp, #24]
 8009396:	4b39      	ldr	r3, [pc, #228]	; (800947c <oslib_test_004_001_execute+0x11c>)
 8009398:	9307      	str	r3, [sp, #28]
 800939a:	f503 73e4 	add.w	r3, r3, #456	; 0x1c8
 800939e:	9308      	str	r3, [sp, #32]
  return ch.rlist.current;
 80093a0:	f8df 80f4 	ldr.w	r8, [pc, #244]	; 8009498 <oslib_test_004_001_execute+0x138>
 80093a4:	f8d8 3018 	ldr.w	r3, [r8, #24]
  return chThdGetSelfX()->prio;
 80093a8:	689b      	ldr	r3, [r3, #8]
      .name  = "dispatcher1",
      .wbase = wa1Thread1,
      .wend  = THD_WORKING_AREA_END(wa1Thread1),
      .prio  = chThdGetPriorityX() - 1,
 80093aa:	3b01      	subs	r3, #1
    thread_descriptor_t td1 = {
 80093ac:	9309      	str	r3, [sp, #36]	; 0x24
 80093ae:	4e34      	ldr	r6, [pc, #208]	; (8009480 <oslib_test_004_001_execute+0x120>)
 80093b0:	960a      	str	r6, [sp, #40]	; 0x28
 80093b2:	2400      	movs	r4, #0
 80093b4:	940b      	str	r4, [sp, #44]	; 0x2c
      .funcp = Thread1,
      .arg   = NULL
    };
    tp1 = chThdCreate(&td1);
 80093b6:	a806      	add	r0, sp, #24
 80093b8:	f7ff ff02 	bl	80091c0 <chThdCreate>
 80093bc:	4607      	mov	r7, r0

    thread_descriptor_t td2 = {
 80093be:	4b31      	ldr	r3, [pc, #196]	; (8009484 <oslib_test_004_001_execute+0x124>)
 80093c0:	9300      	str	r3, [sp, #0]
 80093c2:	4b31      	ldr	r3, [pc, #196]	; (8009488 <oslib_test_004_001_execute+0x128>)
 80093c4:	9301      	str	r3, [sp, #4]
 80093c6:	f503 73e4 	add.w	r3, r3, #456	; 0x1c8
 80093ca:	9302      	str	r3, [sp, #8]
  return ch.rlist.current;
 80093cc:	f8d8 3018 	ldr.w	r3, [r8, #24]
  return chThdGetSelfX()->prio;
 80093d0:	689b      	ldr	r3, [r3, #8]
      .name  = "dispatcher2",
      .wbase = wa2Thread1,
      .wend  = THD_WORKING_AREA_END(wa2Thread1),
      .prio  = chThdGetPriorityX() - 2,
 80093d2:	3b02      	subs	r3, #2
    thread_descriptor_t td2 = {
 80093d4:	9303      	str	r3, [sp, #12]
 80093d6:	9604      	str	r6, [sp, #16]
 80093d8:	9405      	str	r4, [sp, #20]
      .funcp = Thread1,
      .arg   = NULL
    };
    tp2 = chThdCreate(&td2);
 80093da:	4668      	mov	r0, sp
 80093dc:	f7ff fef0 	bl	80091c0 <chThdCreate>
 80093e0:	4606      	mov	r6, r0
  }
  test_end_step(2);

  /* [4.1.3] Sending jobs with various timings.*/
  test_set_step(3);
 80093e2:	2303      	movs	r3, #3
 80093e4:	602b      	str	r3, [r5, #0]
  {
    unsigned i;
    job_descriptor_t *jdp;

    for (i = 0; i < 8; i++) {
 80093e6:	e011      	b.n	800940c <oslib_test_004_001_execute+0xac>
  return (job_descriptor_t *)chGuardedPoolAllocTimeout(&jqp->free, TIME_INFINITE);
 80093e8:	4d20      	ldr	r5, [pc, #128]	; (800946c <oslib_test_004_001_execute+0x10c>)
 80093ea:	f04f 31ff 	mov.w	r1, #4294967295	; 0xffffffff
 80093ee:	4628      	mov	r0, r5
 80093f0:	f7fb fe2e 	bl	8005050 <chGuardedPoolAllocTimeout>
 80093f4:	4601      	mov	r1, r0
      jdp = chJobGet(&jq);
      jdp->jobfunc = job_slow;
 80093f6:	4b25      	ldr	r3, [pc, #148]	; (800948c <oslib_test_004_001_execute+0x12c>)
 80093f8:	6003      	str	r3, [r0, #0]
      jdp->jobarg  = (void *)('a' + i);
 80093fa:	f104 0361 	add.w	r3, r4, #97	; 0x61
 80093fe:	6043      	str	r3, [r0, #4]
  msg = chMBPostTimeout(&jqp->mbx, (msg_t)jp, TIME_IMMEDIATE);
 8009400:	2200      	movs	r2, #0
 8009402:	f105 001c 	add.w	r0, r5, #28
 8009406:	f7fd f8cb 	bl	80065a0 <chMBPostTimeout>
    for (i = 0; i < 8; i++) {
 800940a:	3401      	adds	r4, #1
 800940c:	2c07      	cmp	r4, #7
 800940e:	d9eb      	bls.n	80093e8 <oslib_test_004_001_execute+0x88>
    }
  }
  test_end_step(3);

  /* [4.1.4] Sending two null jobs to make threads exit.*/
  test_set_step(4);
 8009410:	4b15      	ldr	r3, [pc, #84]	; (8009468 <oslib_test_004_001_execute+0x108>)
 8009412:	2204      	movs	r2, #4
 8009414:	601a      	str	r2, [r3, #0]
  return (job_descriptor_t *)chGuardedPoolAllocTimeout(&jqp->free, TIME_INFINITE);
 8009416:	4d15      	ldr	r5, [pc, #84]	; (800946c <oslib_test_004_001_execute+0x10c>)
 8009418:	f04f 31ff 	mov.w	r1, #4294967295	; 0xffffffff
 800941c:	4628      	mov	r0, r5
 800941e:	f7fb fe17 	bl	8005050 <chGuardedPoolAllocTimeout>
 8009422:	4601      	mov	r1, r0
  {
    job_descriptor_t *jdp;

    jdp = chJobGet(&jq);
    jdp->jobfunc = NULL;
 8009424:	2400      	movs	r4, #0
 8009426:	6004      	str	r4, [r0, #0]
    jdp->jobarg  = NULL;
 8009428:	6044      	str	r4, [r0, #4]
  msg = chMBPostTimeout(&jqp->mbx, (msg_t)jp, TIME_IMMEDIATE);
 800942a:	f105 081c 	add.w	r8, r5, #28
 800942e:	4622      	mov	r2, r4
 8009430:	4640      	mov	r0, r8
 8009432:	f7fd f8b5 	bl	80065a0 <chMBPostTimeout>
  return (job_descriptor_t *)chGuardedPoolAllocTimeout(&jqp->free, TIME_INFINITE);
 8009436:	f04f 31ff 	mov.w	r1, #4294967295	; 0xffffffff
 800943a:	4628      	mov	r0, r5
 800943c:	f7fb fe08 	bl	8005050 <chGuardedPoolAllocTimeout>
 8009440:	4601      	mov	r1, r0
    chJobPost(&jq, jdp);
    jdp = chJobGet(&jq);
    jdp->jobfunc = NULL;
 8009442:	6004      	str	r4, [r0, #0]
    jdp->jobarg  = NULL;
 8009444:	6044      	str	r4, [r0, #4]
  msg = chMBPostTimeout(&jqp->mbx, (msg_t)jp, TIME_IMMEDIATE);
 8009446:	4622      	mov	r2, r4
 8009448:	4640      	mov	r0, r8
 800944a:	f7fd f8a9 	bl	80065a0 <chMBPostTimeout>
    chJobPost(&jq, jdp);
    (void) chThdWait(tp1);
 800944e:	4638      	mov	r0, r7
 8009450:	f7fa fc2e 	bl	8003cb0 <chThdWait>
    (void) chThdWait(tp2);
 8009454:	4630      	mov	r0, r6
 8009456:	f7fa fc2b 	bl	8003cb0 <chThdWait>
    test_assert_sequence("abcdefgh", "unexpected tokens");
 800945a:	490d      	ldr	r1, [pc, #52]	; (8009490 <oslib_test_004_001_execute+0x130>)
 800945c:	480d      	ldr	r0, [pc, #52]	; (8009494 <oslib_test_004_001_execute+0x134>)
 800945e:	f7f7 ff77 	bl	8001350 <_test_assert_sequence>
  }
  test_end_step(4);
}
 8009462:	b00c      	add	sp, #48	; 0x30
 8009464:	e8bd 81f0 	ldmia.w	sp!, {r4, r5, r6, r7, r8, pc}
 8009468:	20001a7c 	.word	0x20001a7c
 800946c:	200011c4 	.word	0x200011c4
 8009470:	200011a4 	.word	0x200011a4
 8009474:	20001228 	.word	0x20001228
 8009478:	0800ce04 	.word	0x0800ce04
 800947c:	20001ad8 	.word	0x20001ad8
 8009480:	08006481 	.word	0x08006481
 8009484:	0800ce10 	.word	0x0800ce10
 8009488:	20001ca0 	.word	0x20001ca0
 800948c:	08005411 	.word	0x08005411
 8009490:	0800c7b8 	.word	0x0800c7b8
 8009494:	0800c7e8 	.word	0x0800c7e8
 8009498:	20001040 	.word	0x20001040
 800949c:	00000000 	.word	0x00000000

080094a0 <chSchReadyAheadI>:
  chDbgCheck(tp != NULL);
  chDbgAssert((tp->state != CH_STATE_READY) &&
              (tp->state != CH_STATE_FINAL),
              "invalid state");

  tp->state = CH_STATE_READY;
 80094a0:	2300      	movs	r3, #0
 80094a2:	f880 3020 	strb.w	r3, [r0, #32]
  cp = (thread_t *)&ch.rlist.queue;
 80094a6:	4b06      	ldr	r3, [pc, #24]	; (80094c0 <chSchReadyAheadI+0x20>)
  do {
    cp = cp->queue.next;
 80094a8:	681b      	ldr	r3, [r3, #0]
  } while (cp->prio > tp->prio);
 80094aa:	6899      	ldr	r1, [r3, #8]
 80094ac:	6882      	ldr	r2, [r0, #8]
 80094ae:	4291      	cmp	r1, r2
 80094b0:	d8fa      	bhi.n	80094a8 <chSchReadyAheadI+0x8>
  /* Insertion on prev.*/
  tp->queue.next             = cp;
 80094b2:	6003      	str	r3, [r0, #0]
  tp->queue.prev             = cp->queue.prev;
 80094b4:	685a      	ldr	r2, [r3, #4]
 80094b6:	6042      	str	r2, [r0, #4]
  tp->queue.prev->queue.next = tp;
 80094b8:	6010      	str	r0, [r2, #0]
  cp->queue.prev             = tp;
 80094ba:	6058      	str	r0, [r3, #4]

  return tp;
}
 80094bc:	4770      	bx	lr
 80094be:	bf00      	nop
 80094c0:	20001040 	.word	0x20001040
	...

080094d0 <_scheduler_init>:
  tqp->next = (thread_t *)tqp;
 80094d0:	4b03      	ldr	r3, [pc, #12]	; (80094e0 <_scheduler_init+0x10>)
 80094d2:	601b      	str	r3, [r3, #0]
  tqp->prev = (thread_t *)tqp;
 80094d4:	605b      	str	r3, [r3, #4]
  ch.rlist.prio = NOPRIO;
 80094d6:	2200      	movs	r2, #0
 80094d8:	609a      	str	r2, [r3, #8]
  ch.rlist.newer = (thread_t *)&ch.rlist;
 80094da:	611b      	str	r3, [r3, #16]
  ch.rlist.older = (thread_t *)&ch.rlist;
 80094dc:	615b      	str	r3, [r3, #20]
}
 80094de:	4770      	bx	lr
 80094e0:	20001040 	.word	0x20001040
	...

080094f0 <_vt_init>:
 *
 * @notapi
 */
void _vt_init(void) {

  ch.vtlist.next = (virtual_timer_t *)&ch.vtlist;
 80094f0:	4b05      	ldr	r3, [pc, #20]	; (8009508 <_vt_init+0x18>)
 80094f2:	f103 021c 	add.w	r2, r3, #28
 80094f6:	61da      	str	r2, [r3, #28]
  ch.vtlist.prev = (virtual_timer_t *)&ch.vtlist;
 80094f8:	621a      	str	r2, [r3, #32]
  ch.vtlist.delta = (sysinterval_t)-1;
 80094fa:	f04f 32ff 	mov.w	r2, #4294967295	; 0xffffffff
 80094fe:	625a      	str	r2, [r3, #36]	; 0x24
#if CH_CFG_ST_TIMEDELTA == 0
  ch.vtlist.systime = (systime_t)0;
#else /* CH_CFG_ST_TIMEDELTA > 0 */
  ch.vtlist.lasttime = (systime_t)0;
 8009500:	2200      	movs	r2, #0
 8009502:	629a      	str	r2, [r3, #40]	; 0x28
#endif /* CH_CFG_ST_TIMEDELTA > 0 */
}
 8009504:	4770      	bx	lr
 8009506:	bf00      	nop
 8009508:	20001040 	.word	0x20001040
 800950c:	00000000 	.word	0x00000000

08009510 <chSysHalt>:
  __ASM volatile ("cpsid i" : : : "memory");
 8009510:	b672      	cpsid	i

  /* Logging the event.*/
  _trace_halt(reason);

  /* Pointing to the passed message.*/
  ch.dbg.panic_msg = reason;
 8009512:	4a01      	ldr	r2, [pc, #4]	; (8009518 <chSysHalt+0x8>)
 8009514:	62d0      	str	r0, [r2, #44]	; 0x2c

  /* Halt hook code, usually empty.*/
  CH_CFG_SYSTEM_HALT_HOOK(reason);

  /* Harmless infinite loop.*/
  while (true) {
 8009516:	e7fe      	b.n	8009516 <chSysHalt+0x6>
 8009518:	20001040 	.word	0x20001040
 800951c:	00000000 	.word	0x00000000

08009520 <_idle_thread>:
}
 8009520:	e7fe      	b.n	8009520 <_idle_thread>
 8009522:	bf00      	nop
	...

08009530 <gpio_init>:
/* Driver local functions.                                                   */
/*===========================================================================*/

static void gpio_init(stm32_gpio_t *gpiop, const gpio_setup_t *config) {

  gpiop->OTYPER  = config->otyper;
 8009530:	684b      	ldr	r3, [r1, #4]
 8009532:	6043      	str	r3, [r0, #4]
  gpiop->OSPEEDR = config->ospeedr;
 8009534:	688b      	ldr	r3, [r1, #8]
 8009536:	6083      	str	r3, [r0, #8]
  gpiop->PUPDR   = config->pupdr;
 8009538:	68cb      	ldr	r3, [r1, #12]
 800953a:	60c3      	str	r3, [r0, #12]
  gpiop->ODR     = config->odr;
 800953c:	690b      	ldr	r3, [r1, #16]
 800953e:	6143      	str	r3, [r0, #20]
  gpiop->AFRL    = config->afrl;
 8009540:	694b      	ldr	r3, [r1, #20]
 8009542:	6203      	str	r3, [r0, #32]
  gpiop->AFRH    = config->afrh;
 8009544:	698b      	ldr	r3, [r1, #24]
 8009546:	6243      	str	r3, [r0, #36]	; 0x24
  gpiop->MODER   = config->moder;
 8009548:	680b      	ldr	r3, [r1, #0]
 800954a:	6003      	str	r3, [r0, #0]
}
 800954c:	4770      	bx	lr
 800954e:	bf00      	nop

08009550 <stm32_gpio_init>:

static void stm32_gpio_init(void) {
 8009550:	b510      	push	{r4, lr}

  /* Enabling GPIO-related clocks, the mask comes from the
     registry header file.*/
  rccResetAHB1(STM32_GPIO_EN_MASK);
 8009552:	4b1e      	ldr	r3, [pc, #120]	; (80095cc <stm32_gpio_init+0x7c>)
 8009554:	691a      	ldr	r2, [r3, #16]
 8009556:	f042 02ff 	orr.w	r2, r2, #255	; 0xff
 800955a:	611a      	str	r2, [r3, #16]
 800955c:	691a      	ldr	r2, [r3, #16]
 800955e:	f022 02ff 	bic.w	r2, r2, #255	; 0xff
 8009562:	611a      	str	r2, [r3, #16]
 8009564:	691a      	ldr	r2, [r3, #16]
  rccEnableAHB1(STM32_GPIO_EN_MASK, true);
 8009566:	6b1a      	ldr	r2, [r3, #48]	; 0x30
 8009568:	f042 02ff 	orr.w	r2, r2, #255	; 0xff
 800956c:	631a      	str	r2, [r3, #48]	; 0x30
 800956e:	6d1a      	ldr	r2, [r3, #80]	; 0x50
 8009570:	f042 02ff 	orr.w	r2, r2, #255	; 0xff
 8009574:	651a      	str	r2, [r3, #80]	; 0x50
 8009576:	6d1b      	ldr	r3, [r3, #80]	; 0x50

  /* Initializing all the defined GPIO ports.*/
#if STM32_HAS_GPIOA
  gpio_init(GPIOA, &gpio_default_config.PAData);
 8009578:	4c15      	ldr	r4, [pc, #84]	; (80095d0 <stm32_gpio_init+0x80>)
 800957a:	4621      	mov	r1, r4
 800957c:	4815      	ldr	r0, [pc, #84]	; (80095d4 <stm32_gpio_init+0x84>)
 800957e:	f7ff ffd7 	bl	8009530 <gpio_init>
#endif
#if STM32_HAS_GPIOB
  gpio_init(GPIOB, &gpio_default_config.PBData);
 8009582:	f104 011c 	add.w	r1, r4, #28
 8009586:	4814      	ldr	r0, [pc, #80]	; (80095d8 <stm32_gpio_init+0x88>)
 8009588:	f7ff ffd2 	bl	8009530 <gpio_init>
#endif
#if STM32_HAS_GPIOC
  gpio_init(GPIOC, &gpio_default_config.PCData);
 800958c:	f104 0138 	add.w	r1, r4, #56	; 0x38
 8009590:	4812      	ldr	r0, [pc, #72]	; (80095dc <stm32_gpio_init+0x8c>)
 8009592:	f7ff ffcd 	bl	8009530 <gpio_init>
#endif
#if STM32_HAS_GPIOD
  gpio_init(GPIOD, &gpio_default_config.PDData);
 8009596:	f104 0154 	add.w	r1, r4, #84	; 0x54
 800959a:	4811      	ldr	r0, [pc, #68]	; (80095e0 <stm32_gpio_init+0x90>)
 800959c:	f7ff ffc8 	bl	8009530 <gpio_init>
#endif
#if STM32_HAS_GPIOE
  gpio_init(GPIOE, &gpio_default_config.PEData);
 80095a0:	f104 0170 	add.w	r1, r4, #112	; 0x70
 80095a4:	480f      	ldr	r0, [pc, #60]	; (80095e4 <stm32_gpio_init+0x94>)
 80095a6:	f7ff ffc3 	bl	8009530 <gpio_init>
#endif
#if STM32_HAS_GPIOF
  gpio_init(GPIOF, &gpio_default_config.PFData);
 80095aa:	f104 018c 	add.w	r1, r4, #140	; 0x8c
 80095ae:	480e      	ldr	r0, [pc, #56]	; (80095e8 <stm32_gpio_init+0x98>)
 80095b0:	f7ff ffbe 	bl	8009530 <gpio_init>
#endif
#if STM32_HAS_GPIOG
  gpio_init(GPIOG, &gpio_default_config.PGData);
 80095b4:	f104 01a8 	add.w	r1, r4, #168	; 0xa8
 80095b8:	480c      	ldr	r0, [pc, #48]	; (80095ec <stm32_gpio_init+0x9c>)
 80095ba:	f7ff ffb9 	bl	8009530 <gpio_init>
#endif
#if STM32_HAS_GPIOH
  gpio_init(GPIOH, &gpio_default_config.PHData);
 80095be:	f104 01c4 	add.w	r1, r4, #196	; 0xc4
 80095c2:	480b      	ldr	r0, [pc, #44]	; (80095f0 <stm32_gpio_init+0xa0>)
 80095c4:	f7ff ffb4 	bl	8009530 <gpio_init>
  gpio_init(GPIOJ, &gpio_default_config.PJData);
#endif
#if STM32_HAS_GPIOK
  gpio_init(GPIOK, &gpio_default_config.PKData);
#endif
}
 80095c8:	bd10      	pop	{r4, pc}
 80095ca:	bf00      	nop
 80095cc:	40023800 	.word	0x40023800
 80095d0:	0800e140 	.word	0x0800e140
 80095d4:	40020000 	.word	0x40020000
 80095d8:	40020400 	.word	0x40020400
 80095dc:	40020800 	.word	0x40020800
 80095e0:	40020c00 	.word	0x40020c00
 80095e4:	40021000 	.word	0x40021000
 80095e8:	40021400 	.word	0x40021400
 80095ec:	40021800 	.word	0x40021800
 80095f0:	40021c00 	.word	0x40021c00
	...

08009600 <notify2>:

#if STM32_SERIAL_USE_USART2 || defined(__DOXYGEN__)
static void notify2(io_queue_t *qp) {

  (void)qp;
  USART2->CR1 |= USART_CR1_TXEIE | USART_CR1_TCIE;
 8009600:	4a02      	ldr	r2, [pc, #8]	; (800960c <notify2+0xc>)
 8009602:	68d3      	ldr	r3, [r2, #12]
 8009604:	f043 03c0 	orr.w	r3, r3, #192	; 0xc0
 8009608:	60d3      	str	r3, [r2, #12]
}
 800960a:	4770      	bx	lr
 800960c:	40004400 	.word	0x40004400

08009610 <usart_init>:
static void usart_init(SerialDriver *sdp, const SerialConfig *config) {
 8009610:	b410      	push	{r4}
  USART_TypeDef *u = sdp->usart;
 8009612:	6f43      	ldr	r3, [r0, #116]	; 0x74
  if ((sdp->usart == USART1) || (sdp->usart == USART6))
 8009614:	4a1e      	ldr	r2, [pc, #120]	; (8009690 <usart_init+0x80>)
 8009616:	4293      	cmp	r3, r2
 8009618:	d008      	beq.n	800962c <usart_init+0x1c>
 800961a:	f502 6280 	add.w	r2, r2, #1024	; 0x400
 800961e:	4293      	cmp	r3, r2
 8009620:	d004      	beq.n	800962c <usart_init+0x1c>
    fck = STM32_PCLK1 / config->speed;
 8009622:	680c      	ldr	r4, [r1, #0]
 8009624:	4a1b      	ldr	r2, [pc, #108]	; (8009694 <usart_init+0x84>)
 8009626:	fbb2 f2f4 	udiv	r2, r2, r4
 800962a:	e003      	b.n	8009634 <usart_init+0x24>
    fck = STM32_PCLK2 / config->speed;
 800962c:	680c      	ldr	r4, [r1, #0]
 800962e:	4a1a      	ldr	r2, [pc, #104]	; (8009698 <usart_init+0x88>)
 8009630:	fbb2 f2f4 	udiv	r2, r2, r4
  if (config->cr1 & USART_CR1_OVER8)
 8009634:	f9b1 4004 	ldrsh.w	r4, [r1, #4]
 8009638:	2c00      	cmp	r4, #0
 800963a:	db1d      	blt.n	8009678 <usart_init+0x68>
  u->BRR = fck;
 800963c:	609a      	str	r2, [r3, #8]
  u->CR2 = config->cr2 | USART_CR2_LBDIE;
 800963e:	88ca      	ldrh	r2, [r1, #6]
 8009640:	f042 0240 	orr.w	r2, r2, #64	; 0x40
 8009644:	611a      	str	r2, [r3, #16]
  u->CR3 = config->cr3 | USART_CR3_EIE;
 8009646:	890a      	ldrh	r2, [r1, #8]
 8009648:	f042 0201 	orr.w	r2, r2, #1
 800964c:	615a      	str	r2, [r3, #20]
  u->CR1 = config->cr1 | USART_CR1_UE | USART_CR1_PEIE |
 800964e:	888a      	ldrh	r2, [r1, #4]
                         USART_CR1_RXNEIE | USART_CR1_TE |
 8009650:	f442 5204 	orr.w	r2, r2, #8448	; 0x2100
 8009654:	f042 022c 	orr.w	r2, r2, #44	; 0x2c
  u->CR1 = config->cr1 | USART_CR1_UE | USART_CR1_PEIE |
 8009658:	60da      	str	r2, [r3, #12]
  u->SR = 0;
 800965a:	2200      	movs	r2, #0
 800965c:	601a      	str	r2, [r3, #0]
  (void)u->SR;  /* SR reset step 1.*/
 800965e:	681a      	ldr	r2, [r3, #0]
  (void)u->DR;  /* SR reset step 2.*/
 8009660:	685b      	ldr	r3, [r3, #4]
  if ((config->cr1 & (USART_CR1_M | USART_CR1_PCE)) == USART_CR1_PCE) {
 8009662:	888b      	ldrh	r3, [r1, #4]
 8009664:	f403 53a0 	and.w	r3, r3, #5120	; 0x1400
 8009668:	f5b3 6f80 	cmp.w	r3, #1024	; 0x400
 800966c:	d00b      	beq.n	8009686 <usart_init+0x76>
    sdp->rxmask = 0xFF;
 800966e:	23ff      	movs	r3, #255	; 0xff
 8009670:	f880 3078 	strb.w	r3, [r0, #120]	; 0x78
}
 8009674:	bc10      	pop	{r4}
 8009676:	4770      	bx	lr
    fck = ((fck & ~7) * 2) | (fck & 7);
 8009678:	f022 0407 	bic.w	r4, r2, #7
 800967c:	f002 0207 	and.w	r2, r2, #7
 8009680:	ea42 0244 	orr.w	r2, r2, r4, lsl #1
 8009684:	e7da      	b.n	800963c <usart_init+0x2c>
    sdp->rxmask = 0x7F;
 8009686:	237f      	movs	r3, #127	; 0x7f
 8009688:	f880 3078 	strb.w	r3, [r0, #120]	; 0x78
 800968c:	e7f2      	b.n	8009674 <usart_init+0x64>
 800968e:	bf00      	nop
 8009690:	40011000 	.word	0x40011000
 8009694:	02aea540 	.word	0x02aea540
 8009698:	055d4a80 	.word	0x055d4a80
 800969c:	00000000 	.word	0x00000000

080096a0 <spi_lld_send>:
 * @param[in] n         number of words to send
 * @param[in] txbuf     the pointer to the transmit buffer
 *
 * @notapi
 */
void spi_lld_send(SPIDriver *spip, size_t n, const void *txbuf) {
 80096a0:	b410      	push	{r4}

  osalDbgAssert(n < 65536, "unsupported DMA transfer size");

  dmaStreamSetMemory0(spip->dmarx, &dummyrx);
 80096a2:	6a03      	ldr	r3, [r0, #32]
 80096a4:	681b      	ldr	r3, [r3, #0]
 80096a6:	4c11      	ldr	r4, [pc, #68]	; (80096ec <spi_lld_send+0x4c>)
 80096a8:	60dc      	str	r4, [r3, #12]
  dmaStreamSetTransactionSize(spip->dmarx, n);
 80096aa:	6a03      	ldr	r3, [r0, #32]
 80096ac:	681b      	ldr	r3, [r3, #0]
 80096ae:	6059      	str	r1, [r3, #4]
  dmaStreamSetMode(spip->dmarx, spip->rxdmamode);
 80096b0:	6a03      	ldr	r3, [r0, #32]
 80096b2:	681b      	ldr	r3, [r3, #0]
 80096b4:	6a84      	ldr	r4, [r0, #40]	; 0x28
 80096b6:	601c      	str	r4, [r3, #0]

  dmaStreamSetMemory0(spip->dmatx, txbuf);
 80096b8:	6a43      	ldr	r3, [r0, #36]	; 0x24
 80096ba:	681b      	ldr	r3, [r3, #0]
 80096bc:	60da      	str	r2, [r3, #12]
  dmaStreamSetTransactionSize(spip->dmatx, n);
 80096be:	6a43      	ldr	r3, [r0, #36]	; 0x24
 80096c0:	681b      	ldr	r3, [r3, #0]
 80096c2:	6059      	str	r1, [r3, #4]
  dmaStreamSetMode(spip->dmatx, spip->txdmamode | STM32_DMA_CR_MINC);
 80096c4:	6a43      	ldr	r3, [r0, #36]	; 0x24
 80096c6:	681a      	ldr	r2, [r3, #0]
 80096c8:	6ac3      	ldr	r3, [r0, #44]	; 0x2c
 80096ca:	f443 6380 	orr.w	r3, r3, #1024	; 0x400
 80096ce:	6013      	str	r3, [r2, #0]

  dmaStreamEnable(spip->dmarx);
 80096d0:	6a03      	ldr	r3, [r0, #32]
 80096d2:	681a      	ldr	r2, [r3, #0]
 80096d4:	6813      	ldr	r3, [r2, #0]
 80096d6:	f043 0301 	orr.w	r3, r3, #1
 80096da:	6013      	str	r3, [r2, #0]
  dmaStreamEnable(spip->dmatx);
 80096dc:	6a43      	ldr	r3, [r0, #36]	; 0x24
 80096de:	681a      	ldr	r2, [r3, #0]
 80096e0:	6813      	ldr	r3, [r2, #0]
 80096e2:	f043 0301 	orr.w	r3, r3, #1
 80096e6:	6013      	str	r3, [r2, #0]
}
 80096e8:	bc10      	pop	{r4}
 80096ea:	4770      	bx	lr
 80096ec:	2000220c 	.word	0x2000220c

080096f0 <spi_lld_serve_tx_interrupt>:
  if ((flags & (STM32_DMA_ISR_TEIF | STM32_DMA_ISR_DMEIF)) != 0) {
 80096f0:	f011 0f0c 	tst.w	r1, #12
 80096f4:	d100      	bne.n	80096f8 <spi_lld_serve_tx_interrupt+0x8>
 80096f6:	4770      	bx	lr
static void spi_lld_serve_tx_interrupt(SPIDriver *spip, uint32_t flags) {
 80096f8:	b508      	push	{r3, lr}
  chSysHalt(reason);
 80096fa:	4801      	ldr	r0, [pc, #4]	; (8009700 <spi_lld_serve_tx_interrupt+0x10>)
 80096fc:	f7ff ff08 	bl	8009510 <chSysHalt>
 8009700:	0800e048 	.word	0x0800e048
	...

08009710 <_pal_lld_init>:
void _pal_lld_init(void) {

#if PAL_USE_CALLBACKS || PAL_USE_WAIT || defined(__DOXYGEN__)
  unsigned i;

  for (i = 0; i < 16; i++) {
 8009710:	2300      	movs	r3, #0
 8009712:	2b0f      	cmp	r3, #15
 8009714:	d807      	bhi.n	8009726 <_pal_lld_init+0x16>
    _pal_init_event(i);
 8009716:	4904      	ldr	r1, [pc, #16]	; (8009728 <_pal_lld_init+0x18>)
 8009718:	eb01 02c3 	add.w	r2, r1, r3, lsl #3
  tqp->next = (thread_t *)tqp;
 800971c:	f841 2033 	str.w	r2, [r1, r3, lsl #3]
  tqp->prev = (thread_t *)tqp;
 8009720:	6052      	str	r2, [r2, #4]
  for (i = 0; i < 16; i++) {
 8009722:	3301      	adds	r3, #1
 8009724:	e7f5      	b.n	8009712 <_pal_lld_init+0x2>
  }
#endif
}
 8009726:	4770      	bx	lr
 8009728:	20002030 	.word	0x20002030
 800972c:	00000000 	.word	0x00000000

08009730 <dmaInit>:
 * @init
 */
void dmaInit(void) {
  unsigned i;

  dma.allocated_mask = 0U;
 8009730:	2300      	movs	r3, #0
 8009732:	4a0d      	ldr	r2, [pc, #52]	; (8009768 <dmaInit+0x38>)
 8009734:	6013      	str	r3, [r2, #0]
  for (i = 0U; i < STM32_DMA_STREAMS; i++) {
 8009736:	2b0f      	cmp	r3, #15
 8009738:	d80c      	bhi.n	8009754 <dmaInit+0x24>
    _stm32_dma_streams[i].stream->CR = STM32_DMA_CR_RESET_VALUE;
 800973a:	eb03 0143 	add.w	r1, r3, r3, lsl #1
 800973e:	008a      	lsls	r2, r1, #2
 8009740:	490a      	ldr	r1, [pc, #40]	; (800976c <dmaInit+0x3c>)
 8009742:	588a      	ldr	r2, [r1, r2]
 8009744:	2100      	movs	r1, #0
 8009746:	6011      	str	r1, [r2, #0]
    dma.streams[i].func = NULL;
 8009748:	4a07      	ldr	r2, [pc, #28]	; (8009768 <dmaInit+0x38>)
 800974a:	eb02 02c3 	add.w	r2, r2, r3, lsl #3
 800974e:	6051      	str	r1, [r2, #4]
  for (i = 0U; i < STM32_DMA_STREAMS; i++) {
 8009750:	3301      	adds	r3, #1
 8009752:	e7f0      	b.n	8009736 <dmaInit+0x6>
  }
  DMA1->LIFCR = 0xFFFFFFFFU;
 8009754:	4a06      	ldr	r2, [pc, #24]	; (8009770 <dmaInit+0x40>)
 8009756:	f04f 33ff 	mov.w	r3, #4294967295	; 0xffffffff
 800975a:	6093      	str	r3, [r2, #8]
  DMA1->HIFCR = 0xFFFFFFFFU;
 800975c:	60d3      	str	r3, [r2, #12]
  DMA2->LIFCR = 0xFFFFFFFFU;
 800975e:	f502 6280 	add.w	r2, r2, #1024	; 0x400
 8009762:	6093      	str	r3, [r2, #8]
  DMA2->HIFCR = 0xFFFFFFFFU;
 8009764:	60d3      	str	r3, [r2, #12]
}
 8009766:	4770      	bx	lr
 8009768:	20002188 	.word	0x20002188
 800976c:	0800e05c 	.word	0x0800e05c
 8009770:	40026000 	.word	0x40026000
	...

08009780 <stm32_clock_init>:
#if !STM32_NO_INIT
  /* PWR clock enable.*/
#if defined(HAL_USE_RTC) && defined(RCC_APB1ENR_RTCAPBEN)
  RCC->APB1ENR = RCC_APB1ENR_PWREN | RCC_APB1ENR_RTCAPBEN;
#else
  RCC->APB1ENR = RCC_APB1ENR_PWREN;
 8009780:	4b56      	ldr	r3, [pc, #344]	; (80098dc <stm32_clock_init+0x15c>)
 8009782:	f04f 5280 	mov.w	r2, #268435456	; 0x10000000
 8009786:	641a      	str	r2, [r3, #64]	; 0x40
#endif

  /* PWR initialization.*/
#if defined(STM32F4XX) || defined(__DOXYGEN__)
  PWR->CR = STM32_VOS;
 8009788:	4a55      	ldr	r2, [pc, #340]	; (80098e0 <stm32_clock_init+0x160>)
 800978a:	f44f 4140 	mov.w	r1, #49152	; 0xc000
 800978e:	6011      	str	r1, [r2, #0]
  PWR->CR = 0;
#endif

  /* HSI setup, it enforces the reset situation in order to handle possible
     problems with JTAG probes and re-initializations.*/
  RCC->CR |= RCC_CR_HSION;                  /* Make sure HSI is ON.         */
 8009790:	681a      	ldr	r2, [r3, #0]
 8009792:	f042 0201 	orr.w	r2, r2, #1
 8009796:	601a      	str	r2, [r3, #0]
  while (!(RCC->CR & RCC_CR_HSIRDY))
 8009798:	4b50      	ldr	r3, [pc, #320]	; (80098dc <stm32_clock_init+0x15c>)
 800979a:	681b      	ldr	r3, [r3, #0]
 800979c:	f013 0f02 	tst.w	r3, #2
 80097a0:	d0fa      	beq.n	8009798 <stm32_clock_init+0x18>
    ;                                       /* Wait until HSI is stable.    */

  /* HSI is selected as new source without touching the other fields in
     CFGR. Clearing the register has to be postponed after HSI is the
     new source.*/
  RCC->CFGR &= ~RCC_CFGR_SW;                /* Reset SW, selecting HSI.     */
 80097a2:	4a4e      	ldr	r2, [pc, #312]	; (80098dc <stm32_clock_init+0x15c>)
 80097a4:	6893      	ldr	r3, [r2, #8]
 80097a6:	f023 0303 	bic.w	r3, r3, #3
 80097aa:	6093      	str	r3, [r2, #8]
  while ((RCC->CFGR & RCC_CFGR_SWS) != RCC_CFGR_SWS_HSI)
 80097ac:	4b4b      	ldr	r3, [pc, #300]	; (80098dc <stm32_clock_init+0x15c>)
 80097ae:	689b      	ldr	r3, [r3, #8]
 80097b0:	f013 0f0c 	tst.w	r3, #12
 80097b4:	d1fa      	bne.n	80097ac <stm32_clock_init+0x2c>
    ;                                       /* Wait until HSI is selected.  */

  /* Registers finally cleared to reset values.*/
  RCC->CR &= RCC_CR_HSITRIM | RCC_CR_HSION; /* CR Reset value.              */
 80097b6:	4b49      	ldr	r3, [pc, #292]	; (80098dc <stm32_clock_init+0x15c>)
 80097b8:	681a      	ldr	r2, [r3, #0]
 80097ba:	f002 02f9 	and.w	r2, r2, #249	; 0xf9
 80097be:	601a      	str	r2, [r3, #0]
  RCC->CFGR = 0;                            /* CFGR reset value.            */
 80097c0:	2200      	movs	r2, #0
 80097c2:	609a      	str	r2, [r3, #8]

#if STM32_HSE_ENABLED
  /* HSE activation.*/
#if defined(STM32_HSE_BYPASS)
  /* HSE Bypass.*/
  RCC->CR |= RCC_CR_HSEON | RCC_CR_HSEBYP;
 80097c4:	681a      	ldr	r2, [r3, #0]
 80097c6:	f442 22a0 	orr.w	r2, r2, #327680	; 0x50000
 80097ca:	601a      	str	r2, [r3, #0]
#else
  /* No HSE Bypass.*/
  RCC->CR |= RCC_CR_HSEON;
#endif
  while ((RCC->CR & RCC_CR_HSERDY) == 0)
 80097cc:	4b43      	ldr	r3, [pc, #268]	; (80098dc <stm32_clock_init+0x15c>)
 80097ce:	681b      	ldr	r3, [r3, #0]
 80097d0:	f413 3f00 	tst.w	r3, #131072	; 0x20000
 80097d4:	d0fa      	beq.n	80097cc <stm32_clock_init+0x4c>
    ;                           /* Waits until HSE is stable.               */
#endif

#if STM32_LSI_ENABLED
  /* LSI activation.*/
  RCC->CSR |= RCC_CSR_LSION;
 80097d6:	4a41      	ldr	r2, [pc, #260]	; (80098dc <stm32_clock_init+0x15c>)
 80097d8:	6f53      	ldr	r3, [r2, #116]	; 0x74
 80097da:	f043 0301 	orr.w	r3, r3, #1
 80097de:	6753      	str	r3, [r2, #116]	; 0x74
  while ((RCC->CSR & RCC_CSR_LSIRDY) == 0)
 80097e0:	4b3e      	ldr	r3, [pc, #248]	; (80098dc <stm32_clock_init+0x15c>)
 80097e2:	6f5b      	ldr	r3, [r3, #116]	; 0x74
 80097e4:	f013 0f02 	tst.w	r3, #2
 80097e8:	d0fa      	beq.n	80097e0 <stm32_clock_init+0x60>
    ;                           /* Waits until LSI is stable.               */
#endif

#if STM32_ACTIVATE_PLL
  /* PLL activation.*/
  RCC->PLLCFGR = STM32_PLLQ | STM32_PLLSRC | STM32_PLLP | STM32_PLLN |
 80097ea:	4b3c      	ldr	r3, [pc, #240]	; (80098dc <stm32_clock_init+0x15c>)
 80097ec:	4a3d      	ldr	r2, [pc, #244]	; (80098e4 <stm32_clock_init+0x164>)
 80097ee:	605a      	str	r2, [r3, #4]
                 STM32_PLLM;
  RCC->CR |= RCC_CR_PLLON;
 80097f0:	681a      	ldr	r2, [r3, #0]
 80097f2:	f042 7280 	orr.w	r2, r2, #16777216	; 0x1000000
 80097f6:	601a      	str	r2, [r3, #0]

  /* Synchronization with voltage regulator stabilization.*/
#if defined(STM32F4XX)
  while ((PWR->CSR & PWR_CSR_VOSRDY) == 0)
 80097f8:	4b39      	ldr	r3, [pc, #228]	; (80098e0 <stm32_clock_init+0x160>)
 80097fa:	685b      	ldr	r3, [r3, #4]
 80097fc:	f413 4f80 	tst.w	r3, #16384	; 0x4000
 8009800:	d0fa      	beq.n	80097f8 <stm32_clock_init+0x78>
    ;                           /* Waits until power regulator is stable.   */

#if STM32_OVERDRIVE_REQUIRED
  /* Overdrive activation performed after activating the PLL in order to save
     time as recommended in RM in "Entering Over-drive mode" paragraph.*/
  PWR->CR |= PWR_CR_ODEN;
 8009802:	4a37      	ldr	r2, [pc, #220]	; (80098e0 <stm32_clock_init+0x160>)
 8009804:	6813      	ldr	r3, [r2, #0]
 8009806:	f443 3380 	orr.w	r3, r3, #65536	; 0x10000
 800980a:	6013      	str	r3, [r2, #0]
  while (!(PWR->CSR & PWR_CSR_ODRDY))
 800980c:	4b34      	ldr	r3, [pc, #208]	; (80098e0 <stm32_clock_init+0x160>)
 800980e:	685b      	ldr	r3, [r3, #4]
 8009810:	f413 3f80 	tst.w	r3, #65536	; 0x10000
 8009814:	d0fa      	beq.n	800980c <stm32_clock_init+0x8c>
      ;
  PWR->CR |= PWR_CR_ODSWEN;
 8009816:	4a32      	ldr	r2, [pc, #200]	; (80098e0 <stm32_clock_init+0x160>)
 8009818:	6813      	ldr	r3, [r2, #0]
 800981a:	f443 3300 	orr.w	r3, r3, #131072	; 0x20000
 800981e:	6013      	str	r3, [r2, #0]
  while (!(PWR->CSR & PWR_CSR_ODSWRDY))
 8009820:	4b2f      	ldr	r3, [pc, #188]	; (80098e0 <stm32_clock_init+0x160>)
 8009822:	685b      	ldr	r3, [r3, #4]
 8009824:	f413 3f00 	tst.w	r3, #131072	; 0x20000
 8009828:	d0fa      	beq.n	8009820 <stm32_clock_init+0xa0>
      ;
#endif /* STM32_OVERDRIVE_REQUIRED */
#endif /* defined(STM32F4XX) */

  /* Waiting for PLL lock.*/
  while (!(RCC->CR & RCC_CR_PLLRDY))
 800982a:	4b2c      	ldr	r3, [pc, #176]	; (80098dc <stm32_clock_init+0x15c>)
 800982c:	681b      	ldr	r3, [r3, #0]
 800982e:	f013 7f00 	tst.w	r3, #33554432	; 0x2000000
 8009832:	d0fa      	beq.n	800982a <stm32_clock_init+0xaa>
    ;
#endif /* STM32_ACTIVATE_PLL */

#if STM32_ACTIVATE_PLLI2S
  /* PLLI2S activation.*/
  RCC->PLLI2SCFGR = STM32_PLLI2SR | STM32_PLLI2SN | STM32_PLLI2SP |
 8009834:	4b29      	ldr	r3, [pc, #164]	; (80098dc <stm32_clock_init+0x15c>)
 8009836:	4a2c      	ldr	r2, [pc, #176]	; (80098e8 <stm32_clock_init+0x168>)
 8009838:	f8c3 2084 	str.w	r2, [r3, #132]	; 0x84
                    STM32_PLLI2SSRC | STM32_PLLI2SQ | STM32_PLLI2SM;
  RCC->CR |= RCC_CR_PLLI2SON;
 800983c:	681a      	ldr	r2, [r3, #0]
 800983e:	f042 6280 	orr.w	r2, r2, #67108864	; 0x4000000
 8009842:	601a      	str	r2, [r3, #0]

  /* Waiting for PLL lock.*/
  while (!(RCC->CR & RCC_CR_PLLI2SRDY))
 8009844:	4b25      	ldr	r3, [pc, #148]	; (80098dc <stm32_clock_init+0x15c>)
 8009846:	681b      	ldr	r3, [r3, #0]
 8009848:	f013 6f00 	tst.w	r3, #134217728	; 0x8000000
 800984c:	d0fa      	beq.n	8009844 <stm32_clock_init+0xc4>
    ;
#endif /* STM32_ACTIVATE_PLLI2S */

#if STM32_ACTIVATE_PLLSAI
  /* PLLSAI activation.*/
  RCC->PLLSAICFGR = STM32_PLLSAIR | STM32_PLLSAIN | STM32_PLLSAIP |
 800984e:	4b23      	ldr	r3, [pc, #140]	; (80098dc <stm32_clock_init+0x15c>)
 8009850:	4a26      	ldr	r2, [pc, #152]	; (80098ec <stm32_clock_init+0x16c>)
 8009852:	f8c3 2088 	str.w	r2, [r3, #136]	; 0x88
                    STM32_PLLSAIQ | STM32_PLLSAIM;
  RCC->CR |= RCC_CR_PLLSAION;
 8009856:	681a      	ldr	r2, [r3, #0]
 8009858:	f042 5280 	orr.w	r2, r2, #268435456	; 0x10000000
 800985c:	601a      	str	r2, [r3, #0]

  /* Waiting for PLL lock.*/
  while (!(RCC->CR & RCC_CR_PLLSAIRDY))
 800985e:	4b1f      	ldr	r3, [pc, #124]	; (80098dc <stm32_clock_init+0x15c>)
 8009860:	681b      	ldr	r3, [r3, #0]
 8009862:	f013 5f00 	tst.w	r3, #536870912	; 0x20000000
 8009866:	d0fa      	beq.n	800985e <stm32_clock_init+0xde>
    ;
#endif /* STM32_ACTIVATE_PLLSAI */

  /* Other clock-related settings (dividers, MCO etc).*/
#if !defined(STM32F413xx)
  RCC->CFGR = STM32_MCO2PRE | STM32_MCO2SEL | STM32_MCO1PRE | STM32_MCO1SEL |
 8009868:	4b1c      	ldr	r3, [pc, #112]	; (80098dc <stm32_clock_init+0x15c>)
 800986a:	4a21      	ldr	r2, [pc, #132]	; (80098f0 <stm32_clock_init+0x170>)
 800986c:	609a      	str	r2, [r3, #8]
  /* Special case, in those devices STM32_CK48MSEL is located in the
     DCKCFGR register.*/
    dckcfgr |= STM32_CK48MSEL;
#endif
#if !defined(STM32F413xx)
    RCC->DCKCFGR = dckcfgr |
 800986e:	4a21      	ldr	r2, [pc, #132]	; (80098f4 <stm32_clock_init+0x174>)
 8009870:	f8c3 208c 	str.w	r2, [r3, #140]	; 0x8c
  }
#endif

#if STM32_HAS_RCC_DCKCFGR2
  /* DCKCFGR2 register initialization.*/
  RCC->DCKCFGR2 = STM32_CK48MSEL;
 8009874:	f04f 6200 	mov.w	r2, #134217728	; 0x8000000
 8009878:	f8c3 2094 	str.w	r2, [r3, #148]	; 0x94

  /* Flash setup.*/
#if !defined(STM32_REMOVE_REVISION_A_FIX)
  /* Some old revisions of F4x MCUs randomly crashes with compiler
     optimizations enabled AND flash caches enabled. */
  if ((DBGMCU->IDCODE == 0x20006411) && (SCB->CPUID == 0x410FC241))
 800987c:	4b1e      	ldr	r3, [pc, #120]	; (80098f8 <stm32_clock_init+0x178>)
 800987e:	681a      	ldr	r2, [r3, #0]
 8009880:	4b1e      	ldr	r3, [pc, #120]	; (80098fc <stm32_clock_init+0x17c>)
 8009882:	429a      	cmp	r2, r3
 8009884:	d01f      	beq.n	80098c6 <stm32_clock_init+0x146>
    FLASH->ACR = FLASH_ACR_PRFTEN | STM32_FLASHBITS;
  else
    FLASH->ACR = FLASH_ACR_PRFTEN | FLASH_ACR_ICEN |
 8009886:	4b1e      	ldr	r3, [pc, #120]	; (8009900 <stm32_clock_init+0x180>)
 8009888:	f240 7205 	movw	r2, #1797	; 0x705
 800988c:	601a      	str	r2, [r3, #0]
                 FLASH_ACR_DCEN | STM32_FLASHBITS;
#else
  FLASH->ACR = FLASH_ACR_PRFTEN | FLASH_ACR_ICEN |
               FLASH_ACR_DCEN | STM32_FLASHBITS;
#endif
  while ((FLASH->ACR & FLASH_ACR_LATENCY_Msk) !=
 800988e:	4b1c      	ldr	r3, [pc, #112]	; (8009900 <stm32_clock_init+0x180>)
 8009890:	681b      	ldr	r3, [r3, #0]
 8009892:	f003 030f 	and.w	r3, r3, #15
 8009896:	2b05      	cmp	r3, #5
 8009898:	d1f9      	bne.n	800988e <stm32_clock_init+0x10e>
         (STM32_FLASHBITS & FLASH_ACR_LATENCY_Msk)) {
  }

  /* Switching to the configured clock source if it is different from HSI.*/
#if (STM32_SW != STM32_SW_HSI)
  RCC->CFGR |= STM32_SW;        /* Switches on the selected clock source.   */
 800989a:	4a10      	ldr	r2, [pc, #64]	; (80098dc <stm32_clock_init+0x15c>)
 800989c:	6893      	ldr	r3, [r2, #8]
 800989e:	f043 0302 	orr.w	r3, r3, #2
 80098a2:	6093      	str	r3, [r2, #8]
  while ((RCC->CFGR & RCC_CFGR_SWS) != (STM32_SW << 2))
 80098a4:	4b0d      	ldr	r3, [pc, #52]	; (80098dc <stm32_clock_init+0x15c>)
 80098a6:	689b      	ldr	r3, [r3, #8]
 80098a8:	f003 030c 	and.w	r3, r3, #12
 80098ac:	2b08      	cmp	r3, #8
 80098ae:	d1f9      	bne.n	80098a4 <stm32_clock_init+0x124>
#endif
#endif /* STM32_NO_INIT */

  /* SYSCFG clock enabled here because it is a multi-functional unit shared
     among multiple drivers.*/
  rccEnableAPB2(RCC_APB2ENR_SYSCFGEN, true);
 80098b0:	4b0a      	ldr	r3, [pc, #40]	; (80098dc <stm32_clock_init+0x15c>)
 80098b2:	6c5a      	ldr	r2, [r3, #68]	; 0x44
 80098b4:	f442 4280 	orr.w	r2, r2, #16384	; 0x4000
 80098b8:	645a      	str	r2, [r3, #68]	; 0x44
 80098ba:	6e5a      	ldr	r2, [r3, #100]	; 0x64
 80098bc:	f442 4280 	orr.w	r2, r2, #16384	; 0x4000
 80098c0:	665a      	str	r2, [r3, #100]	; 0x64
 80098c2:	6e5b      	ldr	r3, [r3, #100]	; 0x64
}
 80098c4:	4770      	bx	lr
  if ((DBGMCU->IDCODE == 0x20006411) && (SCB->CPUID == 0x410FC241))
 80098c6:	4b0f      	ldr	r3, [pc, #60]	; (8009904 <stm32_clock_init+0x184>)
 80098c8:	681a      	ldr	r2, [r3, #0]
 80098ca:	4b0f      	ldr	r3, [pc, #60]	; (8009908 <stm32_clock_init+0x188>)
 80098cc:	429a      	cmp	r2, r3
 80098ce:	d1da      	bne.n	8009886 <stm32_clock_init+0x106>
    FLASH->ACR = FLASH_ACR_PRFTEN | STM32_FLASHBITS;
 80098d0:	4b0b      	ldr	r3, [pc, #44]	; (8009900 <stm32_clock_init+0x180>)
 80098d2:	f240 1205 	movw	r2, #261	; 0x105
 80098d6:	601a      	str	r2, [r3, #0]
 80098d8:	e7d9      	b.n	800988e <stm32_clock_init+0x10e>
 80098da:	bf00      	nop
 80098dc:	40023800 	.word	0x40023800
 80098e0:	40007000 	.word	0x40007000
 80098e4:	07405a08 	.word	0x07405a08
 80098e8:	44413004 	.word	0x44413004
 80098ec:	44033004 	.word	0x44033004
 80098f0:	40089400 	.word	0x40089400
 80098f4:	00800003 	.word	0x00800003
 80098f8:	e0042000 	.word	0xe0042000
 80098fc:	20006411 	.word	0x20006411
 8009900:	40023c00 	.word	0x40023c00
 8009904:	e000ed00 	.word	0xe000ed00
 8009908:	410fc241 	.word	0x410fc241
 800990c:	00000000 	.word	0x00000000

08009910 <hal_lld_backup_domain_init>:
  PWR->CR |= PWR_CR_DBP;
 8009910:	4a0b      	ldr	r2, [pc, #44]	; (8009940 <hal_lld_backup_domain_init+0x30>)
 8009912:	6813      	ldr	r3, [r2, #0]
 8009914:	f443 7380 	orr.w	r3, r3, #256	; 0x100
 8009918:	6013      	str	r3, [r2, #0]
  if ((RCC->BDCR & STM32_RTCSEL_MASK) != STM32_RTCSEL) {
 800991a:	4b0a      	ldr	r3, [pc, #40]	; (8009944 <hal_lld_backup_domain_init+0x34>)
 800991c:	6f1b      	ldr	r3, [r3, #112]	; 0x70
 800991e:	f403 7340 	and.w	r3, r3, #768	; 0x300
 8009922:	f5b3 7f00 	cmp.w	r3, #512	; 0x200
 8009926:	d005      	beq.n	8009934 <hal_lld_backup_domain_init+0x24>
    RCC->BDCR = RCC_BDCR_BDRST;
 8009928:	4b06      	ldr	r3, [pc, #24]	; (8009944 <hal_lld_backup_domain_init+0x34>)
 800992a:	f44f 3280 	mov.w	r2, #65536	; 0x10000
 800992e:	671a      	str	r2, [r3, #112]	; 0x70
    RCC->BDCR = 0;
 8009930:	2200      	movs	r2, #0
 8009932:	671a      	str	r2, [r3, #112]	; 0x70
  PWR->CSR &= ~PWR_CSR_BRE;
 8009934:	4a02      	ldr	r2, [pc, #8]	; (8009940 <hal_lld_backup_domain_init+0x30>)
 8009936:	6853      	ldr	r3, [r2, #4]
 8009938:	f423 7300 	bic.w	r3, r3, #512	; 0x200
 800993c:	6053      	str	r3, [r2, #4]
}
 800993e:	4770      	bx	lr
 8009940:	40007000 	.word	0x40007000
 8009944:	40023800 	.word	0x40023800
	...

08009950 <nvicEnableVector>:

#if defined(__CORE_CM0_H_GENERIC)
  NVIC->IP[_IP_IDX(n)] = (NVIC->IP[_IP_IDX(n)] & ~(0xFFU << _BIT_SHIFT(n))) |
                         (NVIC_PRIORITY_MASK(prio) << _BIT_SHIFT(n));
#else
  NVIC->IP[n] = NVIC_PRIORITY_MASK(prio);
 8009950:	0109      	lsls	r1, r1, #4
 8009952:	b2c9      	uxtb	r1, r1
 8009954:	4a07      	ldr	r2, [pc, #28]	; (8009974 <nvicEnableVector+0x24>)
 8009956:	1813      	adds	r3, r2, r0
 8009958:	f883 1300 	strb.w	r1, [r3, #768]	; 0x300
#endif
  NVIC->ICPR[n >> 5U] = 1U << (n & 0x1FU);
 800995c:	f000 011f 	and.w	r1, r0, #31
 8009960:	0940      	lsrs	r0, r0, #5
 8009962:	2301      	movs	r3, #1
 8009964:	408b      	lsls	r3, r1
 8009966:	f100 0160 	add.w	r1, r0, #96	; 0x60
 800996a:	f842 3021 	str.w	r3, [r2, r1, lsl #2]
  NVIC->ISER[n >> 5U] = 1U << (n & 0x1FU);
 800996e:	f842 3020 	str.w	r3, [r2, r0, lsl #2]
}
 8009972:	4770      	bx	lr
 8009974:	e000e100 	.word	0xe000e100
	...

08009980 <sd_lld_start>:
 *                      If this parameter is set to @p NULL then a default
 *                      configuration is used.
 *
 * @notapi
 */
void sd_lld_start(SerialDriver *sdp, const SerialConfig *config) {
 8009980:	b538      	push	{r3, r4, r5, lr}
 8009982:	4604      	mov	r4, r0

  if (config == NULL)
 8009984:	460d      	mov	r5, r1
 8009986:	b139      	cbz	r1, 8009998 <sd_lld_start+0x18>
    config = &default_config;

  if (sdp->state == SD_STOP) {
 8009988:	7a23      	ldrb	r3, [r4, #8]
 800998a:	2b01      	cmp	r3, #1
 800998c:	d006      	beq.n	800999c <sd_lld_start+0x1c>
      rccEnableUART8(true);
      nvicEnableVector(STM32_UART8_NUMBER, STM32_SERIAL_UART8_PRIORITY);
    }
#endif
  }
  usart_init(sdp, config);
 800998e:	4629      	mov	r1, r5
 8009990:	4620      	mov	r0, r4
 8009992:	f7ff fe3d 	bl	8009610 <usart_init>
}
 8009996:	bd38      	pop	{r3, r4, r5, pc}
    config = &default_config;
 8009998:	4d09      	ldr	r5, [pc, #36]	; (80099c0 <sd_lld_start+0x40>)
 800999a:	e7f5      	b.n	8009988 <sd_lld_start+0x8>
    if (&SD2 == sdp) {
 800999c:	4b09      	ldr	r3, [pc, #36]	; (80099c4 <sd_lld_start+0x44>)
 800999e:	429c      	cmp	r4, r3
 80099a0:	d1f5      	bne.n	800998e <sd_lld_start+0xe>
      rccEnableUSART2(true);
 80099a2:	4b09      	ldr	r3, [pc, #36]	; (80099c8 <sd_lld_start+0x48>)
 80099a4:	6c1a      	ldr	r2, [r3, #64]	; 0x40
 80099a6:	f442 3200 	orr.w	r2, r2, #131072	; 0x20000
 80099aa:	641a      	str	r2, [r3, #64]	; 0x40
 80099ac:	6e1a      	ldr	r2, [r3, #96]	; 0x60
 80099ae:	f442 3200 	orr.w	r2, r2, #131072	; 0x20000
 80099b2:	661a      	str	r2, [r3, #96]	; 0x60
 80099b4:	6e1b      	ldr	r3, [r3, #96]	; 0x60
      nvicEnableVector(STM32_USART2_NUMBER, STM32_SERIAL_USART2_PRIORITY);
 80099b6:	210c      	movs	r1, #12
 80099b8:	2026      	movs	r0, #38	; 0x26
 80099ba:	f7ff ffc9 	bl	8009950 <nvicEnableVector>
 80099be:	e7e6      	b.n	800998e <sd_lld_start+0xe>
 80099c0:	0800e134 	.word	0x0800e134
 80099c4:	20000f10 	.word	0x20000f10
 80099c8:	40023800 	.word	0x40023800
 80099cc:	00000000 	.word	0x00000000

080099d0 <st_lld_init>:
/**
 * @brief   Low level ST driver initialization.
 *
 * @notapi
 */
void st_lld_init(void) {
 80099d0:	b508      	push	{r3, lr}

#if OSAL_ST_MODE == OSAL_ST_MODE_FREERUNNING
  /* Free running counter mode.*/

  /* Enabling timer clock.*/
  ST_ENABLE_CLOCK();
 80099d2:	4b12      	ldr	r3, [pc, #72]	; (8009a1c <st_lld_init+0x4c>)
 80099d4:	6c1a      	ldr	r2, [r3, #64]	; 0x40
 80099d6:	f042 0201 	orr.w	r2, r2, #1
 80099da:	641a      	str	r2, [r3, #64]	; 0x40
 80099dc:	6e1a      	ldr	r2, [r3, #96]	; 0x60
 80099de:	f042 0201 	orr.w	r2, r2, #1
 80099e2:	661a      	str	r2, [r3, #96]	; 0x60
 80099e4:	6e1b      	ldr	r3, [r3, #96]	; 0x60

  /* Enabling the stop mode during debug for this timer.*/
  ST_ENABLE_STOP();
 80099e6:	4a0e      	ldr	r2, [pc, #56]	; (8009a20 <st_lld_init+0x50>)
 80099e8:	6893      	ldr	r3, [r2, #8]
 80099ea:	f043 0301 	orr.w	r3, r3, #1
 80099ee:	6093      	str	r3, [r2, #8]

  /* Initializing the counter in free running mode.*/
  STM32_ST_TIM->PSC    = (ST_CLOCK_SRC / OSAL_ST_FREQUENCY) - 1;
 80099f0:	f04f 4380 	mov.w	r3, #1073741824	; 0x40000000
 80099f4:	f242 3227 	movw	r2, #8999	; 0x2327
 80099f8:	629a      	str	r2, [r3, #40]	; 0x28
  STM32_ST_TIM->ARR    = ST_ARR_INIT;
 80099fa:	f04f 32ff 	mov.w	r2, #4294967295	; 0xffffffff
 80099fe:	62da      	str	r2, [r3, #44]	; 0x2c
  STM32_ST_TIM->CCMR1  = 0;
 8009a00:	2200      	movs	r2, #0
 8009a02:	619a      	str	r2, [r3, #24]
  STM32_ST_TIM->CCR[0] = 0;
 8009a04:	635a      	str	r2, [r3, #52]	; 0x34
  STM32_ST_TIM->CCR[2] = 0;
#endif
#if ST_LLD_NUM_ALARMS > 3
  STM32_ST_TIM->CCR[3] = 0;
#endif
  STM32_ST_TIM->DIER   = 0;
 8009a06:	60da      	str	r2, [r3, #12]
  STM32_ST_TIM->CR2    = 0;
 8009a08:	605a      	str	r2, [r3, #4]
  STM32_ST_TIM->EGR    = TIM_EGR_UG;
 8009a0a:	2201      	movs	r2, #1
 8009a0c:	615a      	str	r2, [r3, #20]
  STM32_ST_TIM->CR1    = TIM_CR1_CEN;
 8009a0e:	601a      	str	r2, [r3, #0]

#if !defined(STM32_SYSTICK_SUPPRESS_ISR)
  /* IRQ enabled.*/
  nvicEnableVector(ST_NUMBER, STM32_ST_IRQ_PRIORITY);
 8009a10:	2108      	movs	r1, #8
 8009a12:	201c      	movs	r0, #28
 8009a14:	f7ff ff9c 	bl	8009950 <nvicEnableVector>
                  SysTick_CTRL_TICKINT_Msk;

  /* IRQ enabled.*/
  nvicSetSystemHandlerPriority(HANDLER_SYSTICK, STM32_ST_IRQ_PRIORITY);
#endif /* OSAL_ST_MODE == OSAL_ST_MODE_PERIODIC */
}
 8009a18:	bd08      	pop	{r3, pc}
 8009a1a:	bf00      	nop
 8009a1c:	40023800 	.word	0x40023800
 8009a20:	e0042000 	.word	0xe0042000
	...

08009a30 <dmaStreamAllocI>:
 * @iclass
 */
const stm32_dma_stream_t *dmaStreamAllocI(uint32_t id,
                                          uint32_t priority,
                                          stm32_dmaisr_t func,
                                          void *param) {
 8009a30:	b5f8      	push	{r3, r4, r5, r6, r7, lr}
  uint32_t i, startid, endid;

  osalDbgCheckClassI();

  if (id < STM32_DMA_STREAMS) {
 8009a32:	280f      	cmp	r0, #15
 8009a34:	d805      	bhi.n	8009a42 <dmaStreamAllocI+0x12>
  else {
    osalDbgCheck(false);
    return NULL;
  }

  for (i = startid; i <= endid; i++) {
 8009a36:	4604      	mov	r4, r0
 8009a38:	42a0      	cmp	r0, r4
 8009a3a:	d204      	bcs.n	8009a46 <dmaStreamAllocI+0x16>

      return dmastp;
    }
  }

  return NULL;
 8009a3c:	2700      	movs	r7, #0
}
 8009a3e:	4638      	mov	r0, r7
 8009a40:	bdf8      	pop	{r3, r4, r5, r6, r7, pc}
    return NULL;
 8009a42:	2700      	movs	r7, #0
 8009a44:	e7fb      	b.n	8009a3e <dmaStreamAllocI+0xe>
    uint32_t mask = (1U << i);
 8009a46:	2501      	movs	r5, #1
 8009a48:	40a5      	lsls	r5, r4
    if ((dma.allocated_mask & mask) == 0U) {
 8009a4a:	4e28      	ldr	r6, [pc, #160]	; (8009aec <dmaStreamAllocI+0xbc>)
 8009a4c:	6836      	ldr	r6, [r6, #0]
 8009a4e:	422e      	tst	r6, r5
 8009a50:	d001      	beq.n	8009a56 <dmaStreamAllocI+0x26>
  for (i = startid; i <= endid; i++) {
 8009a52:	3401      	adds	r4, #1
 8009a54:	e7f0      	b.n	8009a38 <dmaStreamAllocI+0x8>
      const stm32_dma_stream_t *dmastp = STM32_DMA_STREAM(i);
 8009a56:	4826      	ldr	r0, [pc, #152]	; (8009af0 <dmaStreamAllocI+0xc0>)
 8009a58:	270c      	movs	r7, #12
 8009a5a:	fb07 0704 	mla	r7, r7, r4, r0
      dma.streams[i].func  = func;
 8009a5e:	4823      	ldr	r0, [pc, #140]	; (8009aec <dmaStreamAllocI+0xbc>)
 8009a60:	eb00 0cc4 	add.w	ip, r0, r4, lsl #3
 8009a64:	f8cc 2004 	str.w	r2, [ip, #4]
      dma.streams[i].param = param;
 8009a68:	f8cc 3008 	str.w	r3, [ip, #8]
      dma.allocated_mask  |= mask;
 8009a6c:	432e      	orrs	r6, r5
 8009a6e:	6006      	str	r6, [r0, #0]
      if ((STM32_DMA1_STREAMS_MASK & mask) != 0U) {
 8009a70:	f015 0fff 	tst.w	r5, #255	; 0xff
 8009a74:	d009      	beq.n	8009a8a <dmaStreamAllocI+0x5a>
        rccEnableDMA1(true);
 8009a76:	4b1f      	ldr	r3, [pc, #124]	; (8009af4 <dmaStreamAllocI+0xc4>)
 8009a78:	6b18      	ldr	r0, [r3, #48]	; 0x30
 8009a7a:	f440 1000 	orr.w	r0, r0, #2097152	; 0x200000
 8009a7e:	6318      	str	r0, [r3, #48]	; 0x30
 8009a80:	6d18      	ldr	r0, [r3, #80]	; 0x50
 8009a82:	f440 1000 	orr.w	r0, r0, #2097152	; 0x200000
 8009a86:	6518      	str	r0, [r3, #80]	; 0x50
 8009a88:	6d1b      	ldr	r3, [r3, #80]	; 0x50
      if ((STM32_DMA2_STREAMS_MASK & mask) != 0U) {
 8009a8a:	f415 4f7f 	tst.w	r5, #65280	; 0xff00
 8009a8e:	d009      	beq.n	8009aa4 <dmaStreamAllocI+0x74>
        rccEnableDMA2(true);
 8009a90:	4b18      	ldr	r3, [pc, #96]	; (8009af4 <dmaStreamAllocI+0xc4>)
 8009a92:	6b18      	ldr	r0, [r3, #48]	; 0x30
 8009a94:	f440 0080 	orr.w	r0, r0, #4194304	; 0x400000
 8009a98:	6318      	str	r0, [r3, #48]	; 0x30
 8009a9a:	6d18      	ldr	r0, [r3, #80]	; 0x50
 8009a9c:	f440 0080 	orr.w	r0, r0, #4194304	; 0x400000
 8009aa0:	6518      	str	r0, [r3, #80]	; 0x50
 8009aa2:	6d1b      	ldr	r3, [r3, #80]	; 0x50
      dmaStreamDisable(dmastp);
 8009aa4:	230c      	movs	r3, #12
 8009aa6:	fb03 f304 	mul.w	r3, r3, r4
 8009aaa:	4811      	ldr	r0, [pc, #68]	; (8009af0 <dmaStreamAllocI+0xc0>)
 8009aac:	58c0      	ldr	r0, [r0, r3]
 8009aae:	6803      	ldr	r3, [r0, #0]
 8009ab0:	f023 031f 	bic.w	r3, r3, #31
 8009ab4:	6003      	str	r3, [r0, #0]
 8009ab6:	6803      	ldr	r3, [r0, #0]
 8009ab8:	f013 0f01 	tst.w	r3, #1
 8009abc:	d1fb      	bne.n	8009ab6 <dmaStreamAllocI+0x86>
 8009abe:	4d0c      	ldr	r5, [pc, #48]	; (8009af0 <dmaStreamAllocI+0xc0>)
 8009ac0:	230c      	movs	r3, #12
 8009ac2:	fb03 5304 	mla	r3, r3, r4, r5
 8009ac6:	7a5e      	ldrb	r6, [r3, #9]
 8009ac8:	685d      	ldr	r5, [r3, #4]
 8009aca:	233d      	movs	r3, #61	; 0x3d
 8009acc:	40b3      	lsls	r3, r6
 8009ace:	602b      	str	r3, [r5, #0]
      dmastp->stream->CR = STM32_DMA_CR_RESET_VALUE;
 8009ad0:	2300      	movs	r3, #0
 8009ad2:	6003      	str	r3, [r0, #0]
      dmastp->stream->FCR = STM32_DMA_FCR_RESET_VALUE;
 8009ad4:	2321      	movs	r3, #33	; 0x21
 8009ad6:	6143      	str	r3, [r0, #20]
      if (func != NULL) {
 8009ad8:	2a00      	cmp	r2, #0
 8009ada:	d0b0      	beq.n	8009a3e <dmaStreamAllocI+0xe>
        nvicEnableVector(dmastp->vector, priority);
 8009adc:	4a04      	ldr	r2, [pc, #16]	; (8009af0 <dmaStreamAllocI+0xc0>)
 8009ade:	230c      	movs	r3, #12
 8009ae0:	fb03 2404 	mla	r4, r3, r4, r2
 8009ae4:	7ae0      	ldrb	r0, [r4, #11]
 8009ae6:	f7ff ff33 	bl	8009950 <nvicEnableVector>
      return dmastp;
 8009aea:	e7a8      	b.n	8009a3e <dmaStreamAllocI+0xe>
 8009aec:	20002188 	.word	0x20002188
 8009af0:	0800e05c 	.word	0x0800e05c
 8009af4:	40023800 	.word	0x40023800
	...

08009b00 <spi_lld_start>:
void spi_lld_start(SPIDriver *spip) {
 8009b00:	b510      	push	{r4, lr}
 8009b02:	4604      	mov	r4, r0
  if (spip->state == SPI_STOP) {
 8009b04:	7803      	ldrb	r3, [r0, #0]
 8009b06:	2b01      	cmp	r3, #1
 8009b08:	d02e      	beq.n	8009b68 <spi_lld_start+0x68>
  if ((spip->config->cr1 & SPI_CR1_DFF) == 0) {
 8009b0a:	6863      	ldr	r3, [r4, #4]
 8009b0c:	8a1a      	ldrh	r2, [r3, #16]
 8009b0e:	f412 6f00 	tst.w	r2, #2048	; 0x800
 8009b12:	d16c      	bne.n	8009bee <spi_lld_start+0xee>
    spip->rxdmamode = (spip->rxdmamode & ~STM32_DMA_CR_SIZE_MASK) |
 8009b14:	6aa2      	ldr	r2, [r4, #40]	; 0x28
                      STM32_DMA_CR_PSIZE_BYTE | STM32_DMA_CR_MSIZE_BYTE;
 8009b16:	f422 42f0 	bic.w	r2, r2, #30720	; 0x7800
    spip->rxdmamode = (spip->rxdmamode & ~STM32_DMA_CR_SIZE_MASK) |
 8009b1a:	62a2      	str	r2, [r4, #40]	; 0x28
    spip->txdmamode = (spip->txdmamode & ~STM32_DMA_CR_SIZE_MASK) |
 8009b1c:	6ae2      	ldr	r2, [r4, #44]	; 0x2c
                      STM32_DMA_CR_PSIZE_BYTE | STM32_DMA_CR_MSIZE_BYTE;
 8009b1e:	f422 42f0 	bic.w	r2, r2, #30720	; 0x7800
    spip->txdmamode = (spip->txdmamode & ~STM32_DMA_CR_SIZE_MASK) |
 8009b22:	62e2      	str	r2, [r4, #44]	; 0x2c
  if (spip->config->circular) {
 8009b24:	781b      	ldrb	r3, [r3, #0]
 8009b26:	2b00      	cmp	r3, #0
 8009b28:	d06e      	beq.n	8009c08 <spi_lld_start+0x108>
    spip->rxdmamode |= (STM32_DMA_CR_CIRC | STM32_DMA_CR_HTIE);
 8009b2a:	6aa3      	ldr	r3, [r4, #40]	; 0x28
 8009b2c:	f443 7384 	orr.w	r3, r3, #264	; 0x108
 8009b30:	62a3      	str	r3, [r4, #40]	; 0x28
    spip->txdmamode |= (STM32_DMA_CR_CIRC | STM32_DMA_CR_HTIE);
 8009b32:	6ae3      	ldr	r3, [r4, #44]	; 0x2c
 8009b34:	f443 7384 	orr.w	r3, r3, #264	; 0x108
 8009b38:	62e3      	str	r3, [r4, #44]	; 0x2c
  spip->spi->CR1 &= ~SPI_CR1_SPE;
 8009b3a:	69e2      	ldr	r2, [r4, #28]
 8009b3c:	6813      	ldr	r3, [r2, #0]
 8009b3e:	f023 0340 	bic.w	r3, r3, #64	; 0x40
 8009b42:	6013      	str	r3, [r2, #0]
  spip->spi->CR1  = spip->config->cr1 | SPI_CR1_MSTR | SPI_CR1_SSM |
 8009b44:	6863      	ldr	r3, [r4, #4]
 8009b46:	8a1b      	ldrh	r3, [r3, #16]
 8009b48:	69e2      	ldr	r2, [r4, #28]
 8009b4a:	f443 7341 	orr.w	r3, r3, #772	; 0x304
 8009b4e:	6013      	str	r3, [r2, #0]
  spip->spi->CR2  = spip->config->cr2 | SPI_CR2_SSOE | SPI_CR2_RXDMAEN |
 8009b50:	6863      	ldr	r3, [r4, #4]
 8009b52:	8a5b      	ldrh	r3, [r3, #18]
 8009b54:	69e2      	ldr	r2, [r4, #28]
 8009b56:	f043 0307 	orr.w	r3, r3, #7
 8009b5a:	6053      	str	r3, [r2, #4]
  spip->spi->CR1 |= SPI_CR1_SPE;
 8009b5c:	69e2      	ldr	r2, [r4, #28]
 8009b5e:	6813      	ldr	r3, [r2, #0]
 8009b60:	f043 0340 	orr.w	r3, r3, #64	; 0x40
 8009b64:	6013      	str	r3, [r2, #0]
}
 8009b66:	bd10      	pop	{r4, pc}
    if (&SPID1 == spip) {
 8009b68:	4b2c      	ldr	r3, [pc, #176]	; (8009c1c <spi_lld_start+0x11c>)
 8009b6a:	4298      	cmp	r0, r3
 8009b6c:	d00d      	beq.n	8009b8a <spi_lld_start+0x8a>
    if (&SPID2 == spip) {
 8009b6e:	4b2c      	ldr	r3, [pc, #176]	; (8009c20 <spi_lld_start+0x120>)
 8009b70:	429c      	cmp	r4, r3
 8009b72:	d023      	beq.n	8009bbc <spi_lld_start+0xbc>
    dmaStreamSetPeripheral(spip->dmarx, &spip->spi->DR);
 8009b74:	6a23      	ldr	r3, [r4, #32]
 8009b76:	681a      	ldr	r2, [r3, #0]
 8009b78:	69e3      	ldr	r3, [r4, #28]
 8009b7a:	330c      	adds	r3, #12
 8009b7c:	6093      	str	r3, [r2, #8]
    dmaStreamSetPeripheral(spip->dmatx, &spip->spi->DR);
 8009b7e:	6a63      	ldr	r3, [r4, #36]	; 0x24
 8009b80:	681a      	ldr	r2, [r3, #0]
 8009b82:	69e3      	ldr	r3, [r4, #28]
 8009b84:	330c      	adds	r3, #12
 8009b86:	6093      	str	r3, [r2, #8]
 8009b88:	e7bf      	b.n	8009b0a <spi_lld_start+0xa>
      spip->dmarx = dmaStreamAllocI(STM32_SPI_SPI1_RX_DMA_STREAM,
 8009b8a:	4603      	mov	r3, r0
 8009b8c:	4a25      	ldr	r2, [pc, #148]	; (8009c24 <spi_lld_start+0x124>)
 8009b8e:	210a      	movs	r1, #10
 8009b90:	2008      	movs	r0, #8
 8009b92:	f7ff ff4d 	bl	8009a30 <dmaStreamAllocI>
 8009b96:	6220      	str	r0, [r4, #32]
      spip->dmatx = dmaStreamAllocI(STM32_SPI_SPI1_TX_DMA_STREAM,
 8009b98:	4623      	mov	r3, r4
 8009b9a:	4a23      	ldr	r2, [pc, #140]	; (8009c28 <spi_lld_start+0x128>)
 8009b9c:	210a      	movs	r1, #10
 8009b9e:	200b      	movs	r0, #11
 8009ba0:	f7ff ff46 	bl	8009a30 <dmaStreamAllocI>
 8009ba4:	6260      	str	r0, [r4, #36]	; 0x24
      rccEnableSPI1(true);
 8009ba6:	4b21      	ldr	r3, [pc, #132]	; (8009c2c <spi_lld_start+0x12c>)
 8009ba8:	6c5a      	ldr	r2, [r3, #68]	; 0x44
 8009baa:	f442 5280 	orr.w	r2, r2, #4096	; 0x1000
 8009bae:	645a      	str	r2, [r3, #68]	; 0x44
 8009bb0:	6e5a      	ldr	r2, [r3, #100]	; 0x64
 8009bb2:	f442 5280 	orr.w	r2, r2, #4096	; 0x1000
 8009bb6:	665a      	str	r2, [r3, #100]	; 0x64
 8009bb8:	6e5b      	ldr	r3, [r3, #100]	; 0x64
 8009bba:	e7d8      	b.n	8009b6e <spi_lld_start+0x6e>
      spip->dmarx = dmaStreamAllocI(STM32_SPI_SPI2_RX_DMA_STREAM,
 8009bbc:	4623      	mov	r3, r4
 8009bbe:	4a19      	ldr	r2, [pc, #100]	; (8009c24 <spi_lld_start+0x124>)
 8009bc0:	210a      	movs	r1, #10
 8009bc2:	2003      	movs	r0, #3
 8009bc4:	f7ff ff34 	bl	8009a30 <dmaStreamAllocI>
 8009bc8:	6220      	str	r0, [r4, #32]
      spip->dmatx = dmaStreamAllocI(STM32_SPI_SPI2_TX_DMA_STREAM,
 8009bca:	4623      	mov	r3, r4
 8009bcc:	4a16      	ldr	r2, [pc, #88]	; (8009c28 <spi_lld_start+0x128>)
 8009bce:	210a      	movs	r1, #10
 8009bd0:	2004      	movs	r0, #4
 8009bd2:	f7ff ff2d 	bl	8009a30 <dmaStreamAllocI>
 8009bd6:	6260      	str	r0, [r4, #36]	; 0x24
      rccEnableSPI2(true);
 8009bd8:	4b14      	ldr	r3, [pc, #80]	; (8009c2c <spi_lld_start+0x12c>)
 8009bda:	6c1a      	ldr	r2, [r3, #64]	; 0x40
 8009bdc:	f442 4280 	orr.w	r2, r2, #16384	; 0x4000
 8009be0:	641a      	str	r2, [r3, #64]	; 0x40
 8009be2:	6e1a      	ldr	r2, [r3, #96]	; 0x60
 8009be4:	f442 4280 	orr.w	r2, r2, #16384	; 0x4000
 8009be8:	661a      	str	r2, [r3, #96]	; 0x60
 8009bea:	6e1b      	ldr	r3, [r3, #96]	; 0x60
 8009bec:	e7c2      	b.n	8009b74 <spi_lld_start+0x74>
    spip->rxdmamode = (spip->rxdmamode & ~STM32_DMA_CR_SIZE_MASK) |
 8009bee:	6aa2      	ldr	r2, [r4, #40]	; 0x28
 8009bf0:	f422 42f0 	bic.w	r2, r2, #30720	; 0x7800
                      STM32_DMA_CR_PSIZE_HWORD | STM32_DMA_CR_MSIZE_HWORD;
 8009bf4:	f442 5220 	orr.w	r2, r2, #10240	; 0x2800
    spip->rxdmamode = (spip->rxdmamode & ~STM32_DMA_CR_SIZE_MASK) |
 8009bf8:	62a2      	str	r2, [r4, #40]	; 0x28
    spip->txdmamode = (spip->txdmamode & ~STM32_DMA_CR_SIZE_MASK) |
 8009bfa:	6ae2      	ldr	r2, [r4, #44]	; 0x2c
 8009bfc:	f422 42f0 	bic.w	r2, r2, #30720	; 0x7800
                      STM32_DMA_CR_PSIZE_HWORD | STM32_DMA_CR_MSIZE_HWORD;
 8009c00:	f442 5220 	orr.w	r2, r2, #10240	; 0x2800
    spip->txdmamode = (spip->txdmamode & ~STM32_DMA_CR_SIZE_MASK) |
 8009c04:	62e2      	str	r2, [r4, #44]	; 0x2c
 8009c06:	e78d      	b.n	8009b24 <spi_lld_start+0x24>
    spip->rxdmamode &= ~(STM32_DMA_CR_CIRC | STM32_DMA_CR_HTIE);
 8009c08:	6aa3      	ldr	r3, [r4, #40]	; 0x28
 8009c0a:	f423 7384 	bic.w	r3, r3, #264	; 0x108
 8009c0e:	62a3      	str	r3, [r4, #40]	; 0x28
    spip->txdmamode &= ~(STM32_DMA_CR_CIRC | STM32_DMA_CR_HTIE);
 8009c10:	6ae3      	ldr	r3, [r4, #44]	; 0x2c
 8009c12:	f423 7384 	bic.w	r3, r3, #264	; 0x108
 8009c16:	62e3      	str	r3, [r4, #44]	; 0x2c
 8009c18:	e78f      	b.n	8009b3a <spi_lld_start+0x3a>
 8009c1a:	bf00      	nop
 8009c1c:	20000f8c 	.word	0x20000f8c
 8009c20:	20000fbc 	.word	0x20000fbc
 8009c24:	08009e51 	.word	0x08009e51
 8009c28:	080096f1 	.word	0x080096f1
 8009c2c:	40023800 	.word	0x40023800

08009c30 <irqInit>:
/**
 * @brief   Enables IRQ sources.
 *
 * @notapi
 */
void irqInit(void) {
 8009c30:	b508      	push	{r3, lr}

#if HAL_USE_PAL
  nvicEnableVector(EXTI0_IRQn, STM32_IRQ_EXTI0_PRIORITY);
 8009c32:	2106      	movs	r1, #6
 8009c34:	4608      	mov	r0, r1
 8009c36:	f7ff fe8b 	bl	8009950 <nvicEnableVector>
  nvicEnableVector(EXTI1_IRQn, STM32_IRQ_EXTI1_PRIORITY);
 8009c3a:	2106      	movs	r1, #6
 8009c3c:	2007      	movs	r0, #7
 8009c3e:	f7ff fe87 	bl	8009950 <nvicEnableVector>
  nvicEnableVector(EXTI2_IRQn, STM32_IRQ_EXTI2_PRIORITY);
 8009c42:	2106      	movs	r1, #6
 8009c44:	2008      	movs	r0, #8
 8009c46:	f7ff fe83 	bl	8009950 <nvicEnableVector>
  nvicEnableVector(EXTI3_IRQn, STM32_IRQ_EXTI3_PRIORITY);
 8009c4a:	2106      	movs	r1, #6
 8009c4c:	2009      	movs	r0, #9
 8009c4e:	f7ff fe7f 	bl	8009950 <nvicEnableVector>
  nvicEnableVector(EXTI4_IRQn, STM32_IRQ_EXTI4_PRIORITY);
 8009c52:	2106      	movs	r1, #6
 8009c54:	200a      	movs	r0, #10
 8009c56:	f7ff fe7b 	bl	8009950 <nvicEnableVector>
  nvicEnableVector(EXTI9_5_IRQn, STM32_IRQ_EXTI5_9_PRIORITY);
 8009c5a:	2106      	movs	r1, #6
 8009c5c:	2017      	movs	r0, #23
 8009c5e:	f7ff fe77 	bl	8009950 <nvicEnableVector>
  nvicEnableVector(EXTI15_10_IRQn, STM32_IRQ_EXTI10_15_PRIORITY);
 8009c62:	2106      	movs	r1, #6
 8009c64:	2028      	movs	r0, #40	; 0x28
 8009c66:	f7ff fe73 	bl	8009950 <nvicEnableVector>
#endif
}
 8009c6a:	bd08      	pop	{r3, pc}
 8009c6c:	0000      	movs	r0, r0
	...

08009c70 <hal_lld_init>:
void hal_lld_init(void) {
 8009c70:	b508      	push	{r3, lr}
  rccResetAHB1(~STM32_GPIO_EN_MASK);
 8009c72:	4b17      	ldr	r3, [pc, #92]	; (8009cd0 <hal_lld_init+0x60>)
 8009c74:	691a      	ldr	r2, [r3, #16]
 8009c76:	f062 02ff 	orn	r2, r2, #255	; 0xff
 8009c7a:	611a      	str	r2, [r3, #16]
 8009c7c:	691a      	ldr	r2, [r3, #16]
 8009c7e:	b2d2      	uxtb	r2, r2
 8009c80:	611a      	str	r2, [r3, #16]
 8009c82:	691a      	ldr	r2, [r3, #16]
  rccResetAHB2(~0);
 8009c84:	695a      	ldr	r2, [r3, #20]
 8009c86:	f04f 30ff 	mov.w	r0, #4294967295	; 0xffffffff
 8009c8a:	6158      	str	r0, [r3, #20]
 8009c8c:	695a      	ldr	r2, [r3, #20]
 8009c8e:	2100      	movs	r1, #0
 8009c90:	6159      	str	r1, [r3, #20]
 8009c92:	695a      	ldr	r2, [r3, #20]
  rccResetAPB1(~RCC_APB1RSTR_PWRRST);
 8009c94:	6a1a      	ldr	r2, [r3, #32]
 8009c96:	f062 5280 	orn	r2, r2, #268435456	; 0x10000000
 8009c9a:	621a      	str	r2, [r3, #32]
 8009c9c:	6a1a      	ldr	r2, [r3, #32]
 8009c9e:	f002 5280 	and.w	r2, r2, #268435456	; 0x10000000
 8009ca2:	621a      	str	r2, [r3, #32]
 8009ca4:	6a1a      	ldr	r2, [r3, #32]
  rccResetAPB2(~0);
 8009ca6:	6a5a      	ldr	r2, [r3, #36]	; 0x24
 8009ca8:	6258      	str	r0, [r3, #36]	; 0x24
 8009caa:	6a5a      	ldr	r2, [r3, #36]	; 0x24
 8009cac:	6259      	str	r1, [r3, #36]	; 0x24
 8009cae:	6a5a      	ldr	r2, [r3, #36]	; 0x24
  rccEnablePWRInterface(true);
 8009cb0:	6c1a      	ldr	r2, [r3, #64]	; 0x40
 8009cb2:	f042 5280 	orr.w	r2, r2, #268435456	; 0x10000000
 8009cb6:	641a      	str	r2, [r3, #64]	; 0x40
 8009cb8:	6e1a      	ldr	r2, [r3, #96]	; 0x60
 8009cba:	f042 5280 	orr.w	r2, r2, #268435456	; 0x10000000
 8009cbe:	661a      	str	r2, [r3, #96]	; 0x60
 8009cc0:	6e1b      	ldr	r3, [r3, #96]	; 0x60
  hal_lld_backup_domain_init();
 8009cc2:	f7ff fe25 	bl	8009910 <hal_lld_backup_domain_init>
  dmaInit();
 8009cc6:	f7ff fd33 	bl	8009730 <dmaInit>
  irqInit();
 8009cca:	f7ff ffb1 	bl	8009c30 <irqInit>
}
 8009cce:	bd08      	pop	{r3, pc}
 8009cd0:	40023800 	.word	0x40023800
	...

08009ce0 <_ctl>:
#else
    break;
#endif
  }
  return MSG_OK;
}
 8009ce0:	2000      	movs	r0, #0
 8009ce2:	4770      	bx	lr
	...

08009cf0 <oqObjectInit>:
  tqp->next = (thread_t *)tqp;
 8009cf0:	6000      	str	r0, [r0, #0]
  tqp->prev = (thread_t *)tqp;
 8009cf2:	6040      	str	r0, [r0, #4]
 */
void oqObjectInit(output_queue_t *oqp, uint8_t *bp, size_t size,
                  qnotify_t onfy, void *link) {

  osalThreadQueueObjectInit(&oqp->q_waiting);
  oqp->q_counter = size;
 8009cf4:	6082      	str	r2, [r0, #8]
  oqp->q_buffer  = bp;
 8009cf6:	60c1      	str	r1, [r0, #12]
  oqp->q_rdptr   = bp;
 8009cf8:	6181      	str	r1, [r0, #24]
  oqp->q_wrptr   = bp;
 8009cfa:	6141      	str	r1, [r0, #20]
  oqp->q_top     = bp + size;
 8009cfc:	4411      	add	r1, r2
 8009cfe:	6101      	str	r1, [r0, #16]
  oqp->q_notify  = onfy;
 8009d00:	61c3      	str	r3, [r0, #28]
  oqp->q_link    = link;
 8009d02:	9b00      	ldr	r3, [sp, #0]
 8009d04:	6203      	str	r3, [r0, #32]
}
 8009d06:	4770      	bx	lr
	...

08009d10 <iqObjectInit>:
                  qnotify_t infy, void *link) {
 8009d10:	b410      	push	{r4}
  tqp->next = (thread_t *)tqp;
 8009d12:	6000      	str	r0, [r0, #0]
  tqp->prev = (thread_t *)tqp;
 8009d14:	6040      	str	r0, [r0, #4]
  iqp->q_counter = 0;
 8009d16:	2400      	movs	r4, #0
 8009d18:	6084      	str	r4, [r0, #8]
  iqp->q_buffer  = bp;
 8009d1a:	60c1      	str	r1, [r0, #12]
  iqp->q_rdptr   = bp;
 8009d1c:	6181      	str	r1, [r0, #24]
  iqp->q_wrptr   = bp;
 8009d1e:	6141      	str	r1, [r0, #20]
  iqp->q_top     = bp + size;
 8009d20:	4411      	add	r1, r2
 8009d22:	6101      	str	r1, [r0, #16]
  iqp->q_notify  = infy;
 8009d24:	61c3      	str	r3, [r0, #28]
  iqp->q_link    = link;
 8009d26:	9b01      	ldr	r3, [sp, #4]
 8009d28:	6203      	str	r3, [r0, #32]
}
 8009d2a:	bc10      	pop	{r4}
 8009d2c:	4770      	bx	lr
 8009d2e:	bf00      	nop

08009d30 <sdObjectInit>:
 * @init
 */
#if !defined(SERIAL_ADVANCED_BUFFERING_SUPPORT) ||                          \
    (SERIAL_ADVANCED_BUFFERING_SUPPORT == FALSE) ||                         \
    defined(__DOXYGEN__)
void sdObjectInit(SerialDriver *sdp, qnotify_t inotify, qnotify_t onotify) {
 8009d30:	b530      	push	{r4, r5, lr}
 8009d32:	b083      	sub	sp, #12
 8009d34:	4604      	mov	r4, r0
 8009d36:	460b      	mov	r3, r1
 8009d38:	4615      	mov	r5, r2

  sdp->vmt = &vmt;
 8009d3a:	4602      	mov	r2, r0
 8009d3c:	490b      	ldr	r1, [pc, #44]	; (8009d6c <sdObjectInit+0x3c>)
 8009d3e:	f842 1b04 	str.w	r1, [r2], #4
  esp->next = (event_listener_t *)esp;
 8009d42:	6042      	str	r2, [r0, #4]
  osalEventObjectInit(&sdp->event);
  sdp->state = SD_STOP;
 8009d44:	2201      	movs	r2, #1
 8009d46:	7202      	strb	r2, [r0, #8]
  iqObjectInit(&sdp->iqueue, sdp->ib, SERIAL_BUFFERS_SIZE, inotify, sdp);
 8009d48:	9000      	str	r0, [sp, #0]
 8009d4a:	2210      	movs	r2, #16
 8009d4c:	f100 0154 	add.w	r1, r0, #84	; 0x54
 8009d50:	300c      	adds	r0, #12
 8009d52:	f7ff ffdd 	bl	8009d10 <iqObjectInit>
  oqObjectInit(&sdp->oqueue, sdp->ob, SERIAL_BUFFERS_SIZE, onotify, sdp);
 8009d56:	9400      	str	r4, [sp, #0]
 8009d58:	462b      	mov	r3, r5
 8009d5a:	2210      	movs	r2, #16
 8009d5c:	f104 0164 	add.w	r1, r4, #100	; 0x64
 8009d60:	f104 0030 	add.w	r0, r4, #48	; 0x30
 8009d64:	f7ff ffc4 	bl	8009cf0 <oqObjectInit>
}
 8009d68:	b003      	add	sp, #12
 8009d6a:	bd30      	pop	{r4, r5, pc}
 8009d6c:	0800e2b8 	.word	0x0800e2b8

08009d70 <sd_lld_init>:
void sd_lld_init(void) {
 8009d70:	b510      	push	{r4, lr}
  sdObjectInit(&SD2, NULL, notify2);
 8009d72:	4c04      	ldr	r4, [pc, #16]	; (8009d84 <sd_lld_init+0x14>)
 8009d74:	4a04      	ldr	r2, [pc, #16]	; (8009d88 <sd_lld_init+0x18>)
 8009d76:	2100      	movs	r1, #0
 8009d78:	4620      	mov	r0, r4
 8009d7a:	f7ff ffd9 	bl	8009d30 <sdObjectInit>
  SD2.usart = USART2;
 8009d7e:	4b03      	ldr	r3, [pc, #12]	; (8009d8c <sd_lld_init+0x1c>)
 8009d80:	6763      	str	r3, [r4, #116]	; 0x74
}
 8009d82:	bd10      	pop	{r4, pc}
 8009d84:	20000f10 	.word	0x20000f10
 8009d88:	08009601 	.word	0x08009601
 8009d8c:	40004400 	.word	0x40004400

08009d90 <sdInit>:
void sdInit(void) {
 8009d90:	b508      	push	{r3, lr}
  sd_lld_init();
 8009d92:	f7ff ffed 	bl	8009d70 <sd_lld_init>
}
 8009d96:	bd08      	pop	{r3, pc}
	...

08009da0 <stSetAlarm>:
 *
 * @notapi
 */
static inline void st_lld_set_alarm(systime_t abstime) {

  STM32_ST_TIM->CCR[0] = (uint32_t)abstime;
 8009da0:	f04f 4380 	mov.w	r3, #1073741824	; 0x40000000
 8009da4:	6358      	str	r0, [r3, #52]	; 0x34
void stSetAlarm(systime_t abstime) {

  osalDbgAssert(stIsAlarmActive() != false, "not active");

  st_lld_set_alarm(abstime);
}
 8009da6:	4770      	bx	lr
	...

08009db0 <stStopAlarm>:
  STM32_ST_TIM->DIER = 0U;
 8009db0:	f04f 4380 	mov.w	r3, #1073741824	; 0x40000000
 8009db4:	2200      	movs	r2, #0
 8009db6:	60da      	str	r2, [r3, #12]
}
 8009db8:	4770      	bx	lr
 8009dba:	bf00      	nop
 8009dbc:	0000      	movs	r0, r0
	...

08009dc0 <stStartAlarm>:
  STM32_ST_TIM->CCR[0] = (uint32_t)abstime;
 8009dc0:	f04f 4380 	mov.w	r3, #1073741824	; 0x40000000
 8009dc4:	6358      	str	r0, [r3, #52]	; 0x34
  STM32_ST_TIM->SR     = 0;
 8009dc6:	2200      	movs	r2, #0
 8009dc8:	611a      	str	r2, [r3, #16]
  STM32_ST_TIM->DIER   = STM32_TIM_DIER_CC1IE;
 8009dca:	2202      	movs	r2, #2
 8009dcc:	60da      	str	r2, [r3, #12]
}
 8009dce:	4770      	bx	lr

08009dd0 <stInit>:
void stInit(void) {
 8009dd0:	b508      	push	{r3, lr}
  st_lld_init();
 8009dd2:	f7ff fdfd 	bl	80099d0 <st_lld_init>
}
 8009dd6:	bd08      	pop	{r3, pc}
	...

08009de0 <chSchDoRescheduleAhead>:
 * @note    Not a user function, it is meant to be invoked by the scheduler
 *          itself.
 *
 * @special
 */
void chSchDoRescheduleAhead(void) {
 8009de0:	b510      	push	{r4, lr}
  thread_t *otp = currp;
 8009de2:	4c08      	ldr	r4, [pc, #32]	; (8009e04 <chSchDoRescheduleAhead+0x24>)
 8009de4:	69a0      	ldr	r0, [r4, #24]
  thread_t *tp = tqp->next;
 8009de6:	6823      	ldr	r3, [r4, #0]
  tqp->next             = tp->queue.next;
 8009de8:	681a      	ldr	r2, [r3, #0]
 8009dea:	6022      	str	r2, [r4, #0]
  tqp->next->queue.prev = (thread_t *)tqp;
 8009dec:	6054      	str	r4, [r2, #4]

  /* Picks the first thread from the ready queue and makes it current.*/
  currp = queue_fifo_remove(&ch.rlist.queue);
 8009dee:	61a3      	str	r3, [r4, #24]
  currp->state = CH_STATE_CURRENT;
 8009df0:	2201      	movs	r2, #1
 8009df2:	f883 2020 	strb.w	r2, [r3, #32]
  if (otp->prio == IDLEPRIO) {
    CH_CFG_IDLE_LEAVE_HOOK();
  }

  /* Placing in ready list ahead of peers.*/
  otp = chSchReadyAheadI(otp);
 8009df6:	f7ff fb53 	bl	80094a0 <chSchReadyAheadI>
 8009dfa:	4601      	mov	r1, r0

  /* Swap operation as tail call.*/
  chSysSwitch(currp, otp);
 8009dfc:	69a0      	ldr	r0, [r4, #24]
 8009dfe:	f7f6 fa5f 	bl	80002c0 <_port_switch>
}
 8009e02:	bd10      	pop	{r4, pc}
 8009e04:	20001040 	.word	0x20001040
	...

08009e10 <set_error>:
static void set_error(SerialDriver *sdp, uint16_t sr) {
 8009e10:	b508      	push	{r3, lr}
 8009e12:	460b      	mov	r3, r1
  if (sr & USART_SR_ORE)
 8009e14:	f011 0f08 	tst.w	r1, #8
 8009e18:	d113      	bne.n	8009e42 <set_error+0x32>
  eventflags_t sts = 0;
 8009e1a:	2100      	movs	r1, #0
  if (sr & USART_SR_PE)
 8009e1c:	f013 0f01 	tst.w	r3, #1
 8009e20:	d001      	beq.n	8009e26 <set_error+0x16>
    sts |= SD_PARITY_ERROR;
 8009e22:	f041 0120 	orr.w	r1, r1, #32
  if (sr & USART_SR_FE)
 8009e26:	f013 0f02 	tst.w	r3, #2
 8009e2a:	d001      	beq.n	8009e30 <set_error+0x20>
    sts |= SD_FRAMING_ERROR;
 8009e2c:	f041 0140 	orr.w	r1, r1, #64	; 0x40
  if (sr & USART_SR_NE)
 8009e30:	f013 0f04 	tst.w	r3, #4
 8009e34:	d001      	beq.n	8009e3a <set_error+0x2a>
    sts |= SD_NOISE_ERROR;
 8009e36:	f441 7180 	orr.w	r1, r1, #256	; 0x100
 * @iclass
 */
static inline void osalEventBroadcastFlagsI(event_source_t *esp,
                                            eventflags_t flags) {

  chEvtBroadcastFlagsI(esp, flags);
 8009e3a:	3004      	adds	r0, #4
 8009e3c:	f7fb fee8 	bl	8005c10 <chEvtBroadcastFlagsI>
}
 8009e40:	bd08      	pop	{r3, pc}
    sts |= SD_OVERRUN_ERROR;
 8009e42:	2180      	movs	r1, #128	; 0x80
 8009e44:	e7ea      	b.n	8009e1c <set_error+0xc>
 8009e46:	bf00      	nop
	...

08009e50 <spi_lld_serve_rx_interrupt>:
static void spi_lld_serve_rx_interrupt(SPIDriver *spip, uint32_t flags) {
 8009e50:	b538      	push	{r3, r4, r5, lr}
  if ((flags & (STM32_DMA_ISR_TEIF | STM32_DMA_ISR_DMEIF)) != 0) {
 8009e52:	f011 0f0c 	tst.w	r1, #12
 8009e56:	d11c      	bne.n	8009e92 <spi_lld_serve_rx_interrupt+0x42>
 8009e58:	4604      	mov	r4, r0
 8009e5a:	460d      	mov	r5, r1
  if (spip->config->circular) {
 8009e5c:	6843      	ldr	r3, [r0, #4]
 8009e5e:	781a      	ldrb	r2, [r3, #0]
 8009e60:	b1d2      	cbz	r2, 8009e98 <spi_lld_serve_rx_interrupt+0x48>
    if ((flags & STM32_DMA_ISR_HTIF) != 0U) {
 8009e62:	f011 0f10 	tst.w	r1, #16
 8009e66:	d002      	beq.n	8009e6e <spi_lld_serve_rx_interrupt+0x1e>
      _spi_isr_half_code(spip);
 8009e68:	685b      	ldr	r3, [r3, #4]
 8009e6a:	b103      	cbz	r3, 8009e6e <spi_lld_serve_rx_interrupt+0x1e>
 8009e6c:	4798      	blx	r3
    if ((flags & STM32_DMA_ISR_TCIF) != 0U) {
 8009e6e:	f015 0f20 	tst.w	r5, #32
 8009e72:	d049      	beq.n	8009f08 <spi_lld_serve_rx_interrupt+0xb8>
      _spi_isr_full_code(spip);
 8009e74:	6863      	ldr	r3, [r4, #4]
 8009e76:	685a      	ldr	r2, [r3, #4]
 8009e78:	2a00      	cmp	r2, #0
 8009e7a:	d045      	beq.n	8009f08 <spi_lld_serve_rx_interrupt+0xb8>
 8009e7c:	2204      	movs	r2, #4
 8009e7e:	7022      	strb	r2, [r4, #0]
 8009e80:	685b      	ldr	r3, [r3, #4]
 8009e82:	4620      	mov	r0, r4
 8009e84:	4798      	blx	r3
 8009e86:	7823      	ldrb	r3, [r4, #0]
 8009e88:	2b04      	cmp	r3, #4
 8009e8a:	d13d      	bne.n	8009f08 <spi_lld_serve_rx_interrupt+0xb8>
 8009e8c:	2303      	movs	r3, #3
 8009e8e:	7023      	strb	r3, [r4, #0]
 8009e90:	e03a      	b.n	8009f08 <spi_lld_serve_rx_interrupt+0xb8>
  chSysHalt(reason);
 8009e92:	4821      	ldr	r0, [pc, #132]	; (8009f18 <spi_lld_serve_rx_interrupt+0xc8>)
 8009e94:	f7ff fb3c 	bl	8009510 <chSysHalt>
    dmaStreamDisable(spip->dmatx);
 8009e98:	6a43      	ldr	r3, [r0, #36]	; 0x24
 8009e9a:	681a      	ldr	r2, [r3, #0]
 8009e9c:	6813      	ldr	r3, [r2, #0]
 8009e9e:	f023 031f 	bic.w	r3, r3, #31
 8009ea2:	6013      	str	r3, [r2, #0]
 8009ea4:	6a63      	ldr	r3, [r4, #36]	; 0x24
 8009ea6:	681a      	ldr	r2, [r3, #0]
 8009ea8:	6812      	ldr	r2, [r2, #0]
 8009eaa:	f012 0f01 	tst.w	r2, #1
 8009eae:	d1f9      	bne.n	8009ea4 <spi_lld_serve_rx_interrupt+0x54>
 8009eb0:	685a      	ldr	r2, [r3, #4]
 8009eb2:	7a59      	ldrb	r1, [r3, #9]
 8009eb4:	233d      	movs	r3, #61	; 0x3d
 8009eb6:	408b      	lsls	r3, r1
 8009eb8:	6013      	str	r3, [r2, #0]
    dmaStreamDisable(spip->dmarx);
 8009eba:	6a23      	ldr	r3, [r4, #32]
 8009ebc:	681a      	ldr	r2, [r3, #0]
 8009ebe:	6813      	ldr	r3, [r2, #0]
 8009ec0:	f023 031f 	bic.w	r3, r3, #31
 8009ec4:	6013      	str	r3, [r2, #0]
 8009ec6:	6a23      	ldr	r3, [r4, #32]
 8009ec8:	681a      	ldr	r2, [r3, #0]
 8009eca:	6812      	ldr	r2, [r2, #0]
 8009ecc:	f012 0f01 	tst.w	r2, #1
 8009ed0:	d1f9      	bne.n	8009ec6 <spi_lld_serve_rx_interrupt+0x76>
 8009ed2:	685a      	ldr	r2, [r3, #4]
 8009ed4:	7a59      	ldrb	r1, [r3, #9]
 8009ed6:	233d      	movs	r3, #61	; 0x3d
 8009ed8:	408b      	lsls	r3, r1
 8009eda:	6013      	str	r3, [r2, #0]
    _spi_isr_code(spip);
 8009edc:	6863      	ldr	r3, [r4, #4]
 8009ede:	685a      	ldr	r2, [r3, #4]
 8009ee0:	b1b2      	cbz	r2, 8009f10 <spi_lld_serve_rx_interrupt+0xc0>
 8009ee2:	2204      	movs	r2, #4
 8009ee4:	7022      	strb	r2, [r4, #0]
 8009ee6:	685b      	ldr	r3, [r3, #4]
 8009ee8:	4620      	mov	r0, r4
 8009eea:	4798      	blx	r3
 8009eec:	7823      	ldrb	r3, [r4, #0]
 8009eee:	2b04      	cmp	r3, #4
 8009ef0:	d00b      	beq.n	8009f0a <spi_lld_serve_rx_interrupt+0xba>
  __ASM volatile ("MSR basepri, %0" : : "r" (basePri) : "memory");
 8009ef2:	2320      	movs	r3, #32
 8009ef4:	f383 8811 	msr	BASEPRI, r3
  chThdResumeI(trp, msg);
 8009ef8:	2100      	movs	r1, #0
 8009efa:	f104 0008 	add.w	r0, r4, #8
 8009efe:	f7fc ff67 	bl	8006dd0 <chThdResumeI>
 8009f02:	2300      	movs	r3, #0
 8009f04:	f383 8811 	msr	BASEPRI, r3
}
 8009f08:	bd38      	pop	{r3, r4, r5, pc}
    _spi_isr_code(spip);
 8009f0a:	2302      	movs	r3, #2
 8009f0c:	7023      	strb	r3, [r4, #0]
 8009f0e:	e7f0      	b.n	8009ef2 <spi_lld_serve_rx_interrupt+0xa2>
 8009f10:	2302      	movs	r3, #2
 8009f12:	7023      	strb	r3, [r4, #0]
 8009f14:	e7ed      	b.n	8009ef2 <spi_lld_serve_rx_interrupt+0xa2>
 8009f16:	bf00      	nop
 8009f18:	0800e048 	.word	0x0800e048
 8009f1c:	00000000 	.word	0x00000000

08009f20 <spiObjectInit>:
 *
 * @param[out] spip     pointer to the @p SPIDriver object
 *
 * @init
 */
void spiObjectInit(SPIDriver *spip) {
 8009f20:	b508      	push	{r3, lr}

  spip->state = SPI_STOP;
 8009f22:	2301      	movs	r3, #1
 8009f24:	7003      	strb	r3, [r0, #0]
  spip->config = NULL;
 8009f26:	2300      	movs	r3, #0
 8009f28:	6043      	str	r3, [r0, #4]
#if SPI_USE_WAIT == TRUE
  spip->thread = NULL;
 8009f2a:	6083      	str	r3, [r0, #8]
 * @init
 */
static inline void osalMutexObjectInit(mutex_t *mp) {

#if CH_CFG_USE_MUTEXES
  chMtxObjectInit(mp);
 8009f2c:	300c      	adds	r0, #12
 8009f2e:	f7fb ff8f 	bl	8005e50 <chMtxObjectInit>
  osalMutexObjectInit(&spip->mutex);
#endif
#if defined(SPI_DRIVER_EXT_INIT_HOOK)
  SPI_DRIVER_EXT_INIT_HOOK(spip);
#endif
}
 8009f32:	bd08      	pop	{r3, pc}
	...

08009f40 <spi_lld_init>:
void spi_lld_init(void) {
 8009f40:	b538      	push	{r3, r4, r5, lr}
  spiObjectInit(&SPID1);
 8009f42:	4c0d      	ldr	r4, [pc, #52]	; (8009f78 <spi_lld_init+0x38>)
 8009f44:	4620      	mov	r0, r4
 8009f46:	f7ff ffeb 	bl	8009f20 <spiObjectInit>
  SPID1.spi       = SPI1;
 8009f4a:	4b0c      	ldr	r3, [pc, #48]	; (8009f7c <spi_lld_init+0x3c>)
 8009f4c:	61e3      	str	r3, [r4, #28]
  SPID1.dmarx     = NULL;
 8009f4e:	2500      	movs	r5, #0
 8009f50:	6225      	str	r5, [r4, #32]
  SPID1.dmatx     = NULL;
 8009f52:	6265      	str	r5, [r4, #36]	; 0x24
  SPID1.rxdmamode = STM32_DMA_CR_CHSEL(SPI1_RX_DMA_CHANNEL) |
 8009f54:	4b0a      	ldr	r3, [pc, #40]	; (8009f80 <spi_lld_init+0x40>)
 8009f56:	62a3      	str	r3, [r4, #40]	; 0x28
  SPID1.txdmamode = STM32_DMA_CR_CHSEL(SPI1_TX_DMA_CHANNEL) |
 8009f58:	3330      	adds	r3, #48	; 0x30
 8009f5a:	62e3      	str	r3, [r4, #44]	; 0x2c
  spiObjectInit(&SPID2);
 8009f5c:	4c09      	ldr	r4, [pc, #36]	; (8009f84 <spi_lld_init+0x44>)
 8009f5e:	4620      	mov	r0, r4
 8009f60:	f7ff ffde 	bl	8009f20 <spiObjectInit>
  SPID2.spi       = SPI2;
 8009f64:	4b08      	ldr	r3, [pc, #32]	; (8009f88 <spi_lld_init+0x48>)
 8009f66:	61e3      	str	r3, [r4, #28]
  SPID2.dmarx     = NULL;
 8009f68:	6225      	str	r5, [r4, #32]
  SPID2.dmatx     = NULL;
 8009f6a:	6265      	str	r5, [r4, #36]	; 0x24
  SPID2.rxdmamode = STM32_DMA_CR_CHSEL(SPI2_RX_DMA_CHANNEL) |
 8009f6c:	4b07      	ldr	r3, [pc, #28]	; (8009f8c <spi_lld_init+0x4c>)
 8009f6e:	62a3      	str	r3, [r4, #40]	; 0x28
  SPID2.txdmamode = STM32_DMA_CR_CHSEL(SPI2_TX_DMA_CHANNEL) |
 8009f70:	3330      	adds	r3, #48	; 0x30
 8009f72:	62e3      	str	r3, [r4, #44]	; 0x2c
}
 8009f74:	bd38      	pop	{r3, r4, r5, pc}
 8009f76:	bf00      	nop
 8009f78:	20000f8c 	.word	0x20000f8c
 8009f7c:	40013000 	.word	0x40013000
 8009f80:	06010016 	.word	0x06010016
 8009f84:	20000fbc 	.word	0x20000fbc
 8009f88:	40003800 	.word	0x40003800
 8009f8c:	00010016 	.word	0x00010016

08009f90 <spiInit>:
void spiInit(void) {
 8009f90:	b508      	push	{r3, lr}
  spi_lld_init();
 8009f92:	f7ff ffd5 	bl	8009f40 <spi_lld_init>
}
 8009f96:	bd08      	pop	{r3, pc}
	...

08009fa0 <palWaitLineTimeoutS>:
 *                      waiting for an edge.
 *
 * @sclass
 */
msg_t palWaitLineTimeoutS(ioline_t line,
                          sysinterval_t timeout) {
 8009fa0:	b508      	push	{r3, lr}

  palevent_t *pep = pal_lld_get_line_event(line);
 8009fa2:	f000 000f 	and.w	r0, r0, #15
  return chThdEnqueueTimeoutS(tqp, timeout);
 8009fa6:	4b03      	ldr	r3, [pc, #12]	; (8009fb4 <palWaitLineTimeoutS+0x14>)
 8009fa8:	eb03 00c0 	add.w	r0, r3, r0, lsl #3
 8009fac:	f7fc fa10 	bl	80063d0 <chThdEnqueueTimeoutS>
  return osalThreadEnqueueTimeoutS(&pep->threads, timeout);
}
 8009fb0:	bd08      	pop	{r3, pc}
 8009fb2:	bf00      	nop
 8009fb4:	20002030 	.word	0x20002030
	...

08009fc0 <oqPutTimeout>:
 * @retval MSG_TIMEOUT  if the specified time expired.
 * @retval MSG_RESET    if the queue has been reset.
 *
 * @api
 */
msg_t oqPutTimeout(output_queue_t *oqp, uint8_t b, sysinterval_t timeout) {
 8009fc0:	b570      	push	{r4, r5, r6, lr}
 8009fc2:	4604      	mov	r4, r0
 8009fc4:	460e      	mov	r6, r1
 8009fc6:	4615      	mov	r5, r2
 8009fc8:	2320      	movs	r3, #32
 8009fca:	f383 8811 	msr	BASEPRI, r3

  osalSysLock();

  /* Waiting until there is a slot available or a timeout occurs.*/
  while (oqIsFullI(oqp)) {
 8009fce:	68a3      	ldr	r3, [r4, #8]
 8009fd0:	b94b      	cbnz	r3, 8009fe6 <oqPutTimeout+0x26>
 8009fd2:	4629      	mov	r1, r5
 8009fd4:	4620      	mov	r0, r4
 8009fd6:	f7fc f9fb 	bl	80063d0 <chThdEnqueueTimeoutS>
    msg_t msg = osalThreadEnqueueTimeoutS(&oqp->q_waiting, timeout);
    if (msg < MSG_OK) {
 8009fda:	2800      	cmp	r0, #0
 8009fdc:	daf7      	bge.n	8009fce <oqPutTimeout+0xe>
 8009fde:	2300      	movs	r3, #0
 8009fe0:	f383 8811 	msr	BASEPRI, r3
      osalSysUnlock();
      return msg;
 8009fe4:	e013      	b.n	800a00e <oqPutTimeout+0x4e>
    }
  }

  /* Putting the character into the queue.*/
  oqp->q_counter--;
 8009fe6:	68a3      	ldr	r3, [r4, #8]
 8009fe8:	3b01      	subs	r3, #1
 8009fea:	60a3      	str	r3, [r4, #8]
  *oqp->q_wrptr++ = b;
 8009fec:	6963      	ldr	r3, [r4, #20]
 8009fee:	1c5a      	adds	r2, r3, #1
 8009ff0:	6162      	str	r2, [r4, #20]
 8009ff2:	701e      	strb	r6, [r3, #0]
  if (oqp->q_wrptr >= oqp->q_top) {
 8009ff4:	6962      	ldr	r2, [r4, #20]
 8009ff6:	6923      	ldr	r3, [r4, #16]
 8009ff8:	429a      	cmp	r2, r3
 8009ffa:	d301      	bcc.n	800a000 <oqPutTimeout+0x40>
    oqp->q_wrptr = oqp->q_buffer;
 8009ffc:	68e3      	ldr	r3, [r4, #12]
 8009ffe:	6163      	str	r3, [r4, #20]
  }

  /* Inform the low side that the queue has at least one character available.*/
  if (oqp->q_notify != NULL) {
 800a000:	69e3      	ldr	r3, [r4, #28]
 800a002:	b10b      	cbz	r3, 800a008 <oqPutTimeout+0x48>
    oqp->q_notify(oqp);
 800a004:	4620      	mov	r0, r4
 800a006:	4798      	blx	r3
 800a008:	2000      	movs	r0, #0
 800a00a:	f380 8811 	msr	BASEPRI, r0
  }

  osalSysUnlock();

  return MSG_OK;
}
 800a00e:	bd70      	pop	{r4, r5, r6, pc}

0800a010 <_putt>:
static msg_t _putt(void *ip, uint8_t b, sysinterval_t timeout) {
 800a010:	b508      	push	{r3, lr}
  return oqPutTimeout(&((SerialDriver *)ip)->oqueue, b, timeout);
 800a012:	3030      	adds	r0, #48	; 0x30
 800a014:	f7ff ffd4 	bl	8009fc0 <oqPutTimeout>
}
 800a018:	bd08      	pop	{r3, pc}
 800a01a:	bf00      	nop
 800a01c:	0000      	movs	r0, r0
	...

0800a020 <_put>:
static msg_t _put(void *ip, uint8_t b) {
 800a020:	b508      	push	{r3, lr}
  return oqPutTimeout(&((SerialDriver *)ip)->oqueue, b, TIME_INFINITE);
 800a022:	f04f 32ff 	mov.w	r2, #4294967295	; 0xffffffff
 800a026:	3030      	adds	r0, #48	; 0x30
 800a028:	f7ff ffca 	bl	8009fc0 <oqPutTimeout>
}
 800a02c:	bd08      	pop	{r3, pc}
 800a02e:	bf00      	nop

0800a030 <iqGetTimeout>:
msg_t iqGetTimeout(input_queue_t *iqp, sysinterval_t timeout) {
 800a030:	b538      	push	{r3, r4, r5, lr}
 800a032:	4605      	mov	r5, r0
 800a034:	460c      	mov	r4, r1
 800a036:	2320      	movs	r3, #32
 800a038:	f383 8811 	msr	BASEPRI, r3
  while (iqIsEmptyI(iqp)) {
 800a03c:	68ab      	ldr	r3, [r5, #8]
 800a03e:	b94b      	cbnz	r3, 800a054 <iqGetTimeout+0x24>
 800a040:	4621      	mov	r1, r4
 800a042:	4628      	mov	r0, r5
 800a044:	f7fc f9c4 	bl	80063d0 <chThdEnqueueTimeoutS>
    if (msg < MSG_OK) {
 800a048:	2800      	cmp	r0, #0
 800a04a:	daf7      	bge.n	800a03c <iqGetTimeout+0xc>
 800a04c:	2300      	movs	r3, #0
 800a04e:	f383 8811 	msr	BASEPRI, r3
      return msg;
 800a052:	e013      	b.n	800a07c <iqGetTimeout+0x4c>
  iqp->q_counter--;
 800a054:	68ab      	ldr	r3, [r5, #8]
 800a056:	3b01      	subs	r3, #1
 800a058:	60ab      	str	r3, [r5, #8]
  b = *iqp->q_rdptr++;
 800a05a:	69aa      	ldr	r2, [r5, #24]
 800a05c:	1c53      	adds	r3, r2, #1
 800a05e:	61ab      	str	r3, [r5, #24]
 800a060:	7814      	ldrb	r4, [r2, #0]
  if (iqp->q_rdptr >= iqp->q_top) {
 800a062:	692a      	ldr	r2, [r5, #16]
 800a064:	4293      	cmp	r3, r2
 800a066:	d301      	bcc.n	800a06c <iqGetTimeout+0x3c>
    iqp->q_rdptr = iqp->q_buffer;
 800a068:	68eb      	ldr	r3, [r5, #12]
 800a06a:	61ab      	str	r3, [r5, #24]
  if (iqp->q_notify != NULL) {
 800a06c:	69eb      	ldr	r3, [r5, #28]
 800a06e:	b10b      	cbz	r3, 800a074 <iqGetTimeout+0x44>
    iqp->q_notify(iqp);
 800a070:	4628      	mov	r0, r5
 800a072:	4798      	blx	r3
 800a074:	2300      	movs	r3, #0
 800a076:	f383 8811 	msr	BASEPRI, r3
  return (msg_t)b;
 800a07a:	4620      	mov	r0, r4
}
 800a07c:	bd38      	pop	{r3, r4, r5, pc}
 800a07e:	bf00      	nop

0800a080 <_gett>:
static msg_t _gett(void *ip, sysinterval_t timeout) {
 800a080:	b508      	push	{r3, lr}
  return iqGetTimeout(&((SerialDriver *)ip)->iqueue, timeout);
 800a082:	300c      	adds	r0, #12
 800a084:	f7ff ffd4 	bl	800a030 <iqGetTimeout>
}
 800a088:	bd08      	pop	{r3, pc}
 800a08a:	bf00      	nop
 800a08c:	0000      	movs	r0, r0
	...

0800a090 <_get>:
static msg_t _get(void *ip) {
 800a090:	b508      	push	{r3, lr}
  return iqGetTimeout(&((SerialDriver *)ip)->iqueue, TIME_INFINITE);
 800a092:	f04f 31ff 	mov.w	r1, #4294967295	; 0xffffffff
 800a096:	300c      	adds	r0, #12
 800a098:	f7ff ffca 	bl	800a030 <iqGetTimeout>
}
 800a09c:	bd08      	pop	{r3, pc}
 800a09e:	bf00      	nop

0800a0a0 <oqGetI>:
msg_t oqGetI(output_queue_t *oqp) {

  osalDbgCheckClassI();

  /* Queue data check.*/
  if (!oqIsEmptyI(oqp)) {
 800a0a0:	6983      	ldr	r3, [r0, #24]
 800a0a2:	6942      	ldr	r2, [r0, #20]
 800a0a4:	429a      	cmp	r2, r3
 800a0a6:	d012      	beq.n	800a0ce <oqGetI+0x2e>
 800a0a8:	2200      	movs	r2, #0
 800a0aa:	b9aa      	cbnz	r2, 800a0d8 <oqGetI+0x38>
msg_t oqGetI(output_queue_t *oqp) {
 800a0ac:	b510      	push	{r4, lr}
    uint8_t b;

    oqp->q_counter++;
 800a0ae:	6882      	ldr	r2, [r0, #8]
 800a0b0:	3201      	adds	r2, #1
 800a0b2:	6082      	str	r2, [r0, #8]
    b = *oqp->q_rdptr++;
 800a0b4:	1c5a      	adds	r2, r3, #1
 800a0b6:	6182      	str	r2, [r0, #24]
 800a0b8:	781c      	ldrb	r4, [r3, #0]
    if (oqp->q_rdptr >= oqp->q_top) {
 800a0ba:	6903      	ldr	r3, [r0, #16]
 800a0bc:	429a      	cmp	r2, r3
 800a0be:	d301      	bcc.n	800a0c4 <oqGetI+0x24>
      oqp->q_rdptr = oqp->q_buffer;
 800a0c0:	68c3      	ldr	r3, [r0, #12]
 800a0c2:	6183      	str	r3, [r0, #24]
  chThdDequeueNextI(tqp, msg);
 800a0c4:	2100      	movs	r1, #0
 800a0c6:	f7fc f903 	bl	80062d0 <chThdDequeueNextI>
    }

    osalThreadDequeueNextI(&oqp->q_waiting, MSG_OK);

    return (msg_t)b;
 800a0ca:	4620      	mov	r0, r4
  }

  return MSG_TIMEOUT;
}
 800a0cc:	bd10      	pop	{r4, pc}
  if (!oqIsEmptyI(oqp)) {
 800a0ce:	6882      	ldr	r2, [r0, #8]
 800a0d0:	2a00      	cmp	r2, #0
 800a0d2:	d0ea      	beq.n	800a0aa <oqGetI+0xa>
 800a0d4:	2201      	movs	r2, #1
 800a0d6:	e7e8      	b.n	800a0aa <oqGetI+0xa>
  return MSG_TIMEOUT;
 800a0d8:	f04f 30ff 	mov.w	r0, #4294967295	; 0xffffffff
}
 800a0dc:	4770      	bx	lr
 800a0de:	bf00      	nop

0800a0e0 <iqPutI>:
msg_t iqPutI(input_queue_t *iqp, uint8_t b) {
 800a0e0:	b508      	push	{r3, lr}
  if (!iqIsFullI(iqp)) {
 800a0e2:	6943      	ldr	r3, [r0, #20]
 800a0e4:	6982      	ldr	r2, [r0, #24]
 800a0e6:	4293      	cmp	r3, r2
 800a0e8:	d012      	beq.n	800a110 <iqPutI+0x30>
 800a0ea:	2200      	movs	r2, #0
 800a0ec:	b9aa      	cbnz	r2, 800a11a <iqPutI+0x3a>
    iqp->q_counter++;
 800a0ee:	6882      	ldr	r2, [r0, #8]
 800a0f0:	3201      	adds	r2, #1
 800a0f2:	6082      	str	r2, [r0, #8]
    *iqp->q_wrptr++ = b;
 800a0f4:	1c5a      	adds	r2, r3, #1
 800a0f6:	6142      	str	r2, [r0, #20]
 800a0f8:	7019      	strb	r1, [r3, #0]
    if (iqp->q_wrptr >= iqp->q_top) {
 800a0fa:	6942      	ldr	r2, [r0, #20]
 800a0fc:	6903      	ldr	r3, [r0, #16]
 800a0fe:	429a      	cmp	r2, r3
 800a100:	d301      	bcc.n	800a106 <iqPutI+0x26>
      iqp->q_wrptr = iqp->q_buffer;
 800a102:	68c3      	ldr	r3, [r0, #12]
 800a104:	6143      	str	r3, [r0, #20]
 800a106:	2100      	movs	r1, #0
 800a108:	f7fc f8e2 	bl	80062d0 <chThdDequeueNextI>
    return MSG_OK;
 800a10c:	2000      	movs	r0, #0
}
 800a10e:	bd08      	pop	{r3, pc}
  if (!iqIsFullI(iqp)) {
 800a110:	6882      	ldr	r2, [r0, #8]
 800a112:	2a00      	cmp	r2, #0
 800a114:	d0ea      	beq.n	800a0ec <iqPutI+0xc>
 800a116:	2201      	movs	r2, #1
 800a118:	e7e8      	b.n	800a0ec <iqPutI+0xc>
  return MSG_TIMEOUT;
 800a11a:	f04f 30ff 	mov.w	r0, #4294967295	; 0xffffffff
 800a11e:	e7f6      	b.n	800a10e <iqPutI+0x2e>

0800a120 <sdIncomingDataI>:
 * @param[in] sdp       pointer to a @p SerialDriver structure
 * @param[in] b         the byte to be written in the driver's Input Queue
 *
 * @iclass
 */
void sdIncomingDataI(SerialDriver *sdp, uint8_t b) {
 800a120:	b538      	push	{r3, r4, r5, lr}
 800a122:	4604      	mov	r4, r0
 800a124:	460d      	mov	r5, r1

  osalDbgCheckClassI();
  osalDbgCheck(sdp != NULL);

  if (iqIsEmptyI(&sdp->iqueue))
 800a126:	6943      	ldr	r3, [r0, #20]
 800a128:	b13b      	cbz	r3, 800a13a <sdIncomingDataI+0x1a>
    chnAddFlagsI(sdp, CHN_INPUT_AVAILABLE);
  if (iqPutI(&sdp->iqueue, b) < MSG_OK)
 800a12a:	4629      	mov	r1, r5
 800a12c:	f104 000c 	add.w	r0, r4, #12
 800a130:	f7ff ffd6 	bl	800a0e0 <iqPutI>
 800a134:	2800      	cmp	r0, #0
 800a136:	db05      	blt.n	800a144 <sdIncomingDataI+0x24>
    chnAddFlagsI(sdp, SD_QUEUE_FULL_ERROR);
}
 800a138:	bd38      	pop	{r3, r4, r5, pc}
  chEvtBroadcastFlagsI(esp, flags);
 800a13a:	2104      	movs	r1, #4
 800a13c:	4408      	add	r0, r1
 800a13e:	f7fb fd67 	bl	8005c10 <chEvtBroadcastFlagsI>
 800a142:	e7f2      	b.n	800a12a <sdIncomingDataI+0xa>
 800a144:	f44f 6180 	mov.w	r1, #1024	; 0x400
 800a148:	1d20      	adds	r0, r4, #4
 800a14a:	f7fb fd61 	bl	8005c10 <chEvtBroadcastFlagsI>
    chnAddFlagsI(sdp, SD_QUEUE_FULL_ERROR);
 800a14e:	e7f3      	b.n	800a138 <sdIncomingDataI+0x18>

0800a150 <serve_interrupt>:
static void serve_interrupt(SerialDriver *sdp) {
 800a150:	b5f8      	push	{r3, r4, r5, r6, r7, lr}
 800a152:	4606      	mov	r6, r0
  USART_TypeDef *u = sdp->usart;
 800a154:	6f45      	ldr	r5, [r0, #116]	; 0x74
  uint16_t cr1 = u->CR1;
 800a156:	68ef      	ldr	r7, [r5, #12]
  uint16_t sr = u->SR;
 800a158:	682b      	ldr	r3, [r5, #0]
 800a15a:	b29c      	uxth	r4, r3
  if (sr & USART_SR_LBD) {
 800a15c:	f413 7f80 	tst.w	r3, #256	; 0x100
 800a160:	d103      	bne.n	800a16a <serve_interrupt+0x1a>
 800a162:	2320      	movs	r3, #32
 800a164:	f383 8811 	msr	BASEPRI, r3
  _dbg_check_lock_from_isr();
 800a168:	e018      	b.n	800a19c <serve_interrupt+0x4c>
 800a16a:	2320      	movs	r3, #32
 800a16c:	f383 8811 	msr	BASEPRI, r3
 800a170:	f44f 7100 	mov.w	r1, #512	; 0x200
 800a174:	3004      	adds	r0, #4
 800a176:	f7fb fd4b 	bl	8005c10 <chEvtBroadcastFlagsI>
    u->SR = ~USART_SR_LBD;
 800a17a:	f46f 7380 	mvn.w	r3, #256	; 0x100
 800a17e:	602b      	str	r3, [r5, #0]
 800a180:	2300      	movs	r3, #0
 800a182:	f383 8811 	msr	BASEPRI, r3
 800a186:	e7ec      	b.n	800a162 <serve_interrupt+0x12>
      set_error(sdp, sr);
 800a188:	4621      	mov	r1, r4
 800a18a:	4630      	mov	r0, r6
 800a18c:	f7ff fe40 	bl	8009e10 <set_error>
 800a190:	e00a      	b.n	800a1a8 <serve_interrupt+0x58>
      sdIncomingDataI(sdp, b);
 800a192:	4630      	mov	r0, r6
 800a194:	f7ff ffc4 	bl	800a120 <sdIncomingDataI>
    sr = u->SR;
 800a198:	682c      	ldr	r4, [r5, #0]
 800a19a:	b2a4      	uxth	r4, r4
  while (sr & (USART_SR_RXNE | USART_SR_ORE | USART_SR_NE | USART_SR_FE |
 800a19c:	f014 0f2f 	tst.w	r4, #47	; 0x2f
 800a1a0:	d00a      	beq.n	800a1b8 <serve_interrupt+0x68>
    if (sr & (USART_SR_ORE | USART_SR_NE | USART_SR_FE  | USART_SR_PE))
 800a1a2:	f014 0f0f 	tst.w	r4, #15
 800a1a6:	d1ef      	bne.n	800a188 <serve_interrupt+0x38>
    b = (uint8_t)u->DR & sdp->rxmask;
 800a1a8:	6869      	ldr	r1, [r5, #4]
 800a1aa:	f896 3078 	ldrb.w	r3, [r6, #120]	; 0x78
 800a1ae:	4019      	ands	r1, r3
    if (sr & USART_SR_RXNE)
 800a1b0:	f014 0f20 	tst.w	r4, #32
 800a1b4:	d0f0      	beq.n	800a198 <serve_interrupt+0x48>
 800a1b6:	e7ec      	b.n	800a192 <serve_interrupt+0x42>
 800a1b8:	2300      	movs	r3, #0
 800a1ba:	f383 8811 	msr	BASEPRI, r3
  if ((cr1 & USART_CR1_TXEIE) && (sr & USART_SR_TXE)) {
 800a1be:	f017 0f80 	tst.w	r7, #128	; 0x80
 800a1c2:	d002      	beq.n	800a1ca <serve_interrupt+0x7a>
 800a1c4:	f014 0f80 	tst.w	r4, #128	; 0x80
 800a1c8:	d112      	bne.n	800a1f0 <serve_interrupt+0xa0>
  if ((cr1 & USART_CR1_TCIE) && (sr & USART_SR_TC)) {
 800a1ca:	f017 0f40 	tst.w	r7, #64	; 0x40
 800a1ce:	d00e      	beq.n	800a1ee <serve_interrupt+0x9e>
 800a1d0:	f014 0f40 	tst.w	r4, #64	; 0x40
 800a1d4:	d00b      	beq.n	800a1ee <serve_interrupt+0x9e>
 800a1d6:	2320      	movs	r3, #32
 800a1d8:	f383 8811 	msr	BASEPRI, r3
    if (oqIsEmptyI(&sdp->oqueue)) {
 800a1dc:	6c72      	ldr	r2, [r6, #68]	; 0x44
 800a1de:	6cb3      	ldr	r3, [r6, #72]	; 0x48
 800a1e0:	429a      	cmp	r2, r3
 800a1e2:	d01c      	beq.n	800a21e <serve_interrupt+0xce>
 800a1e4:	2300      	movs	r3, #0
 800a1e6:	b9fb      	cbnz	r3, 800a228 <serve_interrupt+0xd8>
 800a1e8:	2300      	movs	r3, #0
 800a1ea:	f383 8811 	msr	BASEPRI, r3
}
 800a1ee:	bdf8      	pop	{r3, r4, r5, r6, r7, pc}
 800a1f0:	2320      	movs	r3, #32
 800a1f2:	f383 8811 	msr	BASEPRI, r3
    b = oqGetI(&sdp->oqueue);
 800a1f6:	f106 0030 	add.w	r0, r6, #48	; 0x30
 800a1fa:	f7ff ff51 	bl	800a0a0 <oqGetI>
    if (b < MSG_OK) {
 800a1fe:	2800      	cmp	r0, #0
 800a200:	db04      	blt.n	800a20c <serve_interrupt+0xbc>
      u->DR = b;
 800a202:	6068      	str	r0, [r5, #4]
 800a204:	2300      	movs	r3, #0
 800a206:	f383 8811 	msr	BASEPRI, r3
 800a20a:	e7de      	b.n	800a1ca <serve_interrupt+0x7a>
 800a20c:	2108      	movs	r1, #8
 800a20e:	1d30      	adds	r0, r6, #4
 800a210:	f7fb fcfe 	bl	8005c10 <chEvtBroadcastFlagsI>
      u->CR1 = cr1 & ~USART_CR1_TXEIE;
 800a214:	f64f 737f 	movw	r3, #65407	; 0xff7f
 800a218:	403b      	ands	r3, r7
 800a21a:	60eb      	str	r3, [r5, #12]
 800a21c:	e7f2      	b.n	800a204 <serve_interrupt+0xb4>
    if (oqIsEmptyI(&sdp->oqueue)) {
 800a21e:	6bb3      	ldr	r3, [r6, #56]	; 0x38
 800a220:	2b00      	cmp	r3, #0
 800a222:	d0e0      	beq.n	800a1e6 <serve_interrupt+0x96>
 800a224:	2301      	movs	r3, #1
 800a226:	e7de      	b.n	800a1e6 <serve_interrupt+0x96>
 800a228:	2110      	movs	r1, #16
 800a22a:	1d30      	adds	r0, r6, #4
 800a22c:	f7fb fcf0 	bl	8005c10 <chEvtBroadcastFlagsI>
      u->CR1 = cr1 & ~USART_CR1_TCIE;
 800a230:	f027 0740 	bic.w	r7, r7, #64	; 0x40
 800a234:	043f      	lsls	r7, r7, #16
 800a236:	0c3f      	lsrs	r7, r7, #16
 800a238:	60ef      	str	r7, [r5, #12]
 800a23a:	e7d5      	b.n	800a1e8 <serve_interrupt+0x98>
 800a23c:	0000      	movs	r0, r0
	...

0800a240 <oq_write>:
static size_t oq_write(output_queue_t *oqp, const uint8_t *bp, size_t n) {
 800a240:	e92d 41f0 	stmdb	sp!, {r4, r5, r6, r7, r8, lr}
 800a244:	4604      	mov	r4, r0
 800a246:	460f      	mov	r7, r1
 800a248:	4615      	mov	r5, r2
  if (n > oqGetEmptyI(oqp)) {
 800a24a:	6883      	ldr	r3, [r0, #8]
 800a24c:	4293      	cmp	r3, r2
 800a24e:	d200      	bcs.n	800a252 <oq_write+0x12>
    n = oqGetEmptyI(oqp);
 800a250:	6885      	ldr	r5, [r0, #8]
  s1 = (size_t)(oqp->q_top - oqp->q_wrptr);
 800a252:	6926      	ldr	r6, [r4, #16]
 800a254:	6960      	ldr	r0, [r4, #20]
 800a256:	1a36      	subs	r6, r6, r0
  if (n < s1) {
 800a258:	42b5      	cmp	r5, r6
 800a25a:	d315      	bcc.n	800a288 <oq_write+0x48>
  else if (n > s1) {
 800a25c:	42b5      	cmp	r5, r6
 800a25e:	d91b      	bls.n	800a298 <oq_write+0x58>
    memcpy((void *)oqp->q_wrptr, (const void *)bp, s1);
 800a260:	4632      	mov	r2, r6
 800a262:	4639      	mov	r1, r7
 800a264:	f7f6 f842 	bl	80002ec <memcpy>
    s2 = n - s1;
 800a268:	eba5 0806 	sub.w	r8, r5, r6
    memcpy((void *)oqp->q_buffer, (const void *)bp, s2);
 800a26c:	4642      	mov	r2, r8
 800a26e:	19b9      	adds	r1, r7, r6
 800a270:	68e0      	ldr	r0, [r4, #12]
 800a272:	f7f6 f83b 	bl	80002ec <memcpy>
    oqp->q_wrptr = oqp->q_buffer + s2;
 800a276:	68e2      	ldr	r2, [r4, #12]
 800a278:	4442      	add	r2, r8
 800a27a:	6162      	str	r2, [r4, #20]
  oqp->q_counter -= n;
 800a27c:	68a3      	ldr	r3, [r4, #8]
 800a27e:	1b5b      	subs	r3, r3, r5
 800a280:	60a3      	str	r3, [r4, #8]
}
 800a282:	4628      	mov	r0, r5
 800a284:	e8bd 81f0 	ldmia.w	sp!, {r4, r5, r6, r7, r8, pc}
    memcpy((void *)oqp->q_wrptr, (const void *)bp, n);
 800a288:	462a      	mov	r2, r5
 800a28a:	4639      	mov	r1, r7
 800a28c:	f7f6 f82e 	bl	80002ec <memcpy>
    oqp->q_wrptr += n;
 800a290:	6963      	ldr	r3, [r4, #20]
 800a292:	442b      	add	r3, r5
 800a294:	6163      	str	r3, [r4, #20]
 800a296:	e7f1      	b.n	800a27c <oq_write+0x3c>
    memcpy((void *)oqp->q_wrptr, (const void *)bp, n);
 800a298:	462a      	mov	r2, r5
 800a29a:	4639      	mov	r1, r7
 800a29c:	f7f6 f826 	bl	80002ec <memcpy>
    oqp->q_wrptr = oqp->q_buffer;
 800a2a0:	68e3      	ldr	r3, [r4, #12]
 800a2a2:	6163      	str	r3, [r4, #20]
 800a2a4:	e7ea      	b.n	800a27c <oq_write+0x3c>
 800a2a6:	bf00      	nop
	...

0800a2b0 <oqWriteTimeout>:
 * @return              The number of bytes effectively transferred.
 *
 * @api
 */
size_t oqWriteTimeout(output_queue_t *oqp, const uint8_t *bp,
                      size_t n, sysinterval_t timeout) {
 800a2b0:	e92d 47f0 	stmdb	sp!, {r4, r5, r6, r7, r8, r9, sl, lr}
 800a2b4:	4607      	mov	r7, r0
 800a2b6:	460d      	mov	r5, r1
 800a2b8:	4692      	mov	sl, r2
 800a2ba:	4699      	mov	r9, r3
  qnotify_t nfy = oqp->q_notify;
 800a2bc:	f8d0 801c 	ldr.w	r8, [r0, #28]
 800a2c0:	2320      	movs	r3, #32
 800a2c2:	f383 8811 	msr	BASEPRI, r3
 800a2c6:	4614      	mov	r4, r2
 800a2c8:	e013      	b.n	800a2f2 <oqWriteTimeout+0x42>
  return chThdEnqueueTimeoutS(tqp, timeout);
 800a2ca:	4649      	mov	r1, r9
 800a2cc:	4638      	mov	r0, r7
 800a2ce:	f7fc f87f 	bl	80063d0 <chThdEnqueueTimeoutS>
    done = oq_write(oqp, bp, n);
    if (done == (size_t)0) {
      msg_t msg = osalThreadEnqueueTimeoutS(&oqp->q_waiting, timeout);

      /* Anything except MSG_OK causes the operation to stop.*/
      if (msg != MSG_OK) {
 800a2d2:	b170      	cbz	r0, 800a2f2 <oqWriteTimeout+0x42>
 800a2d4:	2300      	movs	r3, #0
 800a2d6:	f383 8811 	msr	BASEPRI, r3
    }
  }

  osalSysUnlock();
  return max - n;
}
 800a2da:	ebaa 0004 	sub.w	r0, sl, r4
 800a2de:	e8bd 87f0 	ldmia.w	sp!, {r4, r5, r6, r7, r8, r9, sl, pc}
 800a2e2:	2300      	movs	r3, #0
 800a2e4:	f383 8811 	msr	BASEPRI, r3
      n  -= done;
 800a2e8:	1ba4      	subs	r4, r4, r6
      bp += done;
 800a2ea:	4435      	add	r5, r6
 800a2ec:	2320      	movs	r3, #32
 800a2ee:	f383 8811 	msr	BASEPRI, r3
  while (n > 0U) {
 800a2f2:	2c00      	cmp	r4, #0
 800a2f4:	d0ee      	beq.n	800a2d4 <oqWriteTimeout+0x24>
    done = oq_write(oqp, bp, n);
 800a2f6:	4622      	mov	r2, r4
 800a2f8:	4629      	mov	r1, r5
 800a2fa:	4638      	mov	r0, r7
 800a2fc:	f7ff ffa0 	bl	800a240 <oq_write>
    if (done == (size_t)0) {
 800a300:	4606      	mov	r6, r0
 800a302:	2800      	cmp	r0, #0
 800a304:	d0e1      	beq.n	800a2ca <oqWriteTimeout+0x1a>
      if (nfy != NULL) {
 800a306:	f1b8 0f00 	cmp.w	r8, #0
 800a30a:	d0ea      	beq.n	800a2e2 <oqWriteTimeout+0x32>
        nfy(oqp);
 800a30c:	4638      	mov	r0, r7
 800a30e:	47c0      	blx	r8
 800a310:	e7e7      	b.n	800a2e2 <oqWriteTimeout+0x32>
 800a312:	bf00      	nop
	...

0800a320 <_writet>:
                      sysinterval_t timeout) {
 800a320:	b508      	push	{r3, lr}
  return oqWriteTimeout(&((SerialDriver *)ip)->oqueue, bp, n, timeout);
 800a322:	3030      	adds	r0, #48	; 0x30
 800a324:	f7ff ffc4 	bl	800a2b0 <oqWriteTimeout>
}
 800a328:	bd08      	pop	{r3, pc}
 800a32a:	bf00      	nop
 800a32c:	0000      	movs	r0, r0
	...

0800a330 <_write>:
static size_t _write(void *ip, const uint8_t *bp, size_t n) {
 800a330:	b508      	push	{r3, lr}
  return oqWriteTimeout(&((SerialDriver *)ip)->oqueue, bp,
 800a332:	f04f 33ff 	mov.w	r3, #4294967295	; 0xffffffff
 800a336:	3030      	adds	r0, #48	; 0x30
 800a338:	f7ff ffba 	bl	800a2b0 <oqWriteTimeout>
}
 800a33c:	bd08      	pop	{r3, pc}
 800a33e:	bf00      	nop

0800a340 <iq_read>:
static size_t iq_read(input_queue_t *iqp, uint8_t *bp, size_t n) {
 800a340:	e92d 41f0 	stmdb	sp!, {r4, r5, r6, r7, r8, lr}
 800a344:	4604      	mov	r4, r0
 800a346:	460f      	mov	r7, r1
 800a348:	4615      	mov	r5, r2
  if (n > iqGetFullI(iqp)) {
 800a34a:	6883      	ldr	r3, [r0, #8]
 800a34c:	4293      	cmp	r3, r2
 800a34e:	d200      	bcs.n	800a352 <iq_read+0x12>
    n = iqGetFullI(iqp);
 800a350:	6885      	ldr	r5, [r0, #8]
  s1 = (size_t)(iqp->q_top - iqp->q_rdptr);
 800a352:	6926      	ldr	r6, [r4, #16]
 800a354:	69a1      	ldr	r1, [r4, #24]
 800a356:	1a76      	subs	r6, r6, r1
  if (n < s1) {
 800a358:	42b5      	cmp	r5, r6
 800a35a:	d315      	bcc.n	800a388 <iq_read+0x48>
  else if (n > s1) {
 800a35c:	42b5      	cmp	r5, r6
 800a35e:	d91b      	bls.n	800a398 <iq_read+0x58>
    memcpy((void *)bp, (void *)iqp->q_rdptr, s1);
 800a360:	4632      	mov	r2, r6
 800a362:	4638      	mov	r0, r7
 800a364:	f7f5 ffc2 	bl	80002ec <memcpy>
    s2 = n - s1;
 800a368:	eba5 0806 	sub.w	r8, r5, r6
    memcpy((void *)bp, (void *)iqp->q_buffer, s2);
 800a36c:	4642      	mov	r2, r8
 800a36e:	68e1      	ldr	r1, [r4, #12]
 800a370:	19b8      	adds	r0, r7, r6
 800a372:	f7f5 ffbb 	bl	80002ec <memcpy>
    iqp->q_rdptr = iqp->q_buffer + s2;
 800a376:	68e2      	ldr	r2, [r4, #12]
 800a378:	4442      	add	r2, r8
 800a37a:	61a2      	str	r2, [r4, #24]
  iqp->q_counter -= n;
 800a37c:	68a3      	ldr	r3, [r4, #8]
 800a37e:	1b5b      	subs	r3, r3, r5
 800a380:	60a3      	str	r3, [r4, #8]
}
 800a382:	4628      	mov	r0, r5
 800a384:	e8bd 81f0 	ldmia.w	sp!, {r4, r5, r6, r7, r8, pc}
    memcpy((void *)bp, (void *)iqp->q_rdptr, n);
 800a388:	462a      	mov	r2, r5
 800a38a:	4638      	mov	r0, r7
 800a38c:	f7f5 ffae 	bl	80002ec <memcpy>
    iqp->q_rdptr += n;
 800a390:	69a3      	ldr	r3, [r4, #24]
 800a392:	442b      	add	r3, r5
 800a394:	61a3      	str	r3, [r4, #24]
 800a396:	e7f1      	b.n	800a37c <iq_read+0x3c>
    memcpy((void *)bp, (void *)iqp->q_rdptr, n);
 800a398:	462a      	mov	r2, r5
 800a39a:	4638      	mov	r0, r7
 800a39c:	f7f5 ffa6 	bl	80002ec <memcpy>
    iqp->q_rdptr = iqp->q_buffer;
 800a3a0:	68e3      	ldr	r3, [r4, #12]
 800a3a2:	61a3      	str	r3, [r4, #24]
 800a3a4:	e7ea      	b.n	800a37c <iq_read+0x3c>
 800a3a6:	bf00      	nop
	...

0800a3b0 <iqReadTimeout>:
                     size_t n, sysinterval_t timeout) {
 800a3b0:	e92d 47f0 	stmdb	sp!, {r4, r5, r6, r7, r8, r9, sl, lr}
 800a3b4:	4607      	mov	r7, r0
 800a3b6:	460d      	mov	r5, r1
 800a3b8:	4692      	mov	sl, r2
 800a3ba:	4699      	mov	r9, r3
  qnotify_t nfy = iqp->q_notify;
 800a3bc:	f8d0 801c 	ldr.w	r8, [r0, #28]
 800a3c0:	2320      	movs	r3, #32
 800a3c2:	f383 8811 	msr	BASEPRI, r3
 800a3c6:	4614      	mov	r4, r2
 800a3c8:	e013      	b.n	800a3f2 <iqReadTimeout+0x42>
 800a3ca:	4649      	mov	r1, r9
 800a3cc:	4638      	mov	r0, r7
 800a3ce:	f7fb ffff 	bl	80063d0 <chThdEnqueueTimeoutS>
      if (msg != MSG_OK) {
 800a3d2:	b170      	cbz	r0, 800a3f2 <iqReadTimeout+0x42>
 800a3d4:	2300      	movs	r3, #0
 800a3d6:	f383 8811 	msr	BASEPRI, r3
}
 800a3da:	ebaa 0004 	sub.w	r0, sl, r4
 800a3de:	e8bd 87f0 	ldmia.w	sp!, {r4, r5, r6, r7, r8, r9, sl, pc}
 800a3e2:	2300      	movs	r3, #0
 800a3e4:	f383 8811 	msr	BASEPRI, r3
      n  -= done;
 800a3e8:	1ba4      	subs	r4, r4, r6
      bp += done;
 800a3ea:	4435      	add	r5, r6
 800a3ec:	2320      	movs	r3, #32
 800a3ee:	f383 8811 	msr	BASEPRI, r3
  while (n > 0U) {
 800a3f2:	2c00      	cmp	r4, #0
 800a3f4:	d0ee      	beq.n	800a3d4 <iqReadTimeout+0x24>
    done = iq_read(iqp, bp, n);
 800a3f6:	4622      	mov	r2, r4
 800a3f8:	4629      	mov	r1, r5
 800a3fa:	4638      	mov	r0, r7
 800a3fc:	f7ff ffa0 	bl	800a340 <iq_read>
    if (done == (size_t)0) {
 800a400:	4606      	mov	r6, r0
 800a402:	2800      	cmp	r0, #0
 800a404:	d0e1      	beq.n	800a3ca <iqReadTimeout+0x1a>
      if (nfy != NULL) {
 800a406:	f1b8 0f00 	cmp.w	r8, #0
 800a40a:	d0ea      	beq.n	800a3e2 <iqReadTimeout+0x32>
        nfy(iqp);
 800a40c:	4638      	mov	r0, r7
 800a40e:	47c0      	blx	r8
 800a410:	e7e7      	b.n	800a3e2 <iqReadTimeout+0x32>
 800a412:	bf00      	nop
	...

0800a420 <_readt>:
                     sysinterval_t timeout) {
 800a420:	b508      	push	{r3, lr}
  return iqReadTimeout(&((SerialDriver *)ip)->iqueue, bp, n, timeout);
 800a422:	300c      	adds	r0, #12
 800a424:	f7ff ffc4 	bl	800a3b0 <iqReadTimeout>
}
 800a428:	bd08      	pop	{r3, pc}
 800a42a:	bf00      	nop
 800a42c:	0000      	movs	r0, r0
	...

0800a430 <_read>:
static size_t _read(void *ip, uint8_t *bp, size_t n) {
 800a430:	b508      	push	{r3, lr}
  return iqReadTimeout(&((SerialDriver *)ip)->iqueue, bp,
 800a432:	f04f 33ff 	mov.w	r3, #4294967295	; 0xffffffff
 800a436:	300c      	adds	r0, #12
 800a438:	f7ff ffba 	bl	800a3b0 <iqReadTimeout>
}
 800a43c:	bd08      	pop	{r3, pc}
 800a43e:	bf00      	nop

0800a440 <chSchDoReschedule>:
 * @note    Not a user function, it is meant to be invoked by the scheduler
 *          itself or from within the port layer.
 *
 * @special
 */
void chSchDoReschedule(void) {
 800a440:	b510      	push	{r4, lr}
  thread_t *otp = currp;
 800a442:	4c08      	ldr	r4, [pc, #32]	; (800a464 <chSchDoReschedule+0x24>)
 800a444:	69a0      	ldr	r0, [r4, #24]
  thread_t *tp = tqp->next;
 800a446:	6823      	ldr	r3, [r4, #0]
  tqp->next             = tp->queue.next;
 800a448:	681a      	ldr	r2, [r3, #0]
 800a44a:	6022      	str	r2, [r4, #0]
  tqp->next->queue.prev = (thread_t *)tqp;
 800a44c:	6054      	str	r4, [r2, #4]

  /* Picks the first thread from the ready queue and makes it current.*/
  currp = queue_fifo_remove(&ch.rlist.queue);
 800a44e:	61a3      	str	r3, [r4, #24]
  currp->state = CH_STATE_CURRENT;
 800a450:	2201      	movs	r2, #1
 800a452:	f883 2020 	strb.w	r2, [r3, #32]
    otp = chSchReadyAheadI(otp);
  }
#else /* !(CH_CFG_TIME_QUANTUM > 0) */
  /* If the round-robin mechanism is disabled then the thread goes always
     ahead of its peers.*/
  otp = chSchReadyAheadI(otp);
 800a456:	f7ff f823 	bl	80094a0 <chSchReadyAheadI>
 800a45a:	4601      	mov	r1, r0
#endif /* !(CH_CFG_TIME_QUANTUM > 0) */

  /* Swap operation as tail call.*/
  chSysSwitch(currp, otp);
 800a45c:	69a0      	ldr	r0, [r4, #24]
 800a45e:	f7f5 ff2f 	bl	80002c0 <_port_switch>
}
 800a462:	bd10      	pop	{r4, pc}
 800a464:	20001040 	.word	0x20001040
	...

0800a470 <chSchIsPreemptionRequired>:
  tprio_t p1 = firstprio(&ch.rlist.queue);
 800a470:	4b04      	ldr	r3, [pc, #16]	; (800a484 <chSchIsPreemptionRequired+0x14>)
 800a472:	681a      	ldr	r2, [r3, #0]
 800a474:	6890      	ldr	r0, [r2, #8]
  tprio_t p2 = currp->prio;
 800a476:	699b      	ldr	r3, [r3, #24]
 800a478:	689b      	ldr	r3, [r3, #8]
}
 800a47a:	4298      	cmp	r0, r3
 800a47c:	bf94      	ite	ls
 800a47e:	2000      	movls	r0, #0
 800a480:	2001      	movhi	r0, #1
 800a482:	4770      	bx	lr
 800a484:	20001040 	.word	0x20001040
	...

0800a490 <chSchRescheduleS>:
void chSchRescheduleS(void) {
 800a490:	b508      	push	{r3, lr}
  return firstprio(&ch.rlist.queue) > currp->prio;
 800a492:	4b05      	ldr	r3, [pc, #20]	; (800a4a8 <chSchRescheduleS+0x18>)
 800a494:	681a      	ldr	r2, [r3, #0]
 800a496:	6892      	ldr	r2, [r2, #8]
 800a498:	699b      	ldr	r3, [r3, #24]
 800a49a:	689b      	ldr	r3, [r3, #8]
  if (chSchIsRescRequiredI()) {
 800a49c:	429a      	cmp	r2, r3
 800a49e:	d800      	bhi.n	800a4a2 <chSchRescheduleS+0x12>
}
 800a4a0:	bd08      	pop	{r3, pc}
    chSchDoRescheduleAhead();
 800a4a2:	f7ff fc9d 	bl	8009de0 <chSchDoRescheduleAhead>
 800a4a6:	e7fb      	b.n	800a4a0 <chSchRescheduleS+0x10>
 800a4a8:	20001040 	.word	0x20001040
 800a4ac:	00000000 	.word	0x00000000

0800a4b0 <chSchGoSleepS>:
void chSchGoSleepS(tstate_t newstate) {
 800a4b0:	b508      	push	{r3, lr}
  thread_t *otp = currp;
 800a4b2:	4b07      	ldr	r3, [pc, #28]	; (800a4d0 <chSchGoSleepS+0x20>)
 800a4b4:	6999      	ldr	r1, [r3, #24]
  otp->state = newstate;
 800a4b6:	f881 0020 	strb.w	r0, [r1, #32]
  thread_t *tp = tqp->next;
 800a4ba:	6818      	ldr	r0, [r3, #0]
  tqp->next             = tp->queue.next;
 800a4bc:	6802      	ldr	r2, [r0, #0]
 800a4be:	601a      	str	r2, [r3, #0]
  tqp->next->queue.prev = (thread_t *)tqp;
 800a4c0:	6053      	str	r3, [r2, #4]
  currp = queue_fifo_remove(&ch.rlist.queue);
 800a4c2:	6198      	str	r0, [r3, #24]
  currp->state = CH_STATE_CURRENT;
 800a4c4:	2301      	movs	r3, #1
 800a4c6:	f880 3020 	strb.w	r3, [r0, #32]
  chSysSwitch(currp, otp);
 800a4ca:	f7f5 fef9 	bl	80002c0 <_port_switch>
}
 800a4ce:	bd08      	pop	{r3, pc}
 800a4d0:	20001040 	.word	0x20001040
	...

0800a4e0 <chSchReadyI>:
  tp->state = CH_STATE_READY;
 800a4e0:	2300      	movs	r3, #0
 800a4e2:	f880 3020 	strb.w	r3, [r0, #32]
  cp = (thread_t *)&ch.rlist.queue;
 800a4e6:	4b06      	ldr	r3, [pc, #24]	; (800a500 <chSchReadyI+0x20>)
    cp = cp->queue.next;
 800a4e8:	681b      	ldr	r3, [r3, #0]
  } while (cp->prio >= tp->prio);
 800a4ea:	6899      	ldr	r1, [r3, #8]
 800a4ec:	6882      	ldr	r2, [r0, #8]
 800a4ee:	4291      	cmp	r1, r2
 800a4f0:	d2fa      	bcs.n	800a4e8 <chSchReadyI+0x8>
  tp->queue.next             = cp;
 800a4f2:	6003      	str	r3, [r0, #0]
  tp->queue.prev             = cp->queue.prev;
 800a4f4:	685a      	ldr	r2, [r3, #4]
 800a4f6:	6042      	str	r2, [r0, #4]
  tp->queue.prev->queue.next = tp;
 800a4f8:	6010      	str	r0, [r2, #0]
  cp->queue.prev             = tp;
 800a4fa:	6058      	str	r0, [r3, #4]
}
 800a4fc:	4770      	bx	lr
 800a4fe:	bf00      	nop
 800a500:	20001040 	.word	0x20001040
	...

0800a510 <chSchDoRescheduleBehind>:
void chSchDoRescheduleBehind(void) {
 800a510:	b510      	push	{r4, lr}
  thread_t *otp = currp;
 800a512:	4c08      	ldr	r4, [pc, #32]	; (800a534 <chSchDoRescheduleBehind+0x24>)
 800a514:	69a0      	ldr	r0, [r4, #24]
  thread_t *tp = tqp->next;
 800a516:	6823      	ldr	r3, [r4, #0]
  tqp->next             = tp->queue.next;
 800a518:	681a      	ldr	r2, [r3, #0]
 800a51a:	6022      	str	r2, [r4, #0]
  tqp->next->queue.prev = (thread_t *)tqp;
 800a51c:	6054      	str	r4, [r2, #4]
  currp = queue_fifo_remove(&ch.rlist.queue);
 800a51e:	61a3      	str	r3, [r4, #24]
  currp->state = CH_STATE_CURRENT;
 800a520:	2201      	movs	r2, #1
 800a522:	f883 2020 	strb.w	r2, [r3, #32]
  otp = chSchReadyI(otp);
 800a526:	f7ff ffdb 	bl	800a4e0 <chSchReadyI>
 800a52a:	4601      	mov	r1, r0
  chSysSwitch(currp, otp);
 800a52c:	69a0      	ldr	r0, [r4, #24]
 800a52e:	f7f5 fec7 	bl	80002c0 <_port_switch>
}
 800a532:	bd10      	pop	{r4, pc}
 800a534:	20001040 	.word	0x20001040
	...

0800a540 <chSchWakeupS>:
void chSchWakeupS(thread_t *ntp, msg_t msg) {
 800a540:	b510      	push	{r4, lr}
 800a542:	4604      	mov	r4, r0
  thread_t *otp = currp;
 800a544:	4b0b      	ldr	r3, [pc, #44]	; (800a574 <chSchWakeupS+0x34>)
 800a546:	6998      	ldr	r0, [r3, #24]
  ntp->u.rdymsg = msg;
 800a548:	6261      	str	r1, [r4, #36]	; 0x24
  if (ntp->prio <= otp->prio) {
 800a54a:	68a2      	ldr	r2, [r4, #8]
 800a54c:	6883      	ldr	r3, [r0, #8]
 800a54e:	429a      	cmp	r2, r3
 800a550:	d803      	bhi.n	800a55a <chSchWakeupS+0x1a>
    (void) chSchReadyI(ntp);
 800a552:	4620      	mov	r0, r4
 800a554:	f7ff ffc4 	bl	800a4e0 <chSchReadyI>
}
 800a558:	bd10      	pop	{r4, pc}
    otp = chSchReadyAheadI(otp);
 800a55a:	f7fe ffa1 	bl	80094a0 <chSchReadyAheadI>
 800a55e:	4601      	mov	r1, r0
    currp = ntp;
 800a560:	4b04      	ldr	r3, [pc, #16]	; (800a574 <chSchWakeupS+0x34>)
 800a562:	619c      	str	r4, [r3, #24]
    ntp->state = CH_STATE_CURRENT;
 800a564:	2301      	movs	r3, #1
 800a566:	f884 3020 	strb.w	r3, [r4, #32]
    chSysSwitch(ntp, otp);
 800a56a:	4620      	mov	r0, r4
 800a56c:	f7f5 fea8 	bl	80002c0 <_port_switch>
 800a570:	e7f2      	b.n	800a558 <chSchWakeupS+0x18>
 800a572:	bf00      	nop
 800a574:	20001040 	.word	0x20001040
	...

0800a580 <wakeup>:
static void wakeup(void *p) {
 800a580:	b508      	push	{r3, lr}
 800a582:	2320      	movs	r3, #32
 800a584:	f383 8811 	msr	BASEPRI, r3
  switch (tp->state) {
 800a588:	f890 3020 	ldrb.w	r3, [r0, #32]
 800a58c:	2b07      	cmp	r3, #7
 800a58e:	d816      	bhi.n	800a5be <wakeup+0x3e>
 800a590:	e8df f003 	tbb	[pc, r3]
 800a594:	08151504 	.word	0x08151504
 800a598:	10150c10 	.word	0x10150c10
 800a59c:	2300      	movs	r3, #0
 800a59e:	f383 8811 	msr	BASEPRI, r3
 800a5a2:	e014      	b.n	800a5ce <wakeup+0x4e>
    *tp->u.wttrp = NULL;
 800a5a4:	6a43      	ldr	r3, [r0, #36]	; 0x24
 800a5a6:	2200      	movs	r2, #0
 800a5a8:	601a      	str	r2, [r3, #0]
    break;
 800a5aa:	e008      	b.n	800a5be <wakeup+0x3e>
    chSemFastSignalI(tp->u.wtsemp);
 800a5ac:	6a42      	ldr	r2, [r0, #36]	; 0x24
  sp->cnt++;
 800a5ae:	6893      	ldr	r3, [r2, #8]
 800a5b0:	3301      	adds	r3, #1
 800a5b2:	6093      	str	r3, [r2, #8]
  tp->queue.prev->queue.next = tp->queue.next;
 800a5b4:	6842      	ldr	r2, [r0, #4]
 800a5b6:	6803      	ldr	r3, [r0, #0]
 800a5b8:	6013      	str	r3, [r2, #0]
  tp->queue.next->queue.prev = tp->queue.prev;
 800a5ba:	6842      	ldr	r2, [r0, #4]
 800a5bc:	605a      	str	r2, [r3, #4]
  tp->u.rdymsg = MSG_TIMEOUT;
 800a5be:	f04f 33ff 	mov.w	r3, #4294967295	; 0xffffffff
 800a5c2:	6243      	str	r3, [r0, #36]	; 0x24
  (void) chSchReadyI(tp);
 800a5c4:	f7ff ff8c 	bl	800a4e0 <chSchReadyI>
 800a5c8:	2300      	movs	r3, #0
 800a5ca:	f383 8811 	msr	BASEPRI, r3
}
 800a5ce:	bd08      	pop	{r3, pc}

0800a5d0 <chSysRestoreStatusX>:
 *
 * @xclass
 */
void chSysRestoreStatusX(syssts_t sts) {

  if (port_irq_enabled(sts)) {
 800a5d0:	b978      	cbnz	r0, 800a5f2 <chSysRestoreStatusX+0x22>
void chSysRestoreStatusX(syssts_t sts) {
 800a5d2:	b508      	push	{r3, lr}
  __ASM volatile ("MRS %0, ipsr" : "=r" (result) );
 800a5d4:	f3ef 8305 	mrs	r3, IPSR
  return (bool)((__get_IPSR() & 0x1FFU) != 0U);
 800a5d8:	f3c3 0308 	ubfx	r3, r3, #0, #9
    if (port_is_isr_context()) {
 800a5dc:	b11b      	cbz	r3, 800a5e6 <chSysRestoreStatusX+0x16>
  __ASM volatile ("MSR basepri, %0" : : "r" (basePri) : "memory");
 800a5de:	2300      	movs	r3, #0
 800a5e0:	f383 8811 	msr	BASEPRI, r3
    else {
      chSchRescheduleS();
      chSysUnlock();
    }
  }
}
 800a5e4:	bd08      	pop	{r3, pc}
      chSchRescheduleS();
 800a5e6:	f7ff ff53 	bl	800a490 <chSchRescheduleS>
 800a5ea:	2300      	movs	r3, #0
 800a5ec:	f383 8811 	msr	BASEPRI, r3
 800a5f0:	e7f8      	b.n	800a5e4 <chSysRestoreStatusX+0x14>
 800a5f2:	4770      	bx	lr
	...

0800a600 <chSysGetStatusAndLockX>:
  __ASM volatile ("MRS %0, basepri" : "=r" (result) );
 800a600:	f3ef 8011 	mrs	r0, BASEPRI
  if (port_irq_enabled(sts)) {
 800a604:	b958      	cbnz	r0, 800a61e <chSysGetStatusAndLockX+0x1e>
  __ASM volatile ("MRS %0, ipsr" : "=r" (result) );
 800a606:	f3ef 8305 	mrs	r3, IPSR
 800a60a:	f3c3 0308 	ubfx	r3, r3, #0, #9
    if (port_is_isr_context()) {
 800a60e:	b11b      	cbz	r3, 800a618 <chSysGetStatusAndLockX+0x18>
  __ASM volatile ("MSR basepri, %0" : : "r" (basePri) : "memory");
 800a610:	2320      	movs	r3, #32
 800a612:	f383 8811 	msr	BASEPRI, r3
 800a616:	4770      	bx	lr
 800a618:	2320      	movs	r3, #32
 800a61a:	f383 8811 	msr	BASEPRI, r3
}
 800a61e:	4770      	bx	lr

0800a620 <chSysIntegrityCheckI>:
  if ((testmask & CH_INTEGRITY_RLIST) != 0U) {
 800a620:	f010 0f01 	tst.w	r0, #1
 800a624:	d010      	beq.n	800a648 <chSysIntegrityCheckI+0x28>
    tp = ch.rlist.queue.next;
 800a626:	4b22      	ldr	r3, [pc, #136]	; (800a6b0 <chSysIntegrityCheckI+0x90>)
 800a628:	681a      	ldr	r2, [r3, #0]
    n = (cnt_t)0;
 800a62a:	2300      	movs	r3, #0
    while (tp != (thread_t *)&ch.rlist.queue) {
 800a62c:	4920      	ldr	r1, [pc, #128]	; (800a6b0 <chSysIntegrityCheckI+0x90>)
 800a62e:	428a      	cmp	r2, r1
 800a630:	d002      	beq.n	800a638 <chSysIntegrityCheckI+0x18>
      n++;
 800a632:	3301      	adds	r3, #1
      tp = tp->queue.next;
 800a634:	6812      	ldr	r2, [r2, #0]
 800a636:	e7f9      	b.n	800a62c <chSysIntegrityCheckI+0xc>
    tp = ch.rlist.queue.prev;
 800a638:	684a      	ldr	r2, [r1, #4]
    while (tp != (thread_t *)&ch.rlist.queue) {
 800a63a:	e001      	b.n	800a640 <chSysIntegrityCheckI+0x20>
      n--;
 800a63c:	3b01      	subs	r3, #1
      tp = tp->queue.prev;
 800a63e:	6852      	ldr	r2, [r2, #4]
    while (tp != (thread_t *)&ch.rlist.queue) {
 800a640:	491b      	ldr	r1, [pc, #108]	; (800a6b0 <chSysIntegrityCheckI+0x90>)
 800a642:	428a      	cmp	r2, r1
 800a644:	d1fa      	bne.n	800a63c <chSysIntegrityCheckI+0x1c>
    if (n != (cnt_t)0) {
 800a646:	bb5b      	cbnz	r3, 800a6a0 <chSysIntegrityCheckI+0x80>
  if ((testmask & CH_INTEGRITY_VTLIST) != 0U) {
 800a648:	f010 0f02 	tst.w	r0, #2
 800a64c:	d012      	beq.n	800a674 <chSysIntegrityCheckI+0x54>
    vtp = ch.vtlist.next;
 800a64e:	4b18      	ldr	r3, [pc, #96]	; (800a6b0 <chSysIntegrityCheckI+0x90>)
 800a650:	69da      	ldr	r2, [r3, #28]
    n = (cnt_t)0;
 800a652:	2300      	movs	r3, #0
    while (vtp != (virtual_timer_t *)&ch.vtlist) {
 800a654:	4917      	ldr	r1, [pc, #92]	; (800a6b4 <chSysIntegrityCheckI+0x94>)
 800a656:	428a      	cmp	r2, r1
 800a658:	d002      	beq.n	800a660 <chSysIntegrityCheckI+0x40>
      n++;
 800a65a:	3301      	adds	r3, #1
      vtp = vtp->next;
 800a65c:	6812      	ldr	r2, [r2, #0]
 800a65e:	e7f9      	b.n	800a654 <chSysIntegrityCheckI+0x34>
    vtp = ch.vtlist.prev;
 800a660:	f1a1 021c 	sub.w	r2, r1, #28
 800a664:	6a12      	ldr	r2, [r2, #32]
    while (vtp != (virtual_timer_t *)&ch.vtlist) {
 800a666:	e001      	b.n	800a66c <chSysIntegrityCheckI+0x4c>
      n--;
 800a668:	3b01      	subs	r3, #1
      vtp = vtp->prev;
 800a66a:	6852      	ldr	r2, [r2, #4]
    while (vtp != (virtual_timer_t *)&ch.vtlist) {
 800a66c:	4911      	ldr	r1, [pc, #68]	; (800a6b4 <chSysIntegrityCheckI+0x94>)
 800a66e:	428a      	cmp	r2, r1
 800a670:	d1fa      	bne.n	800a668 <chSysIntegrityCheckI+0x48>
    if (n != (cnt_t)0) {
 800a672:	b9bb      	cbnz	r3, 800a6a4 <chSysIntegrityCheckI+0x84>
  if ((testmask & CH_INTEGRITY_REGISTRY) != 0U) {
 800a674:	f010 0f04 	tst.w	r0, #4
 800a678:	d016      	beq.n	800a6a8 <chSysIntegrityCheckI+0x88>
    tp = ch.rlist.newer;
 800a67a:	4b0d      	ldr	r3, [pc, #52]	; (800a6b0 <chSysIntegrityCheckI+0x90>)
 800a67c:	691a      	ldr	r2, [r3, #16]
    n = (cnt_t)0;
 800a67e:	2300      	movs	r3, #0
 800a680:	e001      	b.n	800a686 <chSysIntegrityCheckI+0x66>
      n++;
 800a682:	3301      	adds	r3, #1
      tp = tp->newer;
 800a684:	6912      	ldr	r2, [r2, #16]
    while (tp != (thread_t *)&ch.rlist) {
 800a686:	490a      	ldr	r1, [pc, #40]	; (800a6b0 <chSysIntegrityCheckI+0x90>)
 800a688:	428a      	cmp	r2, r1
 800a68a:	d1fa      	bne.n	800a682 <chSysIntegrityCheckI+0x62>
    tp = ch.rlist.older;
 800a68c:	694a      	ldr	r2, [r1, #20]
    while (tp != (thread_t *)&ch.rlist) {
 800a68e:	4908      	ldr	r1, [pc, #32]	; (800a6b0 <chSysIntegrityCheckI+0x90>)
 800a690:	428a      	cmp	r2, r1
 800a692:	d002      	beq.n	800a69a <chSysIntegrityCheckI+0x7a>
      n--;
 800a694:	3b01      	subs	r3, #1
      tp = tp->older;
 800a696:	6952      	ldr	r2, [r2, #20]
 800a698:	e7f9      	b.n	800a68e <chSysIntegrityCheckI+0x6e>
    if (n != (cnt_t)0) {
 800a69a:	b93b      	cbnz	r3, 800a6ac <chSysIntegrityCheckI+0x8c>
  return false;
 800a69c:	2000      	movs	r0, #0
 800a69e:	4770      	bx	lr
      return true;
 800a6a0:	2001      	movs	r0, #1
 800a6a2:	4770      	bx	lr
      return true;
 800a6a4:	2001      	movs	r0, #1
 800a6a6:	4770      	bx	lr
  return false;
 800a6a8:	2000      	movs	r0, #0
 800a6aa:	4770      	bx	lr
      return true;
 800a6ac:	2001      	movs	r0, #1
}
 800a6ae:	4770      	bx	lr
 800a6b0:	20001040 	.word	0x20001040
 800a6b4:	2000105c 	.word	0x2000105c
	...

0800a6c0 <chSysInit>:
void chSysInit(void) {
 800a6c0:	b510      	push	{r4, lr}
  _scheduler_init();
 800a6c2:	f7fe ff05 	bl	80094d0 <_scheduler_init>
  _vt_init();
 800a6c6:	f7fe ff13 	bl	80094f0 <_vt_init>
 * @notapi
 */
static inline void _oslib_init(void) {

#if CH_CFG_USE_MEMCORE == TRUE
  _core_init();
 800a6ca:	f7fb fa91 	bl	8005bf0 <_core_init>
#endif
#if CH_CFG_USE_HEAP == TRUE
  _heap_init();
 800a6ce:	f7fb fd87 	bl	80061e0 <_heap_init>
#endif
#if CH_CFG_USE_FACTORY == TRUE
  _factory_init();
 800a6d2:	f7fb fc25 	bl	8005f20 <_factory_init>
  _tm_init();
 800a6d6:	f7fb fd93 	bl	8006200 <_tm_init>
  currp = _thread_init(&ch.mainthread, (const char *)&ch_debug, NORMALPRIO);
 800a6da:	4c0b      	ldr	r4, [pc, #44]	; (800a708 <chSysInit+0x48>)
 800a6dc:	2280      	movs	r2, #128	; 0x80
 800a6de:	490b      	ldr	r1, [pc, #44]	; (800a70c <chSysInit+0x4c>)
 800a6e0:	4620      	mov	r0, r4
 800a6e2:	f7fc fead 	bl	8007440 <_thread_init>
 800a6e6:	f844 0c18 	str.w	r0, [r4, #-24]
  currp->wabase = NULL;
 800a6ea:	2400      	movs	r4, #0
 800a6ec:	61c4      	str	r4, [r0, #28]
  currp->state = CH_STATE_CURRENT;
 800a6ee:	2301      	movs	r3, #1
 800a6f0:	f880 3020 	strb.w	r3, [r0, #32]
  port_init();
 800a6f4:	f7fb fa44 	bl	8005b80 <port_init>
 800a6f8:	f384 8811 	msr	BASEPRI, r4
  __ASM volatile ("cpsie i" : : : "memory");
 800a6fc:	b662      	cpsie	i
    (void) chThdCreate(&idle_descriptor);
 800a6fe:	4804      	ldr	r0, [pc, #16]	; (800a710 <chSysInit+0x50>)
 800a700:	f7fe fd5e 	bl	80091c0 <chThdCreate>
}
 800a704:	bd10      	pop	{r4, pc}
 800a706:	bf00      	nop
 800a708:	20001070 	.word	0x20001070
 800a70c:	0800e11c 	.word	0x0800e11c
 800a710:	0800e220 	.word	0x0800e220
	...

0800a720 <__early_init>:
/**
 * @brief   Early initialization code.
 * @details GPIO ports and system clocks are initialized before everything
 *          else.
 */
void __early_init(void) {
 800a720:	b508      	push	{r3, lr}

  stm32_gpio_init();
 800a722:	f7fe ff15 	bl	8009550 <stm32_gpio_init>
  stm32_clock_init();
 800a726:	f7ff f82b 	bl	8009780 <stm32_clock_init>
}
 800a72a:	bd08      	pop	{r3, pc}
 800a72c:	0000      	movs	r0, r0
	...

0800a730 <VectorD8>:
OSAL_IRQ_HANDLER(STM32_USART2_HANDLER) {
 800a730:	b508      	push	{r3, lr}
  serve_interrupt(&SD2);
 800a732:	4803      	ldr	r0, [pc, #12]	; (800a740 <VectorD8+0x10>)
 800a734:	f7ff fd0c 	bl	800a150 <serve_interrupt>
  OSAL_IRQ_EPILOGUE();
 800a738:	f7fb f9fa 	bl	8005b30 <_port_irq_epilogue>
}
 800a73c:	bd08      	pop	{r3, pc}
 800a73e:	bf00      	nop
 800a740:	20000f10 	.word	0x20000f10
	...

0800a750 <Vector158>:
OSAL_IRQ_HANDLER(STM32_DMA2_CH7_HANDLER) {
 800a750:	b508      	push	{r3, lr}
  flags = (DMA2->HISR >> 22U) & STM32_DMA_ISR_MASK;
 800a752:	4b08      	ldr	r3, [pc, #32]	; (800a774 <Vector158+0x24>)
 800a754:	6859      	ldr	r1, [r3, #4]
 800a756:	0d89      	lsrs	r1, r1, #22
 800a758:	f001 013d 	and.w	r1, r1, #61	; 0x3d
  DMA2->HIFCR = flags << 22U;
 800a75c:	058a      	lsls	r2, r1, #22
 800a75e:	60da      	str	r2, [r3, #12]
  if (dma.streams[15].func)
 800a760:	4b05      	ldr	r3, [pc, #20]	; (800a778 <Vector158+0x28>)
 800a762:	6fdb      	ldr	r3, [r3, #124]	; 0x7c
 800a764:	b11b      	cbz	r3, 800a76e <Vector158+0x1e>
    dma.streams[15].func(dma.streams[15].param, flags);
 800a766:	4a04      	ldr	r2, [pc, #16]	; (800a778 <Vector158+0x28>)
 800a768:	f8d2 0080 	ldr.w	r0, [r2, #128]	; 0x80
 800a76c:	4798      	blx	r3
  OSAL_IRQ_EPILOGUE();
 800a76e:	f7fb f9df 	bl	8005b30 <_port_irq_epilogue>
}
 800a772:	bd08      	pop	{r3, pc}
 800a774:	40026400 	.word	0x40026400
 800a778:	20002188 	.word	0x20002188
 800a77c:	00000000 	.word	0x00000000

0800a780 <Vector154>:
OSAL_IRQ_HANDLER(STM32_DMA2_CH6_HANDLER) {
 800a780:	b508      	push	{r3, lr}
  flags = (DMA2->HISR >> 16U) & STM32_DMA_ISR_MASK;
 800a782:	4b08      	ldr	r3, [pc, #32]	; (800a7a4 <Vector154+0x24>)
 800a784:	6859      	ldr	r1, [r3, #4]
 800a786:	0c09      	lsrs	r1, r1, #16
 800a788:	f001 013d 	and.w	r1, r1, #61	; 0x3d
  DMA2->HIFCR = flags << 16U;
 800a78c:	040a      	lsls	r2, r1, #16
 800a78e:	60da      	str	r2, [r3, #12]
  if (dma.streams[14].func)
 800a790:	4b05      	ldr	r3, [pc, #20]	; (800a7a8 <Vector154+0x28>)
 800a792:	6f5b      	ldr	r3, [r3, #116]	; 0x74
 800a794:	b113      	cbz	r3, 800a79c <Vector154+0x1c>
    dma.streams[14].func(dma.streams[14].param, flags);
 800a796:	4a04      	ldr	r2, [pc, #16]	; (800a7a8 <Vector154+0x28>)
 800a798:	6f90      	ldr	r0, [r2, #120]	; 0x78
 800a79a:	4798      	blx	r3
  OSAL_IRQ_EPILOGUE();
 800a79c:	f7fb f9c8 	bl	8005b30 <_port_irq_epilogue>
}
 800a7a0:	bd08      	pop	{r3, pc}
 800a7a2:	bf00      	nop
 800a7a4:	40026400 	.word	0x40026400
 800a7a8:	20002188 	.word	0x20002188
 800a7ac:	00000000 	.word	0x00000000

0800a7b0 <Vector150>:
OSAL_IRQ_HANDLER(STM32_DMA2_CH5_HANDLER) {
 800a7b0:	b508      	push	{r3, lr}
  flags = (DMA2->HISR >> 6U) & STM32_DMA_ISR_MASK;
 800a7b2:	4b08      	ldr	r3, [pc, #32]	; (800a7d4 <Vector150+0x24>)
 800a7b4:	6859      	ldr	r1, [r3, #4]
 800a7b6:	0989      	lsrs	r1, r1, #6
 800a7b8:	f001 013d 	and.w	r1, r1, #61	; 0x3d
  DMA2->HIFCR = flags << 6U;
 800a7bc:	018a      	lsls	r2, r1, #6
 800a7be:	60da      	str	r2, [r3, #12]
  if (dma.streams[13].func)
 800a7c0:	4b05      	ldr	r3, [pc, #20]	; (800a7d8 <Vector150+0x28>)
 800a7c2:	6edb      	ldr	r3, [r3, #108]	; 0x6c
 800a7c4:	b113      	cbz	r3, 800a7cc <Vector150+0x1c>
    dma.streams[13].func(dma.streams[13].param, flags);
 800a7c6:	4a04      	ldr	r2, [pc, #16]	; (800a7d8 <Vector150+0x28>)
 800a7c8:	6f10      	ldr	r0, [r2, #112]	; 0x70
 800a7ca:	4798      	blx	r3
  OSAL_IRQ_EPILOGUE();
 800a7cc:	f7fb f9b0 	bl	8005b30 <_port_irq_epilogue>
}
 800a7d0:	bd08      	pop	{r3, pc}
 800a7d2:	bf00      	nop
 800a7d4:	40026400 	.word	0x40026400
 800a7d8:	20002188 	.word	0x20002188
 800a7dc:	00000000 	.word	0x00000000

0800a7e0 <Vector130>:
OSAL_IRQ_HANDLER(STM32_DMA2_CH4_HANDLER) {
 800a7e0:	b508      	push	{r3, lr}
  flags = (DMA2->HISR >> 0U) & STM32_DMA_ISR_MASK;
 800a7e2:	4b07      	ldr	r3, [pc, #28]	; (800a800 <Vector130+0x20>)
 800a7e4:	6859      	ldr	r1, [r3, #4]
 800a7e6:	f001 013d 	and.w	r1, r1, #61	; 0x3d
  DMA2->HIFCR = flags << 0U;
 800a7ea:	60d9      	str	r1, [r3, #12]
  if (dma.streams[12].func)
 800a7ec:	4b05      	ldr	r3, [pc, #20]	; (800a804 <Vector130+0x24>)
 800a7ee:	6e5b      	ldr	r3, [r3, #100]	; 0x64
 800a7f0:	b113      	cbz	r3, 800a7f8 <Vector130+0x18>
    dma.streams[12].func(dma.streams[12].param, flags);
 800a7f2:	4a04      	ldr	r2, [pc, #16]	; (800a804 <Vector130+0x24>)
 800a7f4:	6e90      	ldr	r0, [r2, #104]	; 0x68
 800a7f6:	4798      	blx	r3
  OSAL_IRQ_EPILOGUE();
 800a7f8:	f7fb f99a 	bl	8005b30 <_port_irq_epilogue>
}
 800a7fc:	bd08      	pop	{r3, pc}
 800a7fe:	bf00      	nop
 800a800:	40026400 	.word	0x40026400
 800a804:	20002188 	.word	0x20002188
	...

0800a810 <Vector12C>:
OSAL_IRQ_HANDLER(STM32_DMA2_CH3_HANDLER) {
 800a810:	b508      	push	{r3, lr}
  flags = (DMA2->LISR >> 22U) & STM32_DMA_ISR_MASK;
 800a812:	4b08      	ldr	r3, [pc, #32]	; (800a834 <Vector12C+0x24>)
 800a814:	6819      	ldr	r1, [r3, #0]
 800a816:	0d89      	lsrs	r1, r1, #22
 800a818:	f001 013d 	and.w	r1, r1, #61	; 0x3d
  DMA2->LIFCR = flags << 22U;
 800a81c:	058a      	lsls	r2, r1, #22
 800a81e:	609a      	str	r2, [r3, #8]
  if (dma.streams[11].func)
 800a820:	4b05      	ldr	r3, [pc, #20]	; (800a838 <Vector12C+0x28>)
 800a822:	6ddb      	ldr	r3, [r3, #92]	; 0x5c
 800a824:	b113      	cbz	r3, 800a82c <Vector12C+0x1c>
    dma.streams[11].func(dma.streams[11].param, flags);
 800a826:	4a04      	ldr	r2, [pc, #16]	; (800a838 <Vector12C+0x28>)
 800a828:	6e10      	ldr	r0, [r2, #96]	; 0x60
 800a82a:	4798      	blx	r3
  OSAL_IRQ_EPILOGUE();
 800a82c:	f7fb f980 	bl	8005b30 <_port_irq_epilogue>
}
 800a830:	bd08      	pop	{r3, pc}
 800a832:	bf00      	nop
 800a834:	40026400 	.word	0x40026400
 800a838:	20002188 	.word	0x20002188
 800a83c:	00000000 	.word	0x00000000

0800a840 <Vector128>:
OSAL_IRQ_HANDLER(STM32_DMA2_CH2_HANDLER) {
 800a840:	b508      	push	{r3, lr}
  flags = (DMA2->LISR >> 16U) & STM32_DMA_ISR_MASK;
 800a842:	4b08      	ldr	r3, [pc, #32]	; (800a864 <Vector128+0x24>)
 800a844:	6819      	ldr	r1, [r3, #0]
 800a846:	0c09      	lsrs	r1, r1, #16
 800a848:	f001 013d 	and.w	r1, r1, #61	; 0x3d
  DMA2->LIFCR = flags << 16U;
 800a84c:	040a      	lsls	r2, r1, #16
 800a84e:	609a      	str	r2, [r3, #8]
  if (dma.streams[10].func)
 800a850:	4b05      	ldr	r3, [pc, #20]	; (800a868 <Vector128+0x28>)
 800a852:	6d5b      	ldr	r3, [r3, #84]	; 0x54
 800a854:	b113      	cbz	r3, 800a85c <Vector128+0x1c>
    dma.streams[10].func(dma.streams[10].param, flags);
 800a856:	4a04      	ldr	r2, [pc, #16]	; (800a868 <Vector128+0x28>)
 800a858:	6d90      	ldr	r0, [r2, #88]	; 0x58
 800a85a:	4798      	blx	r3
  OSAL_IRQ_EPILOGUE();
 800a85c:	f7fb f968 	bl	8005b30 <_port_irq_epilogue>
}
 800a860:	bd08      	pop	{r3, pc}
 800a862:	bf00      	nop
 800a864:	40026400 	.word	0x40026400
 800a868:	20002188 	.word	0x20002188
 800a86c:	00000000 	.word	0x00000000

0800a870 <Vector124>:
OSAL_IRQ_HANDLER(STM32_DMA2_CH1_HANDLER) {
 800a870:	b508      	push	{r3, lr}
  flags = (DMA2->LISR >> 6U) & STM32_DMA_ISR_MASK;
 800a872:	4b08      	ldr	r3, [pc, #32]	; (800a894 <Vector124+0x24>)
 800a874:	6819      	ldr	r1, [r3, #0]
 800a876:	0989      	lsrs	r1, r1, #6
 800a878:	f001 013d 	and.w	r1, r1, #61	; 0x3d
  DMA2->LIFCR = flags << 6U;
 800a87c:	018a      	lsls	r2, r1, #6
 800a87e:	609a      	str	r2, [r3, #8]
  if (dma.streams[9].func)
 800a880:	4b05      	ldr	r3, [pc, #20]	; (800a898 <Vector124+0x28>)
 800a882:	6cdb      	ldr	r3, [r3, #76]	; 0x4c
 800a884:	b113      	cbz	r3, 800a88c <Vector124+0x1c>
    dma.streams[9].func(dma.streams[9].param, flags);
 800a886:	4a04      	ldr	r2, [pc, #16]	; (800a898 <Vector124+0x28>)
 800a888:	6d10      	ldr	r0, [r2, #80]	; 0x50
 800a88a:	4798      	blx	r3
  OSAL_IRQ_EPILOGUE();
 800a88c:	f7fb f950 	bl	8005b30 <_port_irq_epilogue>
}
 800a890:	bd08      	pop	{r3, pc}
 800a892:	bf00      	nop
 800a894:	40026400 	.word	0x40026400
 800a898:	20002188 	.word	0x20002188
 800a89c:	00000000 	.word	0x00000000

0800a8a0 <Vector120>:
OSAL_IRQ_HANDLER(STM32_DMA2_CH0_HANDLER) {
 800a8a0:	b508      	push	{r3, lr}
  flags = (DMA2->LISR >> 0U) & STM32_DMA_ISR_MASK;
 800a8a2:	4b07      	ldr	r3, [pc, #28]	; (800a8c0 <Vector120+0x20>)
 800a8a4:	6819      	ldr	r1, [r3, #0]
 800a8a6:	f001 013d 	and.w	r1, r1, #61	; 0x3d
  DMA2->LIFCR = flags << 0U;
 800a8aa:	6099      	str	r1, [r3, #8]
  if (dma.streams[8].func)
 800a8ac:	4b05      	ldr	r3, [pc, #20]	; (800a8c4 <Vector120+0x24>)
 800a8ae:	6c5b      	ldr	r3, [r3, #68]	; 0x44
 800a8b0:	b113      	cbz	r3, 800a8b8 <Vector120+0x18>
    dma.streams[8].func(dma.streams[8].param, flags);
 800a8b2:	4a04      	ldr	r2, [pc, #16]	; (800a8c4 <Vector120+0x24>)
 800a8b4:	6c90      	ldr	r0, [r2, #72]	; 0x48
 800a8b6:	4798      	blx	r3
  OSAL_IRQ_EPILOGUE();
 800a8b8:	f7fb f93a 	bl	8005b30 <_port_irq_epilogue>
}
 800a8bc:	bd08      	pop	{r3, pc}
 800a8be:	bf00      	nop
 800a8c0:	40026400 	.word	0x40026400
 800a8c4:	20002188 	.word	0x20002188
	...

0800a8d0 <VectorFC>:
OSAL_IRQ_HANDLER(STM32_DMA1_CH7_HANDLER) {
 800a8d0:	b508      	push	{r3, lr}
  flags = (DMA1->HISR >> 22U) & STM32_DMA_ISR_MASK;
 800a8d2:	4b08      	ldr	r3, [pc, #32]	; (800a8f4 <VectorFC+0x24>)
 800a8d4:	6859      	ldr	r1, [r3, #4]
 800a8d6:	0d89      	lsrs	r1, r1, #22
 800a8d8:	f001 013d 	and.w	r1, r1, #61	; 0x3d
  DMA1->HIFCR = flags << 22U;
 800a8dc:	058a      	lsls	r2, r1, #22
 800a8de:	60da      	str	r2, [r3, #12]
  if (dma.streams[7].func)
 800a8e0:	4b05      	ldr	r3, [pc, #20]	; (800a8f8 <VectorFC+0x28>)
 800a8e2:	6bdb      	ldr	r3, [r3, #60]	; 0x3c
 800a8e4:	b113      	cbz	r3, 800a8ec <VectorFC+0x1c>
    dma.streams[7].func(dma.streams[7].param, flags);
 800a8e6:	4a04      	ldr	r2, [pc, #16]	; (800a8f8 <VectorFC+0x28>)
 800a8e8:	6c10      	ldr	r0, [r2, #64]	; 0x40
 800a8ea:	4798      	blx	r3
  OSAL_IRQ_EPILOGUE();
 800a8ec:	f7fb f920 	bl	8005b30 <_port_irq_epilogue>
}
 800a8f0:	bd08      	pop	{r3, pc}
 800a8f2:	bf00      	nop
 800a8f4:	40026000 	.word	0x40026000
 800a8f8:	20002188 	.word	0x20002188
 800a8fc:	00000000 	.word	0x00000000

0800a900 <Vector84>:
OSAL_IRQ_HANDLER(STM32_DMA1_CH6_HANDLER) {
 800a900:	b508      	push	{r3, lr}
  flags = (DMA1->HISR >> 16U) & STM32_DMA_ISR_MASK;
 800a902:	4b08      	ldr	r3, [pc, #32]	; (800a924 <Vector84+0x24>)
 800a904:	6859      	ldr	r1, [r3, #4]
 800a906:	0c09      	lsrs	r1, r1, #16
 800a908:	f001 013d 	and.w	r1, r1, #61	; 0x3d
  DMA1->HIFCR = flags << 16U;
 800a90c:	040a      	lsls	r2, r1, #16
 800a90e:	60da      	str	r2, [r3, #12]
  if (dma.streams[6].func)
 800a910:	4b05      	ldr	r3, [pc, #20]	; (800a928 <Vector84+0x28>)
 800a912:	6b5b      	ldr	r3, [r3, #52]	; 0x34
 800a914:	b113      	cbz	r3, 800a91c <Vector84+0x1c>
    dma.streams[6].func(dma.streams[6].param, flags);
 800a916:	4a04      	ldr	r2, [pc, #16]	; (800a928 <Vector84+0x28>)
 800a918:	6b90      	ldr	r0, [r2, #56]	; 0x38
 800a91a:	4798      	blx	r3
  OSAL_IRQ_EPILOGUE();
 800a91c:	f7fb f908 	bl	8005b30 <_port_irq_epilogue>
}
 800a920:	bd08      	pop	{r3, pc}
 800a922:	bf00      	nop
 800a924:	40026000 	.word	0x40026000
 800a928:	20002188 	.word	0x20002188
 800a92c:	00000000 	.word	0x00000000

0800a930 <Vector80>:
OSAL_IRQ_HANDLER(STM32_DMA1_CH5_HANDLER) {
 800a930:	b508      	push	{r3, lr}
  flags = (DMA1->HISR >> 6U) & STM32_DMA_ISR_MASK;
 800a932:	4b08      	ldr	r3, [pc, #32]	; (800a954 <Vector80+0x24>)
 800a934:	6859      	ldr	r1, [r3, #4]
 800a936:	0989      	lsrs	r1, r1, #6
 800a938:	f001 013d 	and.w	r1, r1, #61	; 0x3d
  DMA1->HIFCR = flags << 6U;
 800a93c:	018a      	lsls	r2, r1, #6
 800a93e:	60da      	str	r2, [r3, #12]
  if (dma.streams[5].func)
 800a940:	4b05      	ldr	r3, [pc, #20]	; (800a958 <Vector80+0x28>)
 800a942:	6adb      	ldr	r3, [r3, #44]	; 0x2c
 800a944:	b113      	cbz	r3, 800a94c <Vector80+0x1c>
    dma.streams[5].func(dma.streams[5].param, flags);
 800a946:	4a04      	ldr	r2, [pc, #16]	; (800a958 <Vector80+0x28>)
 800a948:	6b10      	ldr	r0, [r2, #48]	; 0x30
 800a94a:	4798      	blx	r3
  OSAL_IRQ_EPILOGUE();
 800a94c:	f7fb f8f0 	bl	8005b30 <_port_irq_epilogue>
}
 800a950:	bd08      	pop	{r3, pc}
 800a952:	bf00      	nop
 800a954:	40026000 	.word	0x40026000
 800a958:	20002188 	.word	0x20002188
 800a95c:	00000000 	.word	0x00000000

0800a960 <Vector7C>:
OSAL_IRQ_HANDLER(STM32_DMA1_CH4_HANDLER) {
 800a960:	b508      	push	{r3, lr}
  flags = (DMA1->HISR >> 0U) & STM32_DMA_ISR_MASK;
 800a962:	4b07      	ldr	r3, [pc, #28]	; (800a980 <Vector7C+0x20>)
 800a964:	6859      	ldr	r1, [r3, #4]
 800a966:	f001 013d 	and.w	r1, r1, #61	; 0x3d
  DMA1->HIFCR = flags << 0U;
 800a96a:	60d9      	str	r1, [r3, #12]
  if (dma.streams[4].func)
 800a96c:	4b05      	ldr	r3, [pc, #20]	; (800a984 <Vector7C+0x24>)
 800a96e:	6a5b      	ldr	r3, [r3, #36]	; 0x24
 800a970:	b113      	cbz	r3, 800a978 <Vector7C+0x18>
    dma.streams[4].func(dma.streams[4].param, flags);
 800a972:	4a04      	ldr	r2, [pc, #16]	; (800a984 <Vector7C+0x24>)
 800a974:	6a90      	ldr	r0, [r2, #40]	; 0x28
 800a976:	4798      	blx	r3
  OSAL_IRQ_EPILOGUE();
 800a978:	f7fb f8da 	bl	8005b30 <_port_irq_epilogue>
}
 800a97c:	bd08      	pop	{r3, pc}
 800a97e:	bf00      	nop
 800a980:	40026000 	.word	0x40026000
 800a984:	20002188 	.word	0x20002188
	...

0800a990 <Vector78>:
OSAL_IRQ_HANDLER(STM32_DMA1_CH3_HANDLER) {
 800a990:	b508      	push	{r3, lr}
  flags = (DMA1->LISR >> 22U) & STM32_DMA_ISR_MASK;
 800a992:	4b08      	ldr	r3, [pc, #32]	; (800a9b4 <Vector78+0x24>)
 800a994:	6819      	ldr	r1, [r3, #0]
 800a996:	0d89      	lsrs	r1, r1, #22
 800a998:	f001 013d 	and.w	r1, r1, #61	; 0x3d
  DMA1->LIFCR = flags << 22U;
 800a99c:	058a      	lsls	r2, r1, #22
 800a99e:	609a      	str	r2, [r3, #8]
  if (dma.streams[3].func)
 800a9a0:	4b05      	ldr	r3, [pc, #20]	; (800a9b8 <Vector78+0x28>)
 800a9a2:	69db      	ldr	r3, [r3, #28]
 800a9a4:	b113      	cbz	r3, 800a9ac <Vector78+0x1c>
    dma.streams[3].func(dma.streams[3].param, flags);
 800a9a6:	4a04      	ldr	r2, [pc, #16]	; (800a9b8 <Vector78+0x28>)
 800a9a8:	6a10      	ldr	r0, [r2, #32]
 800a9aa:	4798      	blx	r3
  OSAL_IRQ_EPILOGUE();
 800a9ac:	f7fb f8c0 	bl	8005b30 <_port_irq_epilogue>
}
 800a9b0:	bd08      	pop	{r3, pc}
 800a9b2:	bf00      	nop
 800a9b4:	40026000 	.word	0x40026000
 800a9b8:	20002188 	.word	0x20002188
 800a9bc:	00000000 	.word	0x00000000

0800a9c0 <Vector74>:
OSAL_IRQ_HANDLER(STM32_DMA1_CH2_HANDLER) {
 800a9c0:	b508      	push	{r3, lr}
  flags = (DMA1->LISR >> 16U) & STM32_DMA_ISR_MASK;
 800a9c2:	4b08      	ldr	r3, [pc, #32]	; (800a9e4 <Vector74+0x24>)
 800a9c4:	6819      	ldr	r1, [r3, #0]
 800a9c6:	0c09      	lsrs	r1, r1, #16
 800a9c8:	f001 013d 	and.w	r1, r1, #61	; 0x3d
  DMA1->LIFCR = flags << 16U;
 800a9cc:	040a      	lsls	r2, r1, #16
 800a9ce:	609a      	str	r2, [r3, #8]
  if (dma.streams[2].func)
 800a9d0:	4b05      	ldr	r3, [pc, #20]	; (800a9e8 <Vector74+0x28>)
 800a9d2:	695b      	ldr	r3, [r3, #20]
 800a9d4:	b113      	cbz	r3, 800a9dc <Vector74+0x1c>
    dma.streams[2].func(dma.streams[2].param, flags);
 800a9d6:	4a04      	ldr	r2, [pc, #16]	; (800a9e8 <Vector74+0x28>)
 800a9d8:	6990      	ldr	r0, [r2, #24]
 800a9da:	4798      	blx	r3
  OSAL_IRQ_EPILOGUE();
 800a9dc:	f7fb f8a8 	bl	8005b30 <_port_irq_epilogue>
}
 800a9e0:	bd08      	pop	{r3, pc}
 800a9e2:	bf00      	nop
 800a9e4:	40026000 	.word	0x40026000
 800a9e8:	20002188 	.word	0x20002188
 800a9ec:	00000000 	.word	0x00000000

0800a9f0 <Vector70>:
OSAL_IRQ_HANDLER(STM32_DMA1_CH1_HANDLER) {
 800a9f0:	b508      	push	{r3, lr}
  flags = (DMA1->LISR >> 6U) & STM32_DMA_ISR_MASK;
 800a9f2:	4b08      	ldr	r3, [pc, #32]	; (800aa14 <Vector70+0x24>)
 800a9f4:	6819      	ldr	r1, [r3, #0]
 800a9f6:	0989      	lsrs	r1, r1, #6
 800a9f8:	f001 013d 	and.w	r1, r1, #61	; 0x3d
  DMA1->LIFCR = flags << 6U;
 800a9fc:	018a      	lsls	r2, r1, #6
 800a9fe:	609a      	str	r2, [r3, #8]
  if (dma.streams[1].func)
 800aa00:	4b05      	ldr	r3, [pc, #20]	; (800aa18 <Vector70+0x28>)
 800aa02:	68db      	ldr	r3, [r3, #12]
 800aa04:	b113      	cbz	r3, 800aa0c <Vector70+0x1c>
    dma.streams[1].func(dma.streams[1].param, flags);
 800aa06:	4a04      	ldr	r2, [pc, #16]	; (800aa18 <Vector70+0x28>)
 800aa08:	6910      	ldr	r0, [r2, #16]
 800aa0a:	4798      	blx	r3
  OSAL_IRQ_EPILOGUE();
 800aa0c:	f7fb f890 	bl	8005b30 <_port_irq_epilogue>
}
 800aa10:	bd08      	pop	{r3, pc}
 800aa12:	bf00      	nop
 800aa14:	40026000 	.word	0x40026000
 800aa18:	20002188 	.word	0x20002188
 800aa1c:	00000000 	.word	0x00000000

0800aa20 <Vector6C>:
OSAL_IRQ_HANDLER(STM32_DMA1_CH0_HANDLER) {
 800aa20:	b508      	push	{r3, lr}
  flags = (DMA1->LISR >> 0U) & STM32_DMA_ISR_MASK;
 800aa22:	4b07      	ldr	r3, [pc, #28]	; (800aa40 <Vector6C+0x20>)
 800aa24:	6819      	ldr	r1, [r3, #0]
 800aa26:	f001 013d 	and.w	r1, r1, #61	; 0x3d
  DMA1->LIFCR = flags << 0U;
 800aa2a:	6099      	str	r1, [r3, #8]
  if (dma.streams[0].func)
 800aa2c:	4b05      	ldr	r3, [pc, #20]	; (800aa44 <Vector6C+0x24>)
 800aa2e:	685b      	ldr	r3, [r3, #4]
 800aa30:	b113      	cbz	r3, 800aa38 <Vector6C+0x18>
    dma.streams[0].func(dma.streams[0].param, flags);
 800aa32:	4a04      	ldr	r2, [pc, #16]	; (800aa44 <Vector6C+0x24>)
 800aa34:	6890      	ldr	r0, [r2, #8]
 800aa36:	4798      	blx	r3
  OSAL_IRQ_EPILOGUE();
 800aa38:	f7fb f87a 	bl	8005b30 <_port_irq_epilogue>
}
 800aa3c:	bd08      	pop	{r3, pc}
 800aa3e:	bf00      	nop
 800aa40:	40026000 	.word	0x40026000
 800aa44:	20002188 	.word	0x20002188
	...

0800aa50 <VectorE0>:
OSAL_IRQ_HANDLER(VectorE0) {
 800aa50:	b510      	push	{r4, lr}
  pr = EXTI->PR;
 800aa52:	4b2f      	ldr	r3, [pc, #188]	; (800ab10 <VectorE0+0xc0>)
 800aa54:	695c      	ldr	r4, [r3, #20]
  pr &= EXTI->IMR & ((1U << 10) | (1U << 11) | (1U << 12) | (1U << 13) |
 800aa56:	681a      	ldr	r2, [r3, #0]
 800aa58:	f402 427c 	and.w	r2, r2, #64512	; 0xfc00
 800aa5c:	4014      	ands	r4, r2
  EXTI->PR = pr;
 800aa5e:	615c      	str	r4, [r3, #20]
  exti_serve_irq(pr, 10);
 800aa60:	f414 6f80 	tst.w	r4, #1024	; 0x400
 800aa64:	d111      	bne.n	800aa8a <VectorE0+0x3a>
  exti_serve_irq(pr, 11);
 800aa66:	f414 6f00 	tst.w	r4, #2048	; 0x800
 800aa6a:	d119      	bne.n	800aaa0 <VectorE0+0x50>
  exti_serve_irq(pr, 12);
 800aa6c:	f414 5f80 	tst.w	r4, #4096	; 0x1000
 800aa70:	d121      	bne.n	800aab6 <VectorE0+0x66>
  exti_serve_irq(pr, 13);
 800aa72:	f414 5f00 	tst.w	r4, #8192	; 0x2000
 800aa76:	d129      	bne.n	800aacc <VectorE0+0x7c>
  exti_serve_irq(pr, 14);
 800aa78:	f414 4f80 	tst.w	r4, #16384	; 0x4000
 800aa7c:	d131      	bne.n	800aae2 <VectorE0+0x92>
  exti_serve_irq(pr, 15);
 800aa7e:	f414 4f00 	tst.w	r4, #32768	; 0x8000
 800aa82:	d139      	bne.n	800aaf8 <VectorE0+0xa8>
  OSAL_IRQ_EPILOGUE();
 800aa84:	f7fb f854 	bl	8005b30 <_port_irq_epilogue>
}
 800aa88:	bd10      	pop	{r4, pc}
  __ASM volatile ("MSR basepri, %0" : : "r" (basePri) : "memory");
 800aa8a:	2320      	movs	r3, #32
 800aa8c:	f383 8811 	msr	BASEPRI, r3
  chThdDequeueAllI(tqp, msg);
 800aa90:	2100      	movs	r1, #0
 800aa92:	4820      	ldr	r0, [pc, #128]	; (800ab14 <VectorE0+0xc4>)
 800aa94:	f7fb fbcc 	bl	8006230 <chThdDequeueAllI>
 800aa98:	2300      	movs	r3, #0
 800aa9a:	f383 8811 	msr	BASEPRI, r3
 800aa9e:	e7e2      	b.n	800aa66 <VectorE0+0x16>
 800aaa0:	2320      	movs	r3, #32
 800aaa2:	f383 8811 	msr	BASEPRI, r3
 800aaa6:	2100      	movs	r1, #0
 800aaa8:	481b      	ldr	r0, [pc, #108]	; (800ab18 <VectorE0+0xc8>)
 800aaaa:	f7fb fbc1 	bl	8006230 <chThdDequeueAllI>
 800aaae:	2300      	movs	r3, #0
 800aab0:	f383 8811 	msr	BASEPRI, r3
 800aab4:	e7da      	b.n	800aa6c <VectorE0+0x1c>
 800aab6:	2320      	movs	r3, #32
 800aab8:	f383 8811 	msr	BASEPRI, r3
 800aabc:	2100      	movs	r1, #0
 800aabe:	4817      	ldr	r0, [pc, #92]	; (800ab1c <VectorE0+0xcc>)
 800aac0:	f7fb fbb6 	bl	8006230 <chThdDequeueAllI>
 800aac4:	2300      	movs	r3, #0
 800aac6:	f383 8811 	msr	BASEPRI, r3
 800aaca:	e7d2      	b.n	800aa72 <VectorE0+0x22>
 800aacc:	2320      	movs	r3, #32
 800aace:	f383 8811 	msr	BASEPRI, r3
 800aad2:	2100      	movs	r1, #0
 800aad4:	4812      	ldr	r0, [pc, #72]	; (800ab20 <VectorE0+0xd0>)
 800aad6:	f7fb fbab 	bl	8006230 <chThdDequeueAllI>
 800aada:	2300      	movs	r3, #0
 800aadc:	f383 8811 	msr	BASEPRI, r3
 800aae0:	e7ca      	b.n	800aa78 <VectorE0+0x28>
 800aae2:	2320      	movs	r3, #32
 800aae4:	f383 8811 	msr	BASEPRI, r3
 800aae8:	2100      	movs	r1, #0
 800aaea:	480e      	ldr	r0, [pc, #56]	; (800ab24 <VectorE0+0xd4>)
 800aaec:	f7fb fba0 	bl	8006230 <chThdDequeueAllI>
 800aaf0:	2300      	movs	r3, #0
 800aaf2:	f383 8811 	msr	BASEPRI, r3
 800aaf6:	e7c2      	b.n	800aa7e <VectorE0+0x2e>
 800aaf8:	2320      	movs	r3, #32
 800aafa:	f383 8811 	msr	BASEPRI, r3
 800aafe:	2100      	movs	r1, #0
 800ab00:	4809      	ldr	r0, [pc, #36]	; (800ab28 <VectorE0+0xd8>)
 800ab02:	f7fb fb95 	bl	8006230 <chThdDequeueAllI>
 800ab06:	2300      	movs	r3, #0
 800ab08:	f383 8811 	msr	BASEPRI, r3
 800ab0c:	e7ba      	b.n	800aa84 <VectorE0+0x34>
 800ab0e:	bf00      	nop
 800ab10:	40013c00 	.word	0x40013c00
 800ab14:	20002080 	.word	0x20002080
 800ab18:	20002088 	.word	0x20002088
 800ab1c:	20002090 	.word	0x20002090
 800ab20:	20002098 	.word	0x20002098
 800ab24:	200020a0 	.word	0x200020a0
 800ab28:	200020a8 	.word	0x200020a8
 800ab2c:	00000000 	.word	0x00000000

0800ab30 <Vector9C>:
OSAL_IRQ_HANDLER(Vector9C) {
 800ab30:	b510      	push	{r4, lr}
  pr = EXTI->PR;
 800ab32:	4b28      	ldr	r3, [pc, #160]	; (800abd4 <Vector9C+0xa4>)
 800ab34:	695c      	ldr	r4, [r3, #20]
  pr &= EXTI->IMR & ((1U << 5) | (1U << 6) | (1U << 7) | (1U << 8) |
 800ab36:	681a      	ldr	r2, [r3, #0]
 800ab38:	f402 7278 	and.w	r2, r2, #992	; 0x3e0
 800ab3c:	4014      	ands	r4, r2
  EXTI->PR = pr;
 800ab3e:	615c      	str	r4, [r3, #20]
  exti_serve_irq(pr, 5);
 800ab40:	f014 0f20 	tst.w	r4, #32
 800ab44:	d10e      	bne.n	800ab64 <Vector9C+0x34>
  exti_serve_irq(pr, 6);
 800ab46:	f014 0f40 	tst.w	r4, #64	; 0x40
 800ab4a:	d116      	bne.n	800ab7a <Vector9C+0x4a>
  exti_serve_irq(pr, 7);
 800ab4c:	f014 0f80 	tst.w	r4, #128	; 0x80
 800ab50:	d11e      	bne.n	800ab90 <Vector9C+0x60>
  exti_serve_irq(pr, 8);
 800ab52:	f414 7f80 	tst.w	r4, #256	; 0x100
 800ab56:	d126      	bne.n	800aba6 <Vector9C+0x76>
  exti_serve_irq(pr, 9);
 800ab58:	f414 7f00 	tst.w	r4, #512	; 0x200
 800ab5c:	d12e      	bne.n	800abbc <Vector9C+0x8c>
  OSAL_IRQ_EPILOGUE();
 800ab5e:	f7fa ffe7 	bl	8005b30 <_port_irq_epilogue>
}
 800ab62:	bd10      	pop	{r4, pc}
 800ab64:	2320      	movs	r3, #32
 800ab66:	f383 8811 	msr	BASEPRI, r3
 800ab6a:	2100      	movs	r1, #0
 800ab6c:	481a      	ldr	r0, [pc, #104]	; (800abd8 <Vector9C+0xa8>)
 800ab6e:	f7fb fb5f 	bl	8006230 <chThdDequeueAllI>
 800ab72:	2300      	movs	r3, #0
 800ab74:	f383 8811 	msr	BASEPRI, r3
 800ab78:	e7e5      	b.n	800ab46 <Vector9C+0x16>
 800ab7a:	2320      	movs	r3, #32
 800ab7c:	f383 8811 	msr	BASEPRI, r3
 800ab80:	2100      	movs	r1, #0
 800ab82:	4816      	ldr	r0, [pc, #88]	; (800abdc <Vector9C+0xac>)
 800ab84:	f7fb fb54 	bl	8006230 <chThdDequeueAllI>
 800ab88:	2300      	movs	r3, #0
 800ab8a:	f383 8811 	msr	BASEPRI, r3
 800ab8e:	e7dd      	b.n	800ab4c <Vector9C+0x1c>
 800ab90:	2320      	movs	r3, #32
 800ab92:	f383 8811 	msr	BASEPRI, r3
 800ab96:	2100      	movs	r1, #0
 800ab98:	4811      	ldr	r0, [pc, #68]	; (800abe0 <Vector9C+0xb0>)
 800ab9a:	f7fb fb49 	bl	8006230 <chThdDequeueAllI>
 800ab9e:	2300      	movs	r3, #0
 800aba0:	f383 8811 	msr	BASEPRI, r3
 800aba4:	e7d5      	b.n	800ab52 <Vector9C+0x22>
 800aba6:	2320      	movs	r3, #32
 800aba8:	f383 8811 	msr	BASEPRI, r3
 800abac:	2100      	movs	r1, #0
 800abae:	480d      	ldr	r0, [pc, #52]	; (800abe4 <Vector9C+0xb4>)
 800abb0:	f7fb fb3e 	bl	8006230 <chThdDequeueAllI>
 800abb4:	2300      	movs	r3, #0
 800abb6:	f383 8811 	msr	BASEPRI, r3
 800abba:	e7cd      	b.n	800ab58 <Vector9C+0x28>
 800abbc:	2320      	movs	r3, #32
 800abbe:	f383 8811 	msr	BASEPRI, r3
 800abc2:	2100      	movs	r1, #0
 800abc4:	4808      	ldr	r0, [pc, #32]	; (800abe8 <Vector9C+0xb8>)
 800abc6:	f7fb fb33 	bl	8006230 <chThdDequeueAllI>
 800abca:	2300      	movs	r3, #0
 800abcc:	f383 8811 	msr	BASEPRI, r3
 800abd0:	e7c5      	b.n	800ab5e <Vector9C+0x2e>
 800abd2:	bf00      	nop
 800abd4:	40013c00 	.word	0x40013c00
 800abd8:	20002058 	.word	0x20002058
 800abdc:	20002060 	.word	0x20002060
 800abe0:	20002068 	.word	0x20002068
 800abe4:	20002070 	.word	0x20002070
 800abe8:	20002078 	.word	0x20002078
 800abec:	00000000 	.word	0x00000000

0800abf0 <Vector68>:
OSAL_IRQ_HANDLER(Vector68) {
 800abf0:	b508      	push	{r3, lr}
  pr = EXTI->PR;
 800abf2:	4a0b      	ldr	r2, [pc, #44]	; (800ac20 <Vector68+0x30>)
 800abf4:	6953      	ldr	r3, [r2, #20]
  pr &= EXTI->IMR & (1U << 4);
 800abf6:	6811      	ldr	r1, [r2, #0]
 800abf8:	f001 0110 	and.w	r1, r1, #16
 800abfc:	400b      	ands	r3, r1
  EXTI->PR = pr;
 800abfe:	6153      	str	r3, [r2, #20]
  exti_serve_irq(pr, 4);
 800ac00:	b913      	cbnz	r3, 800ac08 <Vector68+0x18>
  OSAL_IRQ_EPILOGUE();
 800ac02:	f7fa ff95 	bl	8005b30 <_port_irq_epilogue>
}
 800ac06:	bd08      	pop	{r3, pc}
 800ac08:	2320      	movs	r3, #32
 800ac0a:	f383 8811 	msr	BASEPRI, r3
 800ac0e:	2100      	movs	r1, #0
 800ac10:	4804      	ldr	r0, [pc, #16]	; (800ac24 <Vector68+0x34>)
 800ac12:	f7fb fb0d 	bl	8006230 <chThdDequeueAllI>
 800ac16:	2300      	movs	r3, #0
 800ac18:	f383 8811 	msr	BASEPRI, r3
 800ac1c:	e7f1      	b.n	800ac02 <Vector68+0x12>
 800ac1e:	bf00      	nop
 800ac20:	40013c00 	.word	0x40013c00
 800ac24:	20002050 	.word	0x20002050
	...

0800ac30 <Vector64>:
OSAL_IRQ_HANDLER(Vector64) {
 800ac30:	b508      	push	{r3, lr}
  pr = EXTI->PR;
 800ac32:	4a0b      	ldr	r2, [pc, #44]	; (800ac60 <Vector64+0x30>)
 800ac34:	6953      	ldr	r3, [r2, #20]
  pr &= EXTI->IMR & (1U << 3);
 800ac36:	6811      	ldr	r1, [r2, #0]
 800ac38:	f001 0108 	and.w	r1, r1, #8
 800ac3c:	400b      	ands	r3, r1
  EXTI->PR = pr;
 800ac3e:	6153      	str	r3, [r2, #20]
  exti_serve_irq(pr, 3);
 800ac40:	b913      	cbnz	r3, 800ac48 <Vector64+0x18>
  OSAL_IRQ_EPILOGUE();
 800ac42:	f7fa ff75 	bl	8005b30 <_port_irq_epilogue>
}
 800ac46:	bd08      	pop	{r3, pc}
 800ac48:	2320      	movs	r3, #32
 800ac4a:	f383 8811 	msr	BASEPRI, r3
 800ac4e:	2100      	movs	r1, #0
 800ac50:	4804      	ldr	r0, [pc, #16]	; (800ac64 <Vector64+0x34>)
 800ac52:	f7fb faed 	bl	8006230 <chThdDequeueAllI>
 800ac56:	2300      	movs	r3, #0
 800ac58:	f383 8811 	msr	BASEPRI, r3
 800ac5c:	e7f1      	b.n	800ac42 <Vector64+0x12>
 800ac5e:	bf00      	nop
 800ac60:	40013c00 	.word	0x40013c00
 800ac64:	20002048 	.word	0x20002048
	...

0800ac70 <Vector60>:
OSAL_IRQ_HANDLER(Vector60) {
 800ac70:	b508      	push	{r3, lr}
  pr = EXTI->PR;
 800ac72:	4a0b      	ldr	r2, [pc, #44]	; (800aca0 <Vector60+0x30>)
 800ac74:	6953      	ldr	r3, [r2, #20]
  pr &= EXTI->IMR & (1U << 2);
 800ac76:	6811      	ldr	r1, [r2, #0]
 800ac78:	f001 0104 	and.w	r1, r1, #4
 800ac7c:	400b      	ands	r3, r1
  EXTI->PR = pr;
 800ac7e:	6153      	str	r3, [r2, #20]
  exti_serve_irq(pr, 2);
 800ac80:	b913      	cbnz	r3, 800ac88 <Vector60+0x18>
  OSAL_IRQ_EPILOGUE();
 800ac82:	f7fa ff55 	bl	8005b30 <_port_irq_epilogue>
}
 800ac86:	bd08      	pop	{r3, pc}
 800ac88:	2320      	movs	r3, #32
 800ac8a:	f383 8811 	msr	BASEPRI, r3
 800ac8e:	2100      	movs	r1, #0
 800ac90:	4804      	ldr	r0, [pc, #16]	; (800aca4 <Vector60+0x34>)
 800ac92:	f7fb facd 	bl	8006230 <chThdDequeueAllI>
 800ac96:	2300      	movs	r3, #0
 800ac98:	f383 8811 	msr	BASEPRI, r3
 800ac9c:	e7f1      	b.n	800ac82 <Vector60+0x12>
 800ac9e:	bf00      	nop
 800aca0:	40013c00 	.word	0x40013c00
 800aca4:	20002040 	.word	0x20002040
	...

0800acb0 <Vector5C>:
OSAL_IRQ_HANDLER(Vector5C) {
 800acb0:	b508      	push	{r3, lr}
  pr = EXTI->PR;
 800acb2:	4a0b      	ldr	r2, [pc, #44]	; (800ace0 <Vector5C+0x30>)
 800acb4:	6953      	ldr	r3, [r2, #20]
  pr &= EXTI->IMR & (1U << 1);
 800acb6:	6811      	ldr	r1, [r2, #0]
 800acb8:	f001 0102 	and.w	r1, r1, #2
 800acbc:	400b      	ands	r3, r1
  EXTI->PR = pr;
 800acbe:	6153      	str	r3, [r2, #20]
  exti_serve_irq(pr, 1);
 800acc0:	b913      	cbnz	r3, 800acc8 <Vector5C+0x18>
  OSAL_IRQ_EPILOGUE();
 800acc2:	f7fa ff35 	bl	8005b30 <_port_irq_epilogue>
}
 800acc6:	bd08      	pop	{r3, pc}
 800acc8:	2320      	movs	r3, #32
 800acca:	f383 8811 	msr	BASEPRI, r3
 800acce:	2100      	movs	r1, #0
 800acd0:	4804      	ldr	r0, [pc, #16]	; (800ace4 <Vector5C+0x34>)
 800acd2:	f7fb faad 	bl	8006230 <chThdDequeueAllI>
 800acd6:	2300      	movs	r3, #0
 800acd8:	f383 8811 	msr	BASEPRI, r3
 800acdc:	e7f1      	b.n	800acc2 <Vector5C+0x12>
 800acde:	bf00      	nop
 800ace0:	40013c00 	.word	0x40013c00
 800ace4:	20002038 	.word	0x20002038
	...

0800acf0 <Vector58>:
OSAL_IRQ_HANDLER(Vector58) {
 800acf0:	b508      	push	{r3, lr}
  pr = EXTI->PR;
 800acf2:	4a0b      	ldr	r2, [pc, #44]	; (800ad20 <Vector58+0x30>)
 800acf4:	6953      	ldr	r3, [r2, #20]
  pr &= EXTI->IMR & (1U << 0);
 800acf6:	6811      	ldr	r1, [r2, #0]
 800acf8:	f001 0101 	and.w	r1, r1, #1
 800acfc:	400b      	ands	r3, r1
  EXTI->PR = pr;
 800acfe:	6153      	str	r3, [r2, #20]
  exti_serve_irq(pr, 0);
 800ad00:	b913      	cbnz	r3, 800ad08 <Vector58+0x18>
  OSAL_IRQ_EPILOGUE();
 800ad02:	f7fa ff15 	bl	8005b30 <_port_irq_epilogue>
}
 800ad06:	bd08      	pop	{r3, pc}
 800ad08:	2320      	movs	r3, #32
 800ad0a:	f383 8811 	msr	BASEPRI, r3
 800ad0e:	2100      	movs	r1, #0
 800ad10:	4804      	ldr	r0, [pc, #16]	; (800ad24 <Vector58+0x34>)
 800ad12:	f7fb fa8d 	bl	8006230 <chThdDequeueAllI>
 800ad16:	2300      	movs	r3, #0
 800ad18:	f383 8811 	msr	BASEPRI, r3
 800ad1c:	e7f1      	b.n	800ad02 <Vector58+0x12>
 800ad1e:	bf00      	nop
 800ad20:	40013c00 	.word	0x40013c00
 800ad24:	20002030 	.word	0x20002030
	...

0800ad30 <spiStartSend>:
 * @param[in] n         number of words to send
 * @param[in] txbuf     the pointer to the transmit buffer
 *
 * @api
 */
void spiStartSend(SPIDriver *spip, size_t n, const void *txbuf) {
 800ad30:	b510      	push	{r4, lr}
 800ad32:	2420      	movs	r4, #32
 800ad34:	f384 8811 	msr	BASEPRI, r4

  osalDbgCheck((spip != NULL) && (n > 0U) && (txbuf != NULL));

  osalSysLock();
  osalDbgAssert(spip->state == SPI_READY, "not ready");
  spiStartSendI(spip, n, txbuf);
 800ad38:	2403      	movs	r4, #3
 800ad3a:	7004      	strb	r4, [r0, #0]
 800ad3c:	f7fe fcb0 	bl	80096a0 <spi_lld_send>
 800ad40:	2300      	movs	r3, #0
 800ad42:	f383 8811 	msr	BASEPRI, r3
  osalSysUnlock();
}
 800ad46:	bd10      	pop	{r4, pc}
	...

0800ad50 <spiUnselect>:
 800ad50:	2320      	movs	r3, #32
 800ad52:	f383 8811 	msr	BASEPRI, r3
  spiUnselectI(spip);
 800ad56:	6843      	ldr	r3, [r0, #4]
 800ad58:	689a      	ldr	r2, [r3, #8]
 800ad5a:	68d9      	ldr	r1, [r3, #12]
 800ad5c:	2301      	movs	r3, #1
 800ad5e:	408b      	lsls	r3, r1
 800ad60:	b29b      	uxth	r3, r3
 800ad62:	8313      	strh	r3, [r2, #24]
 800ad64:	2300      	movs	r3, #0
 800ad66:	f383 8811 	msr	BASEPRI, r3
}
 800ad6a:	4770      	bx	lr
 800ad6c:	0000      	movs	r0, r0
	...

0800ad70 <spiSelect>:
 800ad70:	2320      	movs	r3, #32
 800ad72:	f383 8811 	msr	BASEPRI, r3
  spiSelectI(spip);
 800ad76:	6843      	ldr	r3, [r0, #4]
 800ad78:	689a      	ldr	r2, [r3, #8]
 800ad7a:	68d9      	ldr	r1, [r3, #12]
 800ad7c:	2301      	movs	r3, #1
 800ad7e:	408b      	lsls	r3, r1
 800ad80:	b29b      	uxth	r3, r3
 800ad82:	8353      	strh	r3, [r2, #26]
 800ad84:	2300      	movs	r3, #0
 800ad86:	f383 8811 	msr	BASEPRI, r3
}
 800ad8a:	4770      	bx	lr
 800ad8c:	0000      	movs	r0, r0
	...

0800ad90 <spiStart>:
void spiStart(SPIDriver *spip, const SPIConfig *config) {
 800ad90:	b510      	push	{r4, lr}
 800ad92:	4604      	mov	r4, r0
 800ad94:	2320      	movs	r3, #32
 800ad96:	f383 8811 	msr	BASEPRI, r3
  spip->config = config;
 800ad9a:	6041      	str	r1, [r0, #4]
  spi_lld_start(spip);
 800ad9c:	f7fe feb0 	bl	8009b00 <spi_lld_start>
  spip->state = SPI_READY;
 800ada0:	2302      	movs	r3, #2
 800ada2:	7023      	strb	r3, [r4, #0]
 800ada4:	2300      	movs	r3, #0
 800ada6:	f383 8811 	msr	BASEPRI, r3
}
 800adaa:	bd10      	pop	{r4, pc}
 800adac:	0000      	movs	r0, r0
	...

0800adb0 <sdStart>:
void sdStart(SerialDriver *sdp, const SerialConfig *config) {
 800adb0:	b510      	push	{r4, lr}
 800adb2:	4604      	mov	r4, r0
 800adb4:	2320      	movs	r3, #32
 800adb6:	f383 8811 	msr	BASEPRI, r3
  sd_lld_start(sdp, config);
 800adba:	f7fe fde1 	bl	8009980 <sd_lld_start>
  sdp->state = SD_READY;
 800adbe:	2302      	movs	r3, #2
 800adc0:	7223      	strb	r3, [r4, #8]
 800adc2:	2300      	movs	r3, #0
 800adc4:	f383 8811 	msr	BASEPRI, r3
}
 800adc8:	bd10      	pop	{r4, pc}
 800adca:	bf00      	nop
 800adcc:	0000      	movs	r0, r0
	...

0800add0 <palWaitLineTimeout>:
 * @retval MSG_RESET    if the event has been disabled while the thread was
 *                      waiting for an edge.
 *
 * @api
 */
msg_t palWaitLineTimeout(ioline_t line, sysinterval_t timeout) {
 800add0:	b508      	push	{r3, lr}
 800add2:	2320      	movs	r3, #32
 800add4:	f383 8811 	msr	BASEPRI, r3
  msg_t msg;

  osalSysLock();
  msg = palWaitLineTimeoutS(line, timeout);
 800add8:	f7ff f8e2 	bl	8009fa0 <palWaitLineTimeoutS>
 800addc:	2300      	movs	r3, #0
 800adde:	f383 8811 	msr	BASEPRI, r3
  osalSysUnlock();
  return msg;
}
 800ade2:	bd08      	pop	{r3, pc}
	...

0800adf0 <stGetCounter>:
  return (systime_t)STM32_ST_TIM->CNT;
 800adf0:	f04f 4380 	mov.w	r3, #1073741824	; 0x40000000
 800adf4:	6a58      	ldr	r0, [r3, #36]	; 0x24
 * @api
 */
systime_t stGetCounter(void) {

  return st_lld_get_counter();
}
 800adf6:	4770      	bx	lr
	...

0800ae00 <chVTDoResetI>:
 *
 * @param[in] vtp       the @p virtual_timer_t structure pointer
 *
 * @iclass
 */
void chVTDoResetI(virtual_timer_t *vtp) {
 800ae00:	b538      	push	{r3, r4, r5, lr}
#else /* CH_CFG_ST_TIMEDELTA > 0 */
  sysinterval_t nowdelta, delta;

  /* If the timer is not the first of the list then it is simply unlinked
     else the operation is more complex.*/
  if (ch.vtlist.next != vtp) {
 800ae02:	4b1e      	ldr	r3, [pc, #120]	; (800ae7c <chVTDoResetI+0x7c>)
 800ae04:	69db      	ldr	r3, [r3, #28]
 800ae06:	4283      	cmp	r3, r0
 800ae08:	d010      	beq.n	800ae2c <chVTDoResetI+0x2c>
    /* Removing the element from the delta list.*/
    vtp->prev->next = vtp->next;
 800ae0a:	6843      	ldr	r3, [r0, #4]
 800ae0c:	6802      	ldr	r2, [r0, #0]
 800ae0e:	601a      	str	r2, [r3, #0]
    vtp->next->prev = vtp->prev;
 800ae10:	6803      	ldr	r3, [r0, #0]
 800ae12:	6842      	ldr	r2, [r0, #4]
 800ae14:	605a      	str	r2, [r3, #4]
    vtp->func = NULL;
 800ae16:	2300      	movs	r3, #0
 800ae18:	60c3      	str	r3, [r0, #12]

    /* Adding delta to the next element, if it is not the last one.*/
    if (&ch.vtlist != (virtual_timers_list_t *)vtp->next)
 800ae1a:	6803      	ldr	r3, [r0, #0]
 800ae1c:	4a18      	ldr	r2, [pc, #96]	; (800ae80 <chVTDoResetI+0x80>)
 800ae1e:	4293      	cmp	r3, r2
 800ae20:	d003      	beq.n	800ae2a <chVTDoResetI+0x2a>
      vtp->next->delta += vtp->delta;
 800ae22:	6881      	ldr	r1, [r0, #8]
 800ae24:	689a      	ldr	r2, [r3, #8]
 800ae26:	440a      	add	r2, r1
 800ae28:	609a      	str	r2, [r3, #8]
    }
#endif
  }
  port_timer_set_alarm(chTimeAddX(ch.vtlist.lasttime, delta));
#endif /* CH_CFG_ST_TIMEDELTA > 0 */
}
 800ae2a:	bd38      	pop	{r3, r4, r5, pc}
  ch.vtlist.next = vtp->next;
 800ae2c:	6801      	ldr	r1, [r0, #0]
 800ae2e:	4a13      	ldr	r2, [pc, #76]	; (800ae7c <chVTDoResetI+0x7c>)
 800ae30:	4613      	mov	r3, r2
 800ae32:	f843 1f1c 	str.w	r1, [r3, #28]!
  ch.vtlist.next->prev = (virtual_timer_t *)&ch.vtlist;
 800ae36:	604b      	str	r3, [r1, #4]
  vtp->func = NULL;
 800ae38:	2100      	movs	r1, #0
 800ae3a:	60c1      	str	r1, [r0, #12]
  if (&ch.vtlist == (virtual_timers_list_t *)ch.vtlist.next) {
 800ae3c:	69d2      	ldr	r2, [r2, #28]
 800ae3e:	429a      	cmp	r2, r3
 800ae40:	d016      	beq.n	800ae70 <chVTDoResetI+0x70>
  ch.vtlist.next->delta += vtp->delta;
 800ae42:	6881      	ldr	r1, [r0, #8]
 800ae44:	6893      	ldr	r3, [r2, #8]
 800ae46:	440b      	add	r3, r1
 800ae48:	6093      	str	r3, [r2, #8]
  nowdelta = chTimeDiffX(ch.vtlist.lasttime, chVTGetSystemTimeX());
 800ae4a:	4d0c      	ldr	r5, [pc, #48]	; (800ae7c <chVTDoResetI+0x7c>)
 800ae4c:	6aac      	ldr	r4, [r5, #40]	; 0x28
 800ae4e:	f7ff ffcf 	bl	800adf0 <stGetCounter>
  return (sysinterval_t)((systime_t)(end - start));
 800ae52:	1b02      	subs	r2, r0, r4
  if (nowdelta >= ch.vtlist.next->delta) {
 800ae54:	69eb      	ldr	r3, [r5, #28]
 800ae56:	689b      	ldr	r3, [r3, #8]
 800ae58:	4293      	cmp	r3, r2
 800ae5a:	d9e6      	bls.n	800ae2a <chVTDoResetI+0x2a>
  delta = ch.vtlist.next->delta - nowdelta;
 800ae5c:	1a24      	subs	r4, r4, r0
 800ae5e:	441c      	add	r4, r3
  if (delta < (sysinterval_t)CH_CFG_ST_TIMEDELTA) {
 800ae60:	2c01      	cmp	r4, #1
 800ae62:	d908      	bls.n	800ae76 <chVTDoResetI+0x76>
  port_timer_set_alarm(chTimeAddX(ch.vtlist.lasttime, delta));
 800ae64:	4a05      	ldr	r2, [pc, #20]	; (800ae7c <chVTDoResetI+0x7c>)
 800ae66:	6a90      	ldr	r0, [r2, #40]	; 0x28
  stSetAlarm(time);
 800ae68:	4418      	add	r0, r3
 800ae6a:	f7fe ff99 	bl	8009da0 <stSetAlarm>
 800ae6e:	e7dc      	b.n	800ae2a <chVTDoResetI+0x2a>
  stStopAlarm();
 800ae70:	f7fe ff9e 	bl	8009db0 <stStopAlarm>
    return;
 800ae74:	e7d9      	b.n	800ae2a <chVTDoResetI+0x2a>
    delta = nowdelta + (sysinterval_t)CH_CFG_ST_TIMEDELTA;
 800ae76:	1c93      	adds	r3, r2, #2
 800ae78:	e7f4      	b.n	800ae64 <chVTDoResetI+0x64>
 800ae7a:	bf00      	nop
 800ae7c:	20001040 	.word	0x20001040
 800ae80:	2000105c 	.word	0x2000105c
	...

0800ae90 <chVTDoSetI>:
                vtfunc_t vtfunc, void *par) {
 800ae90:	b5f8      	push	{r3, r4, r5, r6, r7, lr}
 800ae92:	4606      	mov	r6, r0
 800ae94:	460f      	mov	r7, r1
  vtp->par = par;
 800ae96:	6103      	str	r3, [r0, #16]
  vtp->func = vtfunc;
 800ae98:	60c2      	str	r2, [r0, #12]
  return stGetCounter();
 800ae9a:	f7ff ffa9 	bl	800adf0 <stGetCounter>
 800ae9e:	4604      	mov	r4, r0
    if (delay < (sysinterval_t)CH_CFG_ST_TIMEDELTA) {
 800aea0:	2f01      	cmp	r7, #1
 800aea2:	d90d      	bls.n	800aec0 <chVTDoSetI+0x30>
    if (&ch.vtlist == (virtual_timers_list_t *)ch.vtlist.next) {
 800aea4:	4b1b      	ldr	r3, [pc, #108]	; (800af14 <chVTDoSetI+0x84>)
 800aea6:	f853 5f1c 	ldr.w	r5, [r3, #28]!
 800aeaa:	429d      	cmp	r5, r3
 800aeac:	d00a      	beq.n	800aec4 <chVTDoSetI+0x34>
    delta = chTimeDiffX(ch.vtlist.lasttime, now) + delay;
 800aeae:	4b19      	ldr	r3, [pc, #100]	; (800af14 <chVTDoSetI+0x84>)
 800aeb0:	6a98      	ldr	r0, [r3, #40]	; 0x28
 800aeb2:	1a24      	subs	r4, r4, r0
    if (delta < chTimeDiffX(ch.vtlist.lasttime, now)) {
 800aeb4:	193c      	adds	r4, r7, r4
 800aeb6:	d313      	bcc.n	800aee0 <chVTDoSetI+0x50>
      delta -= p->delta;
 800aeb8:	68ab      	ldr	r3, [r5, #8]
 800aeba:	1ae4      	subs	r4, r4, r3
      p = p->next;
 800aebc:	682d      	ldr	r5, [r5, #0]
 800aebe:	e018      	b.n	800aef2 <chVTDoSetI+0x62>
      delay = (sysinterval_t)CH_CFG_ST_TIMEDELTA;
 800aec0:	2702      	movs	r7, #2
 800aec2:	e7ef      	b.n	800aea4 <chVTDoSetI+0x14>
      ch.vtlist.lasttime = now;
 800aec4:	4b13      	ldr	r3, [pc, #76]	; (800af14 <chVTDoSetI+0x84>)
 800aec6:	629c      	str	r4, [r3, #40]	; 0x28
      ch.vtlist.next = vtp;
 800aec8:	61de      	str	r6, [r3, #28]
      ch.vtlist.prev = vtp;
 800aeca:	621e      	str	r6, [r3, #32]
      vtp->next = (virtual_timer_t *)&ch.vtlist;
 800aecc:	f103 021c 	add.w	r2, r3, #28
 800aed0:	6032      	str	r2, [r6, #0]
      vtp->prev = (virtual_timer_t *)&ch.vtlist;
 800aed2:	6072      	str	r2, [r6, #4]
      vtp->delta = delay;
 800aed4:	60b7      	str	r7, [r6, #8]
      port_timer_start_alarm(chTimeAddX(ch.vtlist.lasttime, delay));
 800aed6:	6a98      	ldr	r0, [r3, #40]	; 0x28
  stStartAlarm(time);
 800aed8:	4438      	add	r0, r7
 800aeda:	f7fe ff71 	bl	8009dc0 <stStartAlarm>
      return;
 800aede:	e018      	b.n	800af12 <chVTDoSetI+0x82>
    else if (delta < p->delta) {
 800aee0:	68ab      	ldr	r3, [r5, #8]
 800aee2:	42a3      	cmp	r3, r4
 800aee4:	d905      	bls.n	800aef2 <chVTDoSetI+0x62>
  stSetAlarm(time);
 800aee6:	4420      	add	r0, r4
 800aee8:	f7fe ff5a 	bl	8009da0 <stSetAlarm>
 800aeec:	e001      	b.n	800aef2 <chVTDoSetI+0x62>
    delta -= p->delta;
 800aeee:	1ae4      	subs	r4, r4, r3
    p = p->next;
 800aef0:	682d      	ldr	r5, [r5, #0]
  while (p->delta < delta) {
 800aef2:	68ab      	ldr	r3, [r5, #8]
 800aef4:	42a3      	cmp	r3, r4
 800aef6:	d3fa      	bcc.n	800aeee <chVTDoSetI+0x5e>
  vtp->next = p;
 800aef8:	6035      	str	r5, [r6, #0]
  vtp->prev = vtp->next->prev;
 800aefa:	686b      	ldr	r3, [r5, #4]
 800aefc:	6073      	str	r3, [r6, #4]
  vtp->prev->next = vtp;
 800aefe:	601e      	str	r6, [r3, #0]
  p->prev = vtp;
 800af00:	606e      	str	r6, [r5, #4]
  vtp->delta = delta;
 800af02:	60b4      	str	r4, [r6, #8]
  p->delta -= delta;
 800af04:	68ab      	ldr	r3, [r5, #8]
 800af06:	1b1c      	subs	r4, r3, r4
 800af08:	60ac      	str	r4, [r5, #8]
  ch.vtlist.delta = (sysinterval_t)-1;
 800af0a:	4b02      	ldr	r3, [pc, #8]	; (800af14 <chVTDoSetI+0x84>)
 800af0c:	f04f 32ff 	mov.w	r2, #4294967295	; 0xffffffff
 800af10:	625a      	str	r2, [r3, #36]	; 0x24
}
 800af12:	bdf8      	pop	{r3, r4, r5, r6, r7, pc}
 800af14:	20001040 	.word	0x20001040
	...

0800af20 <chSchGoSleepTimeoutS>:
msg_t chSchGoSleepTimeoutS(tstate_t newstate, sysinterval_t timeout) {
 800af20:	b510      	push	{r4, lr}
 800af22:	b086      	sub	sp, #24
 800af24:	4604      	mov	r4, r0
  if (TIME_INFINITE != timeout) {
 800af26:	f1b1 3fff 	cmp.w	r1, #4294967295	; 0xffffffff
 800af2a:	d012      	beq.n	800af52 <chSchGoSleepTimeoutS+0x32>
    chVTDoSetI(&vt, timeout, wakeup, currp);
 800af2c:	4b0a      	ldr	r3, [pc, #40]	; (800af58 <chSchGoSleepTimeoutS+0x38>)
 800af2e:	699b      	ldr	r3, [r3, #24]
 800af30:	4a0a      	ldr	r2, [pc, #40]	; (800af5c <chSchGoSleepTimeoutS+0x3c>)
 800af32:	a801      	add	r0, sp, #4
 800af34:	f7ff ffac 	bl	800ae90 <chVTDoSetI>
    chSchGoSleepS(newstate);
 800af38:	4620      	mov	r0, r4
 800af3a:	f7ff fab9 	bl	800a4b0 <chSchGoSleepS>
 800af3e:	9b04      	ldr	r3, [sp, #16]
    if (chVTIsArmedI(&vt)) {
 800af40:	b113      	cbz	r3, 800af48 <chSchGoSleepTimeoutS+0x28>
      chVTDoResetI(&vt);
 800af42:	a801      	add	r0, sp, #4
 800af44:	f7ff ff5c 	bl	800ae00 <chVTDoResetI>
  return currp->u.rdymsg;
 800af48:	4b03      	ldr	r3, [pc, #12]	; (800af58 <chSchGoSleepTimeoutS+0x38>)
 800af4a:	699b      	ldr	r3, [r3, #24]
}
 800af4c:	6a58      	ldr	r0, [r3, #36]	; 0x24
 800af4e:	b006      	add	sp, #24
 800af50:	bd10      	pop	{r4, pc}
    chSchGoSleepS(newstate);
 800af52:	f7ff faad 	bl	800a4b0 <chSchGoSleepS>
 800af56:	e7f7      	b.n	800af48 <chSchGoSleepTimeoutS+0x28>
 800af58:	20001040 	.word	0x20001040
 800af5c:	0800a581 	.word	0x0800a581

0800af60 <chSysTimerHandlerI>:
void chSysTimerHandlerI(void) {
 800af60:	b570      	push	{r4, r5, r6, lr}
  virtual_timer_t *vtp;
  systime_t now;
  sysinterval_t delta, nowdelta;

  /* Looping through timers.*/
  vtp = ch.vtlist.next;
 800af62:	4b22      	ldr	r3, [pc, #136]	; (800afec <chSysTimerHandlerI+0x8c>)
 800af64:	69dc      	ldr	r4, [r3, #28]
  return stGetCounter();
 800af66:	f7ff ff43 	bl	800adf0 <stGetCounter>
  while (true) {

    /* Getting the system time as reference.*/
    now = chVTGetSystemTimeX();
    nowdelta = chTimeDiffX(ch.vtlist.lasttime, now);
 800af6a:	4b20      	ldr	r3, [pc, #128]	; (800afec <chSysTimerHandlerI+0x8c>)
 800af6c:	6a9b      	ldr	r3, [r3, #40]	; 0x28
 800af6e:	1ac5      	subs	r5, r0, r3

    /* The list scan is limited by the timers header having
       "ch.vtlist.vt_delta == (sysinterval_t)-1" which is
       greater than all deltas.*/
    if (nowdelta < vtp->delta) {
 800af70:	68a2      	ldr	r2, [r4, #8]
 800af72:	4295      	cmp	r5, r2
 800af74:	d223      	bcs.n	800afbe <chSysTimerHandlerI+0x5e>
    }
    while (vtp->delta <= nowdelta);
  }

  /* If the list is empty, nothing else to do.*/
  if (ch.vtlist.next == (virtual_timer_t *)&ch.vtlist) {
 800af76:	4a1d      	ldr	r2, [pc, #116]	; (800afec <chSysTimerHandlerI+0x8c>)
 800af78:	f852 1f1c 	ldr.w	r1, [r2, #28]!
 800af7c:	4291      	cmp	r1, r2
 800af7e:	d00e      	beq.n	800af9e <chSysTimerHandlerI+0x3e>
    return;
  }

  /* The "unprocessed nowdelta" time slice is added to "last time"
     and subtracted to next timer's delta.*/
  ch.vtlist.lasttime += nowdelta;
 800af80:	4d1a      	ldr	r5, [pc, #104]	; (800afec <chSysTimerHandlerI+0x8c>)
 800af82:	62a8      	str	r0, [r5, #40]	; 0x28
  ch.vtlist.next->delta -= nowdelta;
 800af84:	1a1b      	subs	r3, r3, r0
 800af86:	688a      	ldr	r2, [r1, #8]
 800af88:	4413      	add	r3, r2
 800af8a:	608b      	str	r3, [r1, #8]

  /* Recalculating the next alarm time.*/
  delta = vtp->delta - chTimeDiffX(ch.vtlist.lasttime, now);
 800af8c:	68a2      	ldr	r2, [r4, #8]
 800af8e:	6aab      	ldr	r3, [r5, #40]	; 0x28
 800af90:	1a1b      	subs	r3, r3, r0
 800af92:	4413      	add	r3, r2
  if (delta < (sysinterval_t)CH_CFG_ST_TIMEDELTA) {
 800af94:	2b01      	cmp	r3, #1
 800af96:	d926      	bls.n	800afe6 <chSysTimerHandlerI+0x86>
  stSetAlarm(time);
 800af98:	4418      	add	r0, r3
 800af9a:	f7fe ff01 	bl	8009da0 <stSetAlarm>
}
 800af9e:	bd70      	pop	{r4, r5, r6, pc}
  stStopAlarm();
 800afa0:	f7fe ff06 	bl	8009db0 <stStopAlarm>
 800afa4:	2300      	movs	r3, #0
 800afa6:	f383 8811 	msr	BASEPRI, r3
      fn(vtp->par);
 800afaa:	6920      	ldr	r0, [r4, #16]
 800afac:	47b0      	blx	r6
 800afae:	2320      	movs	r3, #32
 800afb0:	f383 8811 	msr	BASEPRI, r3
      vtp = ch.vtlist.next;
 800afb4:	4b0d      	ldr	r3, [pc, #52]	; (800afec <chSysTimerHandlerI+0x8c>)
 800afb6:	69dc      	ldr	r4, [r3, #28]
    while (vtp->delta <= nowdelta);
 800afb8:	68a3      	ldr	r3, [r4, #8]
 800afba:	429d      	cmp	r5, r3
 800afbc:	d3d3      	bcc.n	800af66 <chSysTimerHandlerI+0x6>
      ch.vtlist.lasttime += vtp->delta;
 800afbe:	68a1      	ldr	r1, [r4, #8]
 800afc0:	4b0a      	ldr	r3, [pc, #40]	; (800afec <chSysTimerHandlerI+0x8c>)
 800afc2:	6a9a      	ldr	r2, [r3, #40]	; 0x28
 800afc4:	440a      	add	r2, r1
 800afc6:	629a      	str	r2, [r3, #40]	; 0x28
      nowdelta -= vtp->delta;
 800afc8:	68a2      	ldr	r2, [r4, #8]
 800afca:	1aad      	subs	r5, r5, r2
      vtp->next->prev = (virtual_timer_t *)&ch.vtlist;
 800afcc:	6821      	ldr	r1, [r4, #0]
 800afce:	f103 021c 	add.w	r2, r3, #28
 800afd2:	604a      	str	r2, [r1, #4]
      ch.vtlist.next = vtp->next;
 800afd4:	6821      	ldr	r1, [r4, #0]
 800afd6:	61d9      	str	r1, [r3, #28]
      fn = vtp->func;
 800afd8:	68e6      	ldr	r6, [r4, #12]
      vtp->func = NULL;
 800afda:	2100      	movs	r1, #0
 800afdc:	60e1      	str	r1, [r4, #12]
      if (ch.vtlist.next == (virtual_timer_t *)&ch.vtlist) {
 800afde:	69db      	ldr	r3, [r3, #28]
 800afe0:	4293      	cmp	r3, r2
 800afe2:	d1df      	bne.n	800afa4 <chSysTimerHandlerI+0x44>
 800afe4:	e7dc      	b.n	800afa0 <chSysTimerHandlerI+0x40>
    delta = (sysinterval_t)CH_CFG_ST_TIMEDELTA;
 800afe6:	2302      	movs	r3, #2
 800afe8:	e7d6      	b.n	800af98 <chSysTimerHandlerI+0x38>
 800afea:	bf00      	nop
 800afec:	20001040 	.word	0x20001040

0800aff0 <st_lld_serve_interrupt>:

/**
 * @brief   IRQ handling code.
 */
void st_lld_serve_interrupt(void) {
 800aff0:	b508      	push	{r3, lr}
#if OSAL_ST_MODE == OSAL_ST_MODE_FREERUNNING
  uint32_t sr;
  stm32_tim_t *timp = STM32_ST_TIM;

  sr  = timp->SR;
 800aff2:	f04f 4280 	mov.w	r2, #1073741824	; 0x40000000
 800aff6:	6913      	ldr	r3, [r2, #16]
  sr &= timp->DIER & STM32_TIM_DIER_IRQ_MASK;
 800aff8:	68d1      	ldr	r1, [r2, #12]
 800affa:	b2c9      	uxtb	r1, r1
 800affc:	400b      	ands	r3, r1
  timp->SR = ~sr;
 800affe:	43d9      	mvns	r1, r3
 800b000:	6111      	str	r1, [r2, #16]

  if ((sr & TIM_SR_CC1IF) != 0U)
 800b002:	f013 0f02 	tst.w	r3, #2
 800b006:	d100      	bne.n	800b00a <st_lld_serve_interrupt+0x1a>
      st_callbacks[2](3U);
    }
  }
#endif
#endif
}
 800b008:	bd08      	pop	{r3, pc}
 800b00a:	2320      	movs	r3, #32
 800b00c:	f383 8811 	msr	BASEPRI, r3
  chSysTimerHandlerI();
 800b010:	f7ff ffa6 	bl	800af60 <chSysTimerHandlerI>
 800b014:	2300      	movs	r3, #0
 800b016:	f383 8811 	msr	BASEPRI, r3
 800b01a:	e7f5      	b.n	800b008 <st_lld_serve_interrupt+0x18>
 800b01c:	0000      	movs	r0, r0
	...

0800b020 <VectorB0>:
OSAL_IRQ_HANDLER(ST_HANDLER) {
 800b020:	b508      	push	{r3, lr}
  st_lld_serve_interrupt();
 800b022:	f7ff ffe5 	bl	800aff0 <st_lld_serve_interrupt>
  OSAL_IRQ_EPILOGUE();
 800b026:	f7fa fd83 	bl	8005b30 <_port_irq_epilogue>
}
 800b02a:	bd08      	pop	{r3, pc}
 800b02c:	0000      	movs	r0, r0
	...

0800b030 <halInit>:
 *          board-specific initialization is performed by invoking
 *          @p boardInit() (usually defined in @p board.c).
 *
 * @init
 */
void halInit(void) {
 800b030:	b508      	push	{r3, lr}

  /* Initializes the OS Abstraction Layer.*/
  osalInit();

  /* Platform low level initializations.*/
  hal_lld_init();
 800b032:	f7fe fe1d 	bl	8009c70 <hal_lld_init>

#if (HAL_USE_PAL == TRUE) || defined(__DOXYGEN__)
#if defined(PAL_NEW_INIT)
  palInit();
 800b036:	f7fe fb6b 	bl	8009710 <_pal_lld_init>
#endif
#if (HAL_USE_PWM == TRUE) || defined(__DOXYGEN__)
  pwmInit();
#endif
#if (HAL_USE_SERIAL == TRUE) || defined(__DOXYGEN__)
  sdInit();
 800b03a:	f7fe fea9 	bl	8009d90 <sdInit>
#endif
#if (HAL_USE_SDC == TRUE) || defined(__DOXYGEN__)
  sdcInit();
#endif
#if (HAL_USE_SPI == TRUE) || defined(__DOXYGEN__)
  spiInit();
 800b03e:	f7fe ffa7 	bl	8009f90 <spiInit>
/*
 *  The ST driver is a special case, it is only initialized if the OSAL is
 *  configured to require it.
 */
#if OSAL_ST_MODE != OSAL_ST_MODE_NONE
  stInit();
 800b042:	f7fe fec5 	bl	8009dd0 <stInit>
#endif
}
 800b046:	bd08      	pop	{r3, pc}
	...

0800b050 <__init_ram_areas>:
/**
 * @brief   Performs the initialization of the various RAM areas.
 */
void __init_ram_areas(void) {
#if CRT1_AREAS_NUMBER > 0
  const ram_init_area_t *rap = ram_areas;
 800b050:	4a0b      	ldr	r2, [pc, #44]	; (800b080 <__init_ram_areas+0x30>)
 800b052:	e009      	b.n	800b068 <__init_ram_areas+0x18>
      tp++;
    }

    /* Zeroing clear area.*/
    while (p < rap->no_init_area) {
      *p = 0;
 800b054:	2100      	movs	r1, #0
 800b056:	f843 1b04 	str.w	r1, [r3], #4
    while (p < rap->no_init_area) {
 800b05a:	68d1      	ldr	r1, [r2, #12]
 800b05c:	4299      	cmp	r1, r3
 800b05e:	d8f9      	bhi.n	800b054 <__init_ram_areas+0x4>
      p++;
    }
    rap++;
 800b060:	3210      	adds	r2, #16
  }
  while (rap < &ram_areas[CRT1_AREAS_NUMBER]);
 800b062:	4b08      	ldr	r3, [pc, #32]	; (800b084 <__init_ram_areas+0x34>)
 800b064:	429a      	cmp	r2, r3
 800b066:	d209      	bcs.n	800b07c <__init_ram_areas+0x2c>
    uint32_t *tp = rap->init_text_area;
 800b068:	6810      	ldr	r0, [r2, #0]
    uint32_t *p = rap->init_area;
 800b06a:	6853      	ldr	r3, [r2, #4]
    while (p < rap->clear_area) {
 800b06c:	6891      	ldr	r1, [r2, #8]
 800b06e:	4299      	cmp	r1, r3
 800b070:	d9f3      	bls.n	800b05a <__init_ram_areas+0xa>
      *p = *tp;
 800b072:	f850 1b04 	ldr.w	r1, [r0], #4
 800b076:	f843 1b04 	str.w	r1, [r3], #4
      tp++;
 800b07a:	e7f7      	b.n	800b06c <__init_ram_areas+0x1c>
#endif
}
 800b07c:	4770      	bx	lr
 800b07e:	bf00      	nop
 800b080:	0800e238 	.word	0x0800e238
 800b084:	0800e2b8 	.word	0x0800e2b8
	...

0800b090 <__default_exit>:
  while (true) {
 800b090:	e7fe      	b.n	800b090 <__default_exit>
 800b092:	bf00      	nop
	...

0800b0a0 <__late_init>:
void __late_init(void) {}
 800b0a0:	4770      	bx	lr
 800b0a2:	bf00      	nop
	...

0800b0b0 <__core_init>:
}
 800b0b0:	4770      	bx	lr
 800b0b2:	bf00      	nop

0800b0b4 <_strtoul_l.isra.0>:
 800b0b4:	e92d 47f0 	stmdb	sp!, {r4, r5, r6, r7, r8, r9, sl, lr}
 800b0b8:	4d4b      	ldr	r5, [pc, #300]	; (800b1e8 <_strtoul_l.isra.0+0x134>)
 800b0ba:	4686      	mov	lr, r0
 800b0bc:	468c      	mov	ip, r1
 800b0be:	4660      	mov	r0, ip
 800b0c0:	f81c 4b01 	ldrb.w	r4, [ip], #1
 800b0c4:	5d2e      	ldrb	r6, [r5, r4]
 800b0c6:	f016 0608 	ands.w	r6, r6, #8
 800b0ca:	d1f8      	bne.n	800b0be <_strtoul_l.isra.0+0xa>
 800b0cc:	2c2d      	cmp	r4, #45	; 0x2d
 800b0ce:	d057      	beq.n	800b180 <_strtoul_l.isra.0+0xcc>
 800b0d0:	2c2b      	cmp	r4, #43	; 0x2b
 800b0d2:	bf0a      	itet	eq
 800b0d4:	f89c 5000 	ldrbeq.w	r5, [ip]
 800b0d8:	4625      	movne	r5, r4
 800b0da:	f100 0c02 	addeq.w	ip, r0, #2
 800b0de:	b15b      	cbz	r3, 800b0f8 <_strtoul_l.isra.0+0x44>
 800b0e0:	2b10      	cmp	r3, #16
 800b0e2:	d053      	beq.n	800b18c <_strtoul_l.isra.0+0xd8>
 800b0e4:	f04f 38ff 	mov.w	r8, #4294967295	; 0xffffffff
 800b0e8:	fbb8 f8f3 	udiv	r8, r8, r3
 800b0ec:	fb03 fa08 	mul.w	sl, r3, r8
 800b0f0:	ea6f 0a0a 	mvn.w	sl, sl
 800b0f4:	4699      	mov	r9, r3
 800b0f6:	e007      	b.n	800b108 <_strtoul_l.isra.0+0x54>
 800b0f8:	2d30      	cmp	r5, #48	; 0x30
 800b0fa:	d05b      	beq.n	800b1b4 <_strtoul_l.isra.0+0x100>
 800b0fc:	230a      	movs	r3, #10
 800b0fe:	f8df 80ec 	ldr.w	r8, [pc, #236]	; 800b1ec <_strtoul_l.isra.0+0x138>
 800b102:	4699      	mov	r9, r3
 800b104:	f04f 0a05 	mov.w	sl, #5
 800b108:	2700      	movs	r7, #0
 800b10a:	4638      	mov	r0, r7
 800b10c:	e007      	b.n	800b11e <_strtoul_l.isra.0+0x6a>
 800b10e:	4540      	cmp	r0, r8
 800b110:	d813      	bhi.n	800b13a <_strtoul_l.isra.0+0x86>
 800b112:	d026      	beq.n	800b162 <_strtoul_l.isra.0+0xae>
 800b114:	fb09 4000 	mla	r0, r9, r0, r4
 800b118:	2701      	movs	r7, #1
 800b11a:	f81c 5b01 	ldrb.w	r5, [ip], #1
 800b11e:	f1a5 0430 	sub.w	r4, r5, #48	; 0x30
 800b122:	2c09      	cmp	r4, #9
 800b124:	d905      	bls.n	800b132 <_strtoul_l.isra.0+0x7e>
 800b126:	f1a5 0441 	sub.w	r4, r5, #65	; 0x41
 800b12a:	2c19      	cmp	r4, #25
 800b12c:	d808      	bhi.n	800b140 <_strtoul_l.isra.0+0x8c>
 800b12e:	f1a5 0437 	sub.w	r4, r5, #55	; 0x37
 800b132:	42a3      	cmp	r3, r4
 800b134:	dd0c      	ble.n	800b150 <_strtoul_l.isra.0+0x9c>
 800b136:	2f00      	cmp	r7, #0
 800b138:	dae9      	bge.n	800b10e <_strtoul_l.isra.0+0x5a>
 800b13a:	f04f 37ff 	mov.w	r7, #4294967295	; 0xffffffff
 800b13e:	e7ec      	b.n	800b11a <_strtoul_l.isra.0+0x66>
 800b140:	f1a5 0461 	sub.w	r4, r5, #97	; 0x61
 800b144:	2c19      	cmp	r4, #25
 800b146:	d803      	bhi.n	800b150 <_strtoul_l.isra.0+0x9c>
 800b148:	f1a5 0457 	sub.w	r4, r5, #87	; 0x57
 800b14c:	42a3      	cmp	r3, r4
 800b14e:	dcf2      	bgt.n	800b136 <_strtoul_l.isra.0+0x82>
 800b150:	2f00      	cmp	r7, #0
 800b152:	db0b      	blt.n	800b16c <_strtoul_l.isra.0+0xb8>
 800b154:	b106      	cbz	r6, 800b158 <_strtoul_l.isra.0+0xa4>
 800b156:	4240      	negs	r0, r0
 800b158:	b10a      	cbz	r2, 800b15e <_strtoul_l.isra.0+0xaa>
 800b15a:	b977      	cbnz	r7, 800b17a <_strtoul_l.isra.0+0xc6>
 800b15c:	6011      	str	r1, [r2, #0]
 800b15e:	e8bd 87f0 	ldmia.w	sp!, {r4, r5, r6, r7, r8, r9, sl, pc}
 800b162:	4554      	cmp	r4, sl
 800b164:	ddd6      	ble.n	800b114 <_strtoul_l.isra.0+0x60>
 800b166:	f04f 37ff 	mov.w	r7, #4294967295	; 0xffffffff
 800b16a:	e7d6      	b.n	800b11a <_strtoul_l.isra.0+0x66>
 800b16c:	2322      	movs	r3, #34	; 0x22
 800b16e:	f8ce 3000 	str.w	r3, [lr]
 800b172:	f04f 30ff 	mov.w	r0, #4294967295	; 0xffffffff
 800b176:	2a00      	cmp	r2, #0
 800b178:	d0f1      	beq.n	800b15e <_strtoul_l.isra.0+0xaa>
 800b17a:	f10c 31ff 	add.w	r1, ip, #4294967295	; 0xffffffff
 800b17e:	e7ed      	b.n	800b15c <_strtoul_l.isra.0+0xa8>
 800b180:	f89c 5000 	ldrb.w	r5, [ip]
 800b184:	2601      	movs	r6, #1
 800b186:	f100 0c02 	add.w	ip, r0, #2
 800b18a:	e7a8      	b.n	800b0de <_strtoul_l.isra.0+0x2a>
 800b18c:	2d30      	cmp	r5, #48	; 0x30
 800b18e:	d124      	bne.n	800b1da <_strtoul_l.isra.0+0x126>
 800b190:	f89c 0000 	ldrb.w	r0, [ip]
 800b194:	f000 00df 	and.w	r0, r0, #223	; 0xdf
 800b198:	2858      	cmp	r0, #88	; 0x58
 800b19a:	d118      	bne.n	800b1ce <_strtoul_l.isra.0+0x11a>
 800b19c:	f04f 0910 	mov.w	r9, #16
 800b1a0:	f89c 5001 	ldrb.w	r5, [ip, #1]
 800b1a4:	464b      	mov	r3, r9
 800b1a6:	f04f 0a0f 	mov.w	sl, #15
 800b1aa:	f10c 0c02 	add.w	ip, ip, #2
 800b1ae:	f06f 4870 	mvn.w	r8, #4026531840	; 0xf0000000
 800b1b2:	e7a9      	b.n	800b108 <_strtoul_l.isra.0+0x54>
 800b1b4:	f89c 3000 	ldrb.w	r3, [ip]
 800b1b8:	f003 03df 	and.w	r3, r3, #223	; 0xdf
 800b1bc:	2b58      	cmp	r3, #88	; 0x58
 800b1be:	d0ed      	beq.n	800b19c <_strtoul_l.isra.0+0xe8>
 800b1c0:	2308      	movs	r3, #8
 800b1c2:	4699      	mov	r9, r3
 800b1c4:	f04f 0a07 	mov.w	sl, #7
 800b1c8:	f06f 4860 	mvn.w	r8, #3758096384	; 0xe0000000
 800b1cc:	e79c      	b.n	800b108 <_strtoul_l.isra.0+0x54>
 800b1ce:	4699      	mov	r9, r3
 800b1d0:	f06f 4870 	mvn.w	r8, #4026531840	; 0xf0000000
 800b1d4:	f04f 0a0f 	mov.w	sl, #15
 800b1d8:	e796      	b.n	800b108 <_strtoul_l.isra.0+0x54>
 800b1da:	f04f 0a0f 	mov.w	sl, #15
 800b1de:	f06f 4870 	mvn.w	r8, #4026531840	; 0xf0000000
 800b1e2:	4699      	mov	r9, r3
 800b1e4:	e790      	b.n	800b108 <_strtoul_l.isra.0+0x54>
 800b1e6:	bf00      	nop
 800b1e8:	0800e2e1 	.word	0x0800e2e1
 800b1ec:	19999999 	.word	0x19999999

0800b1f0 <strtoul>:
 800b1f0:	b430      	push	{r4, r5}
 800b1f2:	4c04      	ldr	r4, [pc, #16]	; (800b204 <strtoul+0x14>)
 800b1f4:	460d      	mov	r5, r1
 800b1f6:	4613      	mov	r3, r2
 800b1f8:	4601      	mov	r1, r0
 800b1fa:	462a      	mov	r2, r5
 800b1fc:	6820      	ldr	r0, [r4, #0]
 800b1fe:	bc30      	pop	{r4, r5}
 800b200:	f7ff bf58 	b.w	800b0b4 <_strtoul_l.isra.0>
 800b204:	20000ae0 	.word	0x20000ae0

0800b208 <memcmp>:
 800b208:	2a03      	cmp	r2, #3
 800b20a:	b470      	push	{r4, r5, r6}
 800b20c:	d912      	bls.n	800b234 <memcmp+0x2c>
 800b20e:	ea40 0501 	orr.w	r5, r0, r1
 800b212:	07ad      	lsls	r5, r5, #30
 800b214:	4604      	mov	r4, r0
 800b216:	460b      	mov	r3, r1
 800b218:	d11e      	bne.n	800b258 <memcmp+0x50>
 800b21a:	4619      	mov	r1, r3
 800b21c:	4620      	mov	r0, r4
 800b21e:	f853 5b04 	ldr.w	r5, [r3], #4
 800b222:	f854 6b04 	ldr.w	r6, [r4], #4
 800b226:	42ae      	cmp	r6, r5
 800b228:	d116      	bne.n	800b258 <memcmp+0x50>
 800b22a:	3a04      	subs	r2, #4
 800b22c:	2a03      	cmp	r2, #3
 800b22e:	4620      	mov	r0, r4
 800b230:	4619      	mov	r1, r3
 800b232:	d8f2      	bhi.n	800b21a <memcmp+0x12>
 800b234:	1e56      	subs	r6, r2, #1
 800b236:	b1a2      	cbz	r2, 800b262 <memcmp+0x5a>
 800b238:	3901      	subs	r1, #1
 800b23a:	1e44      	subs	r4, r0, #1
 800b23c:	e001      	b.n	800b242 <memcmp+0x3a>
 800b23e:	18c3      	adds	r3, r0, r3
 800b240:	d00c      	beq.n	800b25c <memcmp+0x54>
 800b242:	f814 5f01 	ldrb.w	r5, [r4, #1]!
 800b246:	f811 2f01 	ldrb.w	r2, [r1, #1]!
 800b24a:	4295      	cmp	r5, r2
 800b24c:	eba6 0304 	sub.w	r3, r6, r4
 800b250:	d0f5      	beq.n	800b23e <memcmp+0x36>
 800b252:	1aa8      	subs	r0, r5, r2
 800b254:	bc70      	pop	{r4, r5, r6}
 800b256:	4770      	bx	lr
 800b258:	1e56      	subs	r6, r2, #1
 800b25a:	e7ed      	b.n	800b238 <memcmp+0x30>
 800b25c:	4618      	mov	r0, r3
 800b25e:	bc70      	pop	{r4, r5, r6}
 800b260:	4770      	bx	lr
 800b262:	4610      	mov	r0, r2
 800b264:	e7f6      	b.n	800b254 <memcmp+0x4c>
 800b266:	bf00      	nop

0800b268 <memset>:
 800b268:	b4f0      	push	{r4, r5, r6, r7}
 800b26a:	0786      	lsls	r6, r0, #30
 800b26c:	d046      	beq.n	800b2fc <memset+0x94>
 800b26e:	1e54      	subs	r4, r2, #1
 800b270:	2a00      	cmp	r2, #0
 800b272:	d03c      	beq.n	800b2ee <memset+0x86>
 800b274:	b2ca      	uxtb	r2, r1
 800b276:	4603      	mov	r3, r0
 800b278:	e001      	b.n	800b27e <memset+0x16>
 800b27a:	3c01      	subs	r4, #1
 800b27c:	d337      	bcc.n	800b2ee <memset+0x86>
 800b27e:	f803 2b01 	strb.w	r2, [r3], #1
 800b282:	079d      	lsls	r5, r3, #30
 800b284:	d1f9      	bne.n	800b27a <memset+0x12>
 800b286:	2c03      	cmp	r4, #3
 800b288:	d92a      	bls.n	800b2e0 <memset+0x78>
 800b28a:	b2cd      	uxtb	r5, r1
 800b28c:	ea45 2505 	orr.w	r5, r5, r5, lsl #8
 800b290:	2c0f      	cmp	r4, #15
 800b292:	ea45 4505 	orr.w	r5, r5, r5, lsl #16
 800b296:	d934      	bls.n	800b302 <memset+0x9a>
 800b298:	f1a4 0210 	sub.w	r2, r4, #16
 800b29c:	f022 0c0f 	bic.w	ip, r2, #15
 800b2a0:	f103 0720 	add.w	r7, r3, #32
 800b2a4:	0916      	lsrs	r6, r2, #4
 800b2a6:	4467      	add	r7, ip
 800b2a8:	f103 0210 	add.w	r2, r3, #16
 800b2ac:	e942 5504 	strd	r5, r5, [r2, #-16]
 800b2b0:	e942 5502 	strd	r5, r5, [r2, #-8]
 800b2b4:	3210      	adds	r2, #16
 800b2b6:	42ba      	cmp	r2, r7
 800b2b8:	d1f8      	bne.n	800b2ac <memset+0x44>
 800b2ba:	1c72      	adds	r2, r6, #1
 800b2bc:	f014 0f0c 	tst.w	r4, #12
 800b2c0:	eb03 1202 	add.w	r2, r3, r2, lsl #4
 800b2c4:	f004 060f 	and.w	r6, r4, #15
 800b2c8:	d013      	beq.n	800b2f2 <memset+0x8a>
 800b2ca:	1f33      	subs	r3, r6, #4
 800b2cc:	f023 0303 	bic.w	r3, r3, #3
 800b2d0:	3304      	adds	r3, #4
 800b2d2:	4413      	add	r3, r2
 800b2d4:	f842 5b04 	str.w	r5, [r2], #4
 800b2d8:	4293      	cmp	r3, r2
 800b2da:	d1fb      	bne.n	800b2d4 <memset+0x6c>
 800b2dc:	f006 0403 	and.w	r4, r6, #3
 800b2e0:	b12c      	cbz	r4, 800b2ee <memset+0x86>
 800b2e2:	b2ca      	uxtb	r2, r1
 800b2e4:	441c      	add	r4, r3
 800b2e6:	f803 2b01 	strb.w	r2, [r3], #1
 800b2ea:	429c      	cmp	r4, r3
 800b2ec:	d1fb      	bne.n	800b2e6 <memset+0x7e>
 800b2ee:	bcf0      	pop	{r4, r5, r6, r7}
 800b2f0:	4770      	bx	lr
 800b2f2:	4634      	mov	r4, r6
 800b2f4:	4613      	mov	r3, r2
 800b2f6:	2c00      	cmp	r4, #0
 800b2f8:	d1f3      	bne.n	800b2e2 <memset+0x7a>
 800b2fa:	e7f8      	b.n	800b2ee <memset+0x86>
 800b2fc:	4614      	mov	r4, r2
 800b2fe:	4603      	mov	r3, r0
 800b300:	e7c1      	b.n	800b286 <memset+0x1e>
 800b302:	461a      	mov	r2, r3
 800b304:	4626      	mov	r6, r4
 800b306:	e7e0      	b.n	800b2ca <memset+0x62>

0800b308 <strchr>:
 800b308:	f011 01ff 	ands.w	r1, r1, #255	; 0xff
 800b30c:	4603      	mov	r3, r0
 800b30e:	f000 0203 	and.w	r2, r0, #3
 800b312:	d043      	beq.n	800b39c <strchr+0x94>
 800b314:	bb92      	cbnz	r2, 800b37c <strchr+0x74>
 800b316:	b470      	push	{r4, r5, r6}
 800b318:	6804      	ldr	r4, [r0, #0]
 800b31a:	ea41 2601 	orr.w	r6, r1, r1, lsl #8
 800b31e:	ea46 4606 	orr.w	r6, r6, r6, lsl #16
 800b322:	ea86 0504 	eor.w	r5, r6, r4
 800b326:	f1a5 3301 	sub.w	r3, r5, #16843009	; 0x1010101
 800b32a:	f1a4 3201 	sub.w	r2, r4, #16843009	; 0x1010101
 800b32e:	ea23 0305 	bic.w	r3, r3, r5
 800b332:	ea22 0204 	bic.w	r2, r2, r4
 800b336:	4313      	orrs	r3, r2
 800b338:	f013 3f80 	tst.w	r3, #2155905152	; 0x80808080
 800b33c:	d10f      	bne.n	800b35e <strchr+0x56>
 800b33e:	f850 4f04 	ldr.w	r4, [r0, #4]!
 800b342:	ea84 0506 	eor.w	r5, r4, r6
 800b346:	f1a5 3201 	sub.w	r2, r5, #16843009	; 0x1010101
 800b34a:	f1a4 3301 	sub.w	r3, r4, #16843009	; 0x1010101
 800b34e:	ea22 0205 	bic.w	r2, r2, r5
 800b352:	ea23 0304 	bic.w	r3, r3, r4
 800b356:	4313      	orrs	r3, r2
 800b358:	f013 3f80 	tst.w	r3, #2155905152	; 0x80808080
 800b35c:	d0ef      	beq.n	800b33e <strchr+0x36>
 800b35e:	7803      	ldrb	r3, [r0, #0]
 800b360:	b923      	cbnz	r3, 800b36c <strchr+0x64>
 800b362:	e036      	b.n	800b3d2 <strchr+0xca>
 800b364:	f810 3f01 	ldrb.w	r3, [r0, #1]!
 800b368:	2b00      	cmp	r3, #0
 800b36a:	d032      	beq.n	800b3d2 <strchr+0xca>
 800b36c:	4299      	cmp	r1, r3
 800b36e:	d1f9      	bne.n	800b364 <strchr+0x5c>
 800b370:	e030      	b.n	800b3d4 <strchr+0xcc>
 800b372:	428a      	cmp	r2, r1
 800b374:	d011      	beq.n	800b39a <strchr+0x92>
 800b376:	079a      	lsls	r2, r3, #30
 800b378:	4618      	mov	r0, r3
 800b37a:	d0cc      	beq.n	800b316 <strchr+0xe>
 800b37c:	4618      	mov	r0, r3
 800b37e:	f813 2b01 	ldrb.w	r2, [r3], #1
 800b382:	2a00      	cmp	r2, #0
 800b384:	d1f5      	bne.n	800b372 <strchr+0x6a>
 800b386:	4610      	mov	r0, r2
 800b388:	4770      	bx	lr
 800b38a:	0799      	lsls	r1, r3, #30
 800b38c:	4618      	mov	r0, r3
 800b38e:	d007      	beq.n	800b3a0 <strchr+0x98>
 800b390:	4618      	mov	r0, r3
 800b392:	3301      	adds	r3, #1
 800b394:	7802      	ldrb	r2, [r0, #0]
 800b396:	2a00      	cmp	r2, #0
 800b398:	d1f7      	bne.n	800b38a <strchr+0x82>
 800b39a:	4770      	bx	lr
 800b39c:	2a00      	cmp	r2, #0
 800b39e:	d1f7      	bne.n	800b390 <strchr+0x88>
 800b3a0:	6802      	ldr	r2, [r0, #0]
 800b3a2:	f1a2 3301 	sub.w	r3, r2, #16843009	; 0x1010101
 800b3a6:	ea23 0302 	bic.w	r3, r3, r2
 800b3aa:	f013 3f80 	tst.w	r3, #2155905152	; 0x80808080
 800b3ae:	d108      	bne.n	800b3c2 <strchr+0xba>
 800b3b0:	f850 2f04 	ldr.w	r2, [r0, #4]!
 800b3b4:	f1a2 3301 	sub.w	r3, r2, #16843009	; 0x1010101
 800b3b8:	ea23 0302 	bic.w	r3, r3, r2
 800b3bc:	f013 3f80 	tst.w	r3, #2155905152	; 0x80808080
 800b3c0:	d0f6      	beq.n	800b3b0 <strchr+0xa8>
 800b3c2:	7803      	ldrb	r3, [r0, #0]
 800b3c4:	2b00      	cmp	r3, #0
 800b3c6:	d0e8      	beq.n	800b39a <strchr+0x92>
 800b3c8:	f810 3f01 	ldrb.w	r3, [r0, #1]!
 800b3cc:	2b00      	cmp	r3, #0
 800b3ce:	d1fb      	bne.n	800b3c8 <strchr+0xc0>
 800b3d0:	4770      	bx	lr
 800b3d2:	4618      	mov	r0, r3
 800b3d4:	bc70      	pop	{r4, r5, r6}
 800b3d6:	4770      	bx	lr

0800b3d8 <strncmp>:
 800b3d8:	b39a      	cbz	r2, 800b442 <strncmp+0x6a>
 800b3da:	b4f0      	push	{r4, r5, r6, r7}
 800b3dc:	ea40 0501 	orr.w	r5, r0, r1
 800b3e0:	07ad      	lsls	r5, r5, #30
 800b3e2:	4604      	mov	r4, r0
 800b3e4:	4603      	mov	r3, r0
 800b3e6:	4608      	mov	r0, r1
 800b3e8:	d028      	beq.n	800b43c <strncmp+0x64>
 800b3ea:	7820      	ldrb	r0, [r4, #0]
 800b3ec:	780e      	ldrb	r6, [r1, #0]
 800b3ee:	4286      	cmp	r6, r0
 800b3f0:	d129      	bne.n	800b446 <strncmp+0x6e>
 800b3f2:	2a01      	cmp	r2, #1
 800b3f4:	d02a      	beq.n	800b44c <strncmp+0x74>
 800b3f6:	4625      	mov	r5, r4
 800b3f8:	b150      	cbz	r0, 800b410 <strncmp+0x38>
 800b3fa:	f815 0f01 	ldrb.w	r0, [r5, #1]!
 800b3fe:	f811 6f01 	ldrb.w	r6, [r1, #1]!
 800b402:	43eb      	mvns	r3, r5
 800b404:	42b0      	cmp	r0, r6
 800b406:	4413      	add	r3, r2
 800b408:	d11d      	bne.n	800b446 <strncmp+0x6e>
 800b40a:	18e3      	adds	r3, r4, r3
 800b40c:	d1f4      	bne.n	800b3f8 <strncmp+0x20>
 800b40e:	4618      	mov	r0, r3
 800b410:	bcf0      	pop	{r4, r5, r6, r7}
 800b412:	4770      	bx	lr
 800b414:	6807      	ldr	r7, [r0, #0]
 800b416:	461c      	mov	r4, r3
 800b418:	f853 5b04 	ldr.w	r5, [r3], #4
 800b41c:	f1a5 3601 	sub.w	r6, r5, #16843009	; 0x1010101
 800b420:	42bd      	cmp	r5, r7
 800b422:	4601      	mov	r1, r0
 800b424:	ea26 0605 	bic.w	r6, r6, r5
 800b428:	f100 0004 	add.w	r0, r0, #4
 800b42c:	d1dd      	bne.n	800b3ea <strncmp+0x12>
 800b42e:	3a04      	subs	r2, #4
 800b430:	461c      	mov	r4, r3
 800b432:	4601      	mov	r1, r0
 800b434:	d00a      	beq.n	800b44c <strncmp+0x74>
 800b436:	f016 3f80 	tst.w	r6, #2155905152	; 0x80808080
 800b43a:	d107      	bne.n	800b44c <strncmp+0x74>
 800b43c:	2a03      	cmp	r2, #3
 800b43e:	d8e9      	bhi.n	800b414 <strncmp+0x3c>
 800b440:	e7d3      	b.n	800b3ea <strncmp+0x12>
 800b442:	4610      	mov	r0, r2
 800b444:	4770      	bx	lr
 800b446:	1b80      	subs	r0, r0, r6
 800b448:	bcf0      	pop	{r4, r5, r6, r7}
 800b44a:	4770      	bx	lr
 800b44c:	2000      	movs	r0, #0
 800b44e:	bcf0      	pop	{r4, r5, r6, r7}
 800b450:	4770      	bx	lr
 800b452:	bf00      	nop

0800b454 <strncpy>:
 800b454:	b470      	push	{r4, r5, r6}
 800b456:	ea40 0401 	orr.w	r4, r0, r1
 800b45a:	07a3      	lsls	r3, r4, #30
 800b45c:	d101      	bne.n	800b462 <strncpy+0xe>
 800b45e:	2a03      	cmp	r2, #3
 800b460:	d80f      	bhi.n	800b482 <strncpy+0x2e>
 800b462:	4604      	mov	r4, r0
 800b464:	1e4d      	subs	r5, r1, #1
 800b466:	e007      	b.n	800b478 <strncpy+0x24>
 800b468:	f815 1f01 	ldrb.w	r1, [r5, #1]!
 800b46c:	f803 1b01 	strb.w	r1, [r3], #1
 800b470:	1e56      	subs	r6, r2, #1
 800b472:	b1c9      	cbz	r1, 800b4a8 <strncpy+0x54>
 800b474:	461c      	mov	r4, r3
 800b476:	4632      	mov	r2, r6
 800b478:	4623      	mov	r3, r4
 800b47a:	2a00      	cmp	r2, #0
 800b47c:	d1f4      	bne.n	800b468 <strncpy+0x14>
 800b47e:	bc70      	pop	{r4, r5, r6}
 800b480:	4770      	bx	lr
 800b482:	460b      	mov	r3, r1
 800b484:	4604      	mov	r4, r0
 800b486:	4619      	mov	r1, r3
 800b488:	f853 6b04 	ldr.w	r6, [r3], #4
 800b48c:	f1a6 3501 	sub.w	r5, r6, #16843009	; 0x1010101
 800b490:	ea25 0506 	bic.w	r5, r5, r6
 800b494:	f015 3f80 	tst.w	r5, #2155905152	; 0x80808080
 800b498:	d1e4      	bne.n	800b464 <strncpy+0x10>
 800b49a:	3a04      	subs	r2, #4
 800b49c:	2a03      	cmp	r2, #3
 800b49e:	f844 6b04 	str.w	r6, [r4], #4
 800b4a2:	4619      	mov	r1, r3
 800b4a4:	d8ef      	bhi.n	800b486 <strncpy+0x32>
 800b4a6:	e7dd      	b.n	800b464 <strncpy+0x10>
 800b4a8:	4422      	add	r2, r4
 800b4aa:	2e00      	cmp	r6, #0
 800b4ac:	d0e7      	beq.n	800b47e <strncpy+0x2a>
 800b4ae:	f803 1b01 	strb.w	r1, [r3], #1
 800b4b2:	4293      	cmp	r3, r2
 800b4b4:	d1fb      	bne.n	800b4ae <strncpy+0x5a>
 800b4b6:	bc70      	pop	{r4, r5, r6}
 800b4b8:	4770      	bx	lr
 800b4ba:	bf00      	nop

0800b4bc <strpbrk>:
 800b4bc:	b430      	push	{r4, r5}
 800b4be:	7804      	ldrb	r4, [r0, #0]
 800b4c0:	b1a4      	cbz	r4, 800b4ec <strpbrk+0x30>
 800b4c2:	780d      	ldrb	r5, [r1, #0]
 800b4c4:	460a      	mov	r2, r1
 800b4c6:	462b      	mov	r3, r5
 800b4c8:	b91d      	cbnz	r5, 800b4d2 <strpbrk+0x16>
 800b4ca:	e00a      	b.n	800b4e2 <strpbrk+0x26>
 800b4cc:	f812 3f01 	ldrb.w	r3, [r2, #1]!
 800b4d0:	b13b      	cbz	r3, 800b4e2 <strpbrk+0x26>
 800b4d2:	429c      	cmp	r4, r3
 800b4d4:	d1fa      	bne.n	800b4cc <strpbrk+0x10>
 800b4d6:	7813      	ldrb	r3, [r2, #0]
 800b4d8:	2b00      	cmp	r3, #0
 800b4da:	bf08      	it	eq
 800b4dc:	2000      	moveq	r0, #0
 800b4de:	bc30      	pop	{r4, r5}
 800b4e0:	4770      	bx	lr
 800b4e2:	f810 4f01 	ldrb.w	r4, [r0, #1]!
 800b4e6:	2c00      	cmp	r4, #0
 800b4e8:	d1ec      	bne.n	800b4c4 <strpbrk+0x8>
 800b4ea:	e7f4      	b.n	800b4d6 <strpbrk+0x1a>
 800b4ec:	4620      	mov	r0, r4
 800b4ee:	bc30      	pop	{r4, r5}
 800b4f0:	4770      	bx	lr
 800b4f2:	bf00      	nop

0800b4f4 <strspn>:
 800b4f4:	b470      	push	{r4, r5, r6}
 800b4f6:	7804      	ldrb	r4, [r0, #0]
 800b4f8:	b18c      	cbz	r4, 800b51e <strspn+0x2a>
 800b4fa:	780e      	ldrb	r6, [r1, #0]
 800b4fc:	4605      	mov	r5, r0
 800b4fe:	b15e      	cbz	r6, 800b518 <strspn+0x24>
 800b500:	460a      	mov	r2, r1
 800b502:	4633      	mov	r3, r6
 800b504:	e002      	b.n	800b50c <strspn+0x18>
 800b506:	f812 3f01 	ldrb.w	r3, [r2, #1]!
 800b50a:	b12b      	cbz	r3, 800b518 <strspn+0x24>
 800b50c:	42a3      	cmp	r3, r4
 800b50e:	d1fa      	bne.n	800b506 <strspn+0x12>
 800b510:	f815 4f01 	ldrb.w	r4, [r5, #1]!
 800b514:	2c00      	cmp	r4, #0
 800b516:	d1f2      	bne.n	800b4fe <strspn+0xa>
 800b518:	1a28      	subs	r0, r5, r0
 800b51a:	bc70      	pop	{r4, r5, r6}
 800b51c:	4770      	bx	lr
 800b51e:	4620      	mov	r0, r4
 800b520:	e7fb      	b.n	800b51a <strspn+0x26>
 800b522:	bf00      	nop
